
/home/blank/Engineering/MCU/WCH/Project/Blink30/build/ch32v30x_firmware.elf:     file format elf32-littleriscv


Disassembly of section .init:

00000000 <_sinit>:
   0:	16f0006f          	j	96e <handle_reset>
   4:	00000013          	.word	0x00000013
   8:	00000013          	.word	0x00000013
   c:	00000013          	.word	0x00000013
  10:	00000013          	.word	0x00000013

	.section	.init,"ax",@progbits
	.global	_start
	.align	1
_start:
	j	handle_reset
  14:	00000013          	.word	0x00000013
  18:	00000013          	.word	0x00000013
  1c:	00000013          	.word	0x00000013
  20:	00000013          	.word	0x00000013
  24:	00000013          	.word	0x00000013
  28:	00000013          	.word	0x00000013
  2c:	00000013          	.word	0x00000013
  30:	00000013          	.word	0x00000013
  34:	00100073          	.word	0x00100073

Disassembly of section .vector:

00000038 <_vector_base>:
	...
  40:	000006de          	.word	0x000006de
  44:	000006ee          	.word	0x000006ee
  48:	00000000          	.word	0x00000000
  4c:	000008b4          	.word	0x000008b4
	...
  58:	000008b6          	.word	0x000008b6
  5c:	000008b8          	.word	0x000008b8
	...
  68:	000008ba          	.word	0x000008ba
  6c:	00000000          	.word	0x00000000
  70:	000008bc          	.word	0x000008bc
  74:	00000000          	.word	0x00000000
  78:	000008be          	.word	0x000008be
  7c:	000008c0          	.word	0x000008c0
  80:	000008c2          	.word	0x000008c2
  84:	000008c4          	.word	0x000008c4
  88:	000008c6          	.word	0x000008c6
  8c:	000008c8          	.word	0x000008c8
  90:	000008ca          	.word	0x000008ca
  94:	000008cc          	.word	0x000008cc
  98:	000008ce          	.word	0x000008ce
  9c:	000008d0          	.word	0x000008d0
  a0:	000008d2          	.word	0x000008d2
  a4:	000008d4          	.word	0x000008d4
  a8:	000008d6          	.word	0x000008d6
  ac:	000008d8          	.word	0x000008d8
  b0:	000008da          	.word	0x000008da
  b4:	000008dc          	.word	0x000008dc
  b8:	000008de          	.word	0x000008de
  bc:	000008e0          	.word	0x000008e0
  c0:	000008e2          	.word	0x000008e2
  c4:	000008e4          	.word	0x000008e4
  c8:	000008e6          	.word	0x000008e6
  cc:	000008e8          	.word	0x000008e8
  d0:	000008ea          	.word	0x000008ea
  d4:	000008ec          	.word	0x000008ec
  d8:	000008ee          	.word	0x000008ee
  dc:	000008f0          	.word	0x000008f0
  e0:	000008f2          	.word	0x000008f2
  e4:	000008f4          	.word	0x000008f4
  e8:	000008f6          	.word	0x000008f6
  ec:	000008f8          	.word	0x000008f8
  f0:	000008fa          	.word	0x000008fa
  f4:	000008fc          	.word	0x000008fc
  f8:	000008fe          	.word	0x000008fe
  fc:	00000900          	.word	0x00000900
 100:	00000902          	.word	0x00000902
 104:	00000904          	.word	0x00000904
 108:	00000906          	.word	0x00000906
 10c:	00000908          	.word	0x00000908
 110:	0000090a          	.word	0x0000090a
 114:	0000090c          	.word	0x0000090c
 118:	0000090e          	.word	0x0000090e
 11c:	00000910          	.word	0x00000910
 120:	00000912          	.word	0x00000912
 124:	00000914          	.word	0x00000914
 128:	00000916          	.word	0x00000916
 12c:	00000918          	.word	0x00000918
 130:	0000091a          	.word	0x0000091a
 134:	0000091c          	.word	0x0000091c
 138:	0000091e          	.word	0x0000091e
 13c:	00000920          	.word	0x00000920
 140:	00000922          	.word	0x00000922
 144:	00000924          	.word	0x00000924
 148:	00000926          	.word	0x00000926
 14c:	00000928          	.word	0x00000928
 150:	0000092a          	.word	0x0000092a
 154:	0000092c          	.word	0x0000092c
 158:	0000092e          	.word	0x0000092e
 15c:	00000930          	.word	0x00000930
 160:	00000932          	.word	0x00000932
 164:	00000934          	.word	0x00000934
 168:	00000936          	.word	0x00000936
 16c:	00000938          	.word	0x00000938
 170:	0000093a          	.word	0x0000093a
 174:	0000093c          	.word	0x0000093c
 178:	0000093e          	.word	0x0000093e
 17c:	00000940          	.word	0x00000940
 180:	00000942          	.word	0x00000942
 184:	00000944          	.word	0x00000944
 188:	00000946          	.word	0x00000946
 18c:	00000948          	.word	0x00000948
 190:	0000094a          	.word	0x0000094a
 194:	0000094c          	.word	0x0000094c
 198:	0000094e          	.word	0x0000094e
 19c:	00000950          	.word	0x00000950
 1a0:	00000952          	.word	0x00000952
 1a4:	00000954          	.word	0x00000954
 1a8:	00000956          	.word	0x00000956
 1ac:	00000958          	.word	0x00000958
 1b0:	0000095a          	.word	0x0000095a
 1b4:	0000095c          	.word	0x0000095c
 1b8:	0000095e          	.word	0x0000095e
 1bc:	00000960          	.word	0x00000960
 1c0:	00000962          	.word	0x00000962
 1c4:	00000964          	.word	0x00000964
 1c8:	00000966          	.word	0x00000966
 1cc:	00000968          	.word	0x00000968
 1d0:	0000096a          	.word	0x0000096a
 1d4:	0000096c          	.word	0x0000096c
	...

Disassembly of section .text:

00000200 <atexit>:
 200:	1141                	addi	sp,sp,-16
 202:	c422                	sw	s0,8(sp)
 204:	c606                	sw	ra,12(sp)
 206:	0800                	addi	s0,sp,16
 208:	4422                	lw	s0,8(sp)
 20a:	40b2                	lw	ra,12(sp)
 20c:	85aa                	mv	a1,a0
 20e:	4681                	li	a3,0
 210:	4601                	li	a2,0
 212:	4501                	li	a0,0
 214:	0141                	addi	sp,sp,16
 216:	aac9                	j	3e8 <__register_exitproc>

00000218 <__libc_init_array>:
 218:	1101                	addi	sp,sp,-32
 21a:	cc22                	sw	s0,24(sp)
 21c:	ca26                	sw	s1,20(sp)
 21e:	c64e                	sw	s3,12(sp)
 220:	ce06                	sw	ra,28(sp)
 222:	c84a                	sw	s2,16(sp)
 224:	1000                	addi	s0,sp,32
 226:	6985                	lui	s3,0x1
 228:	6485                	lui	s1,0x1
 22a:	a4498993          	addi	s3,s3,-1468 # a44 <__init_array_start>
 22e:	a4448493          	addi	s1,s1,-1468 # a44 <__init_array_start>
 232:	00998d63          	beq	s3,s1,24c <__libc_init_array+0x34>
 236:	409989b3          	sub	s3,s3,s1
 23a:	4029d993          	srai	s3,s3,0x2
 23e:	4901                	li	s2,0
 240:	409c                	lw	a5,0(s1)
 242:	0905                	addi	s2,s2,1
 244:	0491                	addi	s1,s1,4
 246:	9782                	jalr	a5
 248:	ff396ce3          	bltu	s2,s3,240 <__libc_init_array+0x28>
 24c:	6985                	lui	s3,0x1
 24e:	6485                	lui	s1,0x1
 250:	a4898993          	addi	s3,s3,-1464 # a48 <_data_lma>
 254:	a4448493          	addi	s1,s1,-1468 # a44 <__init_array_start>
 258:	00998d63          	beq	s3,s1,272 <__libc_init_array+0x5a>
 25c:	409989b3          	sub	s3,s3,s1
 260:	4029d993          	srai	s3,s3,0x2
 264:	4901                	li	s2,0
 266:	409c                	lw	a5,0(s1)
 268:	0905                	addi	s2,s2,1
 26a:	0491                	addi	s1,s1,4
 26c:	9782                	jalr	a5
 26e:	ff396ce3          	bltu	s2,s3,266 <__libc_init_array+0x4e>
 272:	40f2                	lw	ra,28(sp)
 274:	4462                	lw	s0,24(sp)
 276:	44d2                	lw	s1,20(sp)
 278:	4942                	lw	s2,16(sp)
 27a:	49b2                	lw	s3,12(sp)
 27c:	6105                	addi	sp,sp,32
 27e:	4781                	li	a5,0
 280:	8082                	ret

00000282 <__libc_fini_array>:
 282:	1141                	addi	sp,sp,-16
 284:	c226                	sw	s1,4(sp)
 286:	6785                	lui	a5,0x1
 288:	6485                	lui	s1,0x1
 28a:	a4878793          	addi	a5,a5,-1464 # a48 <_data_lma>
 28e:	a4848493          	addi	s1,s1,-1464 # a48 <_data_lma>
 292:	c422                	sw	s0,8(sp)
 294:	c04a                	sw	s2,0(sp)
 296:	c606                	sw	ra,12(sp)
 298:	0800                	addi	s0,sp,16
 29a:	8f85                	sub	a5,a5,s1
 29c:	4027d913          	srai	s2,a5,0x2
 2a0:	00090a63          	beqz	s2,2b4 <__libc_fini_array+0x32>
 2a4:	14f1                	addi	s1,s1,-4
 2a6:	94be                	add	s1,s1,a5
 2a8:	409c                	lw	a5,0(s1)
 2aa:	197d                	addi	s2,s2,-1
 2ac:	14f1                	addi	s1,s1,-4
 2ae:	9782                	jalr	a5
 2b0:	fe091ce3          	bnez	s2,2a8 <__libc_fini_array+0x26>
 2b4:	40b2                	lw	ra,12(sp)
 2b6:	4422                	lw	s0,8(sp)
 2b8:	4492                	lw	s1,4(sp)
 2ba:	4902                	lw	s2,0(sp)
 2bc:	0141                	addi	sp,sp,16
 2be:	4781                	li	a5,0
 2c0:	8082                	ret

000002c2 <memcpy>:
 2c2:	1141                	addi	sp,sp,-16
 2c4:	c422                	sw	s0,8(sp)
 2c6:	c606                	sw	ra,12(sp)
 2c8:	0800                	addi	s0,sp,16
 2ca:	00a5c7b3          	xor	a5,a1,a0
 2ce:	8b8d                	andi	a5,a5,3
 2d0:	00c508b3          	add	a7,a0,a2
 2d4:	e7bd                	bnez	a5,342 <memcpy+0x80>
 2d6:	00463613          	sltiu	a2,a2,4
 2da:	e625                	bnez	a2,342 <memcpy+0x80>
 2dc:	00357793          	andi	a5,a0,3
 2e0:	872a                	mv	a4,a0
 2e2:	e3e5                	bnez	a5,3c2 <memcpy+0x100>
 2e4:	ffc8f613          	andi	a2,a7,-4
 2e8:	40e606b3          	sub	a3,a2,a4
 2ec:	02000793          	li	a5,32
 2f0:	06d7cd63          	blt	a5,a3,36a <memcpy+0xa8>
 2f4:	86ae                	mv	a3,a1
 2f6:	87ba                	mv	a5,a4
 2f8:	02c77163          	bgeu	a4,a2,31a <memcpy+0x58>
 2fc:	0006a803          	lw	a6,0(a3)
 300:	0791                	addi	a5,a5,4
 302:	0691                	addi	a3,a3,4
 304:	ff07ae23          	sw	a6,-4(a5)
 308:	fec7eae3          	bltu	a5,a2,2fc <memcpy+0x3a>
 30c:	167d                	addi	a2,a2,-1
 30e:	8e19                	sub	a2,a2,a4
 310:	9a71                	andi	a2,a2,-4
 312:	0591                	addi	a1,a1,4
 314:	0711                	addi	a4,a4,4
 316:	95b2                	add	a1,a1,a2
 318:	9732                	add	a4,a4,a2
 31a:	03176763          	bltu	a4,a7,348 <memcpy+0x86>
 31e:	40b2                	lw	ra,12(sp)
 320:	4422                	lw	s0,8(sp)
 322:	0141                	addi	sp,sp,16
 324:	4281                	li	t0,0
 326:	4301                	li	t1,0
 328:	4381                	li	t2,0
 32a:	4581                	li	a1,0
 32c:	4601                	li	a2,0
 32e:	4681                	li	a3,0
 330:	4701                	li	a4,0
 332:	4781                	li	a5,0
 334:	4801                	li	a6,0
 336:	4881                	li	a7,0
 338:	4e01                	li	t3,0
 33a:	4e81                	li	t4,0
 33c:	4f01                	li	t5,0
 33e:	4f81                	li	t6,0
 340:	8082                	ret
 342:	872a                	mv	a4,a0
 344:	fd157de3          	bgeu	a0,a7,31e <memcpy+0x5c>
 348:	0005c783          	lbu	a5,0(a1)
 34c:	0705                	addi	a4,a4,1
 34e:	0585                	addi	a1,a1,1
 350:	fef70fa3          	sb	a5,-1(a4)
 354:	fce885e3          	beq	a7,a4,31e <memcpy+0x5c>
 358:	0005c783          	lbu	a5,0(a1)
 35c:	0705                	addi	a4,a4,1
 35e:	0585                	addi	a1,a1,1
 360:	fef70fa3          	sb	a5,-1(a4)
 364:	fee892e3          	bne	a7,a4,348 <memcpy+0x86>
 368:	bf5d                	j	31e <memcpy+0x5c>
 36a:	5194                	lw	a3,32(a1)
 36c:	0005a383          	lw	t2,0(a1)
 370:	0045a283          	lw	t0,4(a1)
 374:	0085af83          	lw	t6,8(a1)
 378:	00c5af03          	lw	t5,12(a1)
 37c:	0105ae83          	lw	t4,16(a1)
 380:	0145ae03          	lw	t3,20(a1)
 384:	0185a303          	lw	t1,24(a1)
 388:	01c5a803          	lw	a6,28(a1)
 38c:	02470713          	addi	a4,a4,36
 390:	fed72e23          	sw	a3,-4(a4)
 394:	fc772e23          	sw	t2,-36(a4)
 398:	40e606b3          	sub	a3,a2,a4
 39c:	fe572023          	sw	t0,-32(a4)
 3a0:	fff72223          	sw	t6,-28(a4)
 3a4:	ffe72423          	sw	t5,-24(a4)
 3a8:	ffd72623          	sw	t4,-20(a4)
 3ac:	ffc72823          	sw	t3,-16(a4)
 3b0:	fe672a23          	sw	t1,-12(a4)
 3b4:	ff072c23          	sw	a6,-8(a4)
 3b8:	02458593          	addi	a1,a1,36
 3bc:	fad7c7e3          	blt	a5,a3,36a <memcpy+0xa8>
 3c0:	bf15                	j	2f4 <memcpy+0x32>
 3c2:	0005c683          	lbu	a3,0(a1)
 3c6:	0705                	addi	a4,a4,1
 3c8:	00377793          	andi	a5,a4,3
 3cc:	fed70fa3          	sb	a3,-1(a4)
 3d0:	0585                	addi	a1,a1,1
 3d2:	db89                	beqz	a5,2e4 <memcpy+0x22>
 3d4:	0005c683          	lbu	a3,0(a1)
 3d8:	0705                	addi	a4,a4,1
 3da:	00377793          	andi	a5,a4,3
 3de:	fed70fa3          	sb	a3,-1(a4)
 3e2:	0585                	addi	a1,a1,1
 3e4:	fff9                	bnez	a5,3c2 <memcpy+0x100>
 3e6:	bdfd                	j	2e4 <memcpy+0x22>

000003e8 <__register_exitproc>:
 3e8:	7179                	addi	sp,sp,-48
 3ea:	d422                	sw	s0,40(sp)
 3ec:	d226                	sw	s1,36(sp)
 3ee:	1800                	addi	s0,sp,48
 3f0:	d04a                	sw	s2,32(sp)
 3f2:	ce4e                	sw	s3,28(sp)
 3f4:	cc52                	sw	s4,24(sp)
 3f6:	d606                	sw	ra,44(sp)
 3f8:	200004b7          	lui	s1,0x20000
 3fc:	892a                	mv	s2,a0
 3fe:	0044a503          	lw	a0,4(s1) # 20000004 <__atexit_recursive_mutex>
 402:	fcb42e23          	sw	a1,-36(s0)
 406:	89b2                	mv	s3,a2
 408:	8a36                	mv	s4,a3
 40a:	28f1                	jal	4e6 <__retarget_lock_acquire_recursive>
 40c:	8101a783          	lw	a5,-2032(gp) # 20000010 <__atexit>
 410:	fdc42583          	lw	a1,-36(s0)
 414:	cbad                	beqz	a5,486 <__register_exitproc+0x9e>
 416:	43d8                	lw	a4,4(a5)
 418:	46fd                	li	a3,31
 41a:	0044a503          	lw	a0,4(s1)
 41e:	06e6c963          	blt	a3,a4,490 <__register_exitproc+0xa8>
 422:	00271693          	slli	a3,a4,0x2
 426:	02091763          	bnez	s2,454 <__register_exitproc+0x6c>
 42a:	0705                	addi	a4,a4,1
 42c:	c3d8                	sw	a4,4(a5)
 42e:	97b6                	add	a5,a5,a3
 430:	c78c                	sw	a1,8(a5)
 432:	28e5                	jal	52a <__retarget_lock_release_recursive>
 434:	4501                	li	a0,0
 436:	50b2                	lw	ra,44(sp)
 438:	5422                	lw	s0,40(sp)
 43a:	5492                	lw	s1,36(sp)
 43c:	5902                	lw	s2,32(sp)
 43e:	49f2                	lw	s3,28(sp)
 440:	4a62                	lw	s4,24(sp)
 442:	6145                	addi	sp,sp,48
 444:	4581                	li	a1,0
 446:	4601                	li	a2,0
 448:	4681                	li	a3,0
 44a:	4701                	li	a4,0
 44c:	4781                	li	a5,0
 44e:	4801                	li	a6,0
 450:	4881                	li	a7,0
 452:	8082                	ret
 454:	00d788b3          	add	a7,a5,a3
 458:	0938a423          	sw	s3,136(a7)
 45c:	1887a803          	lw	a6,392(a5)
 460:	4605                	li	a2,1
 462:	00e61633          	sll	a2,a2,a4
 466:	00c86833          	or	a6,a6,a2
 46a:	1907a423          	sw	a6,392(a5)
 46e:	1148a423          	sw	s4,264(a7)
 472:	4809                	li	a6,2
 474:	fb091be3          	bne	s2,a6,42a <__register_exitproc+0x42>
 478:	18c7a803          	lw	a6,396(a5)
 47c:	00c86633          	or	a2,a6,a2
 480:	18c7a623          	sw	a2,396(a5)
 484:	b75d                	j	42a <__register_exitproc+0x42>
 486:	83418793          	addi	a5,gp,-1996 # 20000034 <__atexit0>
 48a:	80f1a823          	sw	a5,-2032(gp) # 20000010 <__atexit>
 48e:	b761                	j	416 <__register_exitproc+0x2e>
 490:	2869                	jal	52a <__retarget_lock_release_recursive>
 492:	557d                	li	a0,-1
 494:	b74d                	j	436 <__register_exitproc+0x4e>

00000496 <__retarget_lock_init>:
 496:	1141                	addi	sp,sp,-16
 498:	c422                	sw	s0,8(sp)
 49a:	c606                	sw	ra,12(sp)
 49c:	0800                	addi	s0,sp,16
 49e:	40b2                	lw	ra,12(sp)
 4a0:	4422                	lw	s0,8(sp)
 4a2:	0141                	addi	sp,sp,16
 4a4:	8082                	ret

000004a6 <__retarget_lock_init_recursive>:
 4a6:	1141                	addi	sp,sp,-16
 4a8:	c422                	sw	s0,8(sp)
 4aa:	c606                	sw	ra,12(sp)
 4ac:	0800                	addi	s0,sp,16
 4ae:	40b2                	lw	ra,12(sp)
 4b0:	4422                	lw	s0,8(sp)
 4b2:	0141                	addi	sp,sp,16
 4b4:	8082                	ret

000004b6 <__retarget_lock_close>:
 4b6:	1141                	addi	sp,sp,-16
 4b8:	c422                	sw	s0,8(sp)
 4ba:	c606                	sw	ra,12(sp)
 4bc:	0800                	addi	s0,sp,16
 4be:	40b2                	lw	ra,12(sp)
 4c0:	4422                	lw	s0,8(sp)
 4c2:	0141                	addi	sp,sp,16
 4c4:	8082                	ret

000004c6 <__retarget_lock_close_recursive>:
 4c6:	1141                	addi	sp,sp,-16
 4c8:	c422                	sw	s0,8(sp)
 4ca:	c606                	sw	ra,12(sp)
 4cc:	0800                	addi	s0,sp,16
 4ce:	40b2                	lw	ra,12(sp)
 4d0:	4422                	lw	s0,8(sp)
 4d2:	0141                	addi	sp,sp,16
 4d4:	8082                	ret

000004d6 <__retarget_lock_acquire>:
 4d6:	1141                	addi	sp,sp,-16
 4d8:	c422                	sw	s0,8(sp)
 4da:	c606                	sw	ra,12(sp)
 4dc:	0800                	addi	s0,sp,16
 4de:	40b2                	lw	ra,12(sp)
 4e0:	4422                	lw	s0,8(sp)
 4e2:	0141                	addi	sp,sp,16
 4e4:	8082                	ret

000004e6 <__retarget_lock_acquire_recursive>:
 4e6:	1141                	addi	sp,sp,-16
 4e8:	c422                	sw	s0,8(sp)
 4ea:	c606                	sw	ra,12(sp)
 4ec:	0800                	addi	s0,sp,16
 4ee:	40b2                	lw	ra,12(sp)
 4f0:	4422                	lw	s0,8(sp)
 4f2:	0141                	addi	sp,sp,16
 4f4:	8082                	ret

000004f6 <__retarget_lock_try_acquire>:
 4f6:	1141                	addi	sp,sp,-16
 4f8:	c422                	sw	s0,8(sp)
 4fa:	c606                	sw	ra,12(sp)
 4fc:	0800                	addi	s0,sp,16
 4fe:	40b2                	lw	ra,12(sp)
 500:	4422                	lw	s0,8(sp)
 502:	4505                	li	a0,1
 504:	0141                	addi	sp,sp,16
 506:	8082                	ret

00000508 <__retarget_lock_try_acquire_recursive>:
 508:	1141                	addi	sp,sp,-16
 50a:	c422                	sw	s0,8(sp)
 50c:	c606                	sw	ra,12(sp)
 50e:	0800                	addi	s0,sp,16
 510:	40b2                	lw	ra,12(sp)
 512:	4422                	lw	s0,8(sp)
 514:	4505                	li	a0,1
 516:	0141                	addi	sp,sp,16
 518:	8082                	ret

0000051a <__retarget_lock_release>:
 51a:	1141                	addi	sp,sp,-16
 51c:	c422                	sw	s0,8(sp)
 51e:	c606                	sw	ra,12(sp)
 520:	0800                	addi	s0,sp,16
 522:	40b2                	lw	ra,12(sp)
 524:	4422                	lw	s0,8(sp)
 526:	0141                	addi	sp,sp,16
 528:	8082                	ret

0000052a <__retarget_lock_release_recursive>:
 52a:	1141                	addi	sp,sp,-16
 52c:	c422                	sw	s0,8(sp)
 52e:	c606                	sw	ra,12(sp)
 530:	0800                	addi	s0,sp,16
 532:	40b2                	lw	ra,12(sp)
 534:	4422                	lw	s0,8(sp)
 536:	0141                	addi	sp,sp,16
 538:	8082                	ret

0000053a <main>:

    SystemCoreClockUpdate();
}

int main(void)
{
 53a:	1101                	addi	sp,sp,-32
 53c:	ce06                	sw	ra,28(sp)
 53e:	cc22                	sw	s0,24(sp)
    // SystemClock_Config_144MHz();
        NVIC_PriorityGroupConfig(NVIC_PriorityGroup_2);
 540:	4509                	li	a0,2
{
 542:	1000                	addi	s0,sp,32
        NVIC_PriorityGroupConfig(NVIC_PriorityGroup_2);
 544:	2a55                	jal	6f8 <NVIC_PriorityGroupConfig>
        Delay_Init();
 546:	2639                	jal	854 <Delay_Init>

    RCC->CTLR |= (uint32_t)RCC_HSEON;                    // Включаем HSE
 548:	400217b7          	lui	a5,0x40021
 54c:	4398                	lw	a4,0(a5)
 54e:	66c1                	lui	a3,0x10
 550:	8f55                	or	a4,a4,a3
 552:	c398                	sw	a4,0(a5)
    while((RCC->CTLR & RCC_HSERDY) == 0);                // Ждём стабилизации HSE
 554:	4398                	lw	a4,0(a5)
 556:	00e71693          	slli	a3,a4,0xe
 55a:	fe06dde3          	bgez	a3,554 <main+0x1a>

    RCC->CFGR0 |= (uint32_t)(RCC_PLLSRC | (0x0F << 10)); // PLLSRC = HSE, PLLMUL = 18 (8*18 = 144 МГц)
 55e:	43d8                	lw	a4,4(a5)
 560:	66d1                	lui	a3,0x14
 562:	c0068693          	addi	a3,a3,-1024 # 13c00 <_data_lma+0x131b8>
 566:	8f55                	or	a4,a4,a3
 568:	c3d8                	sw	a4,4(a5)
    RCC->CTLR |= (uint32_t)RCC_PLLON;                    // Включаем PLL
 56a:	4398                	lw	a4,0(a5)
 56c:	010006b7          	lui	a3,0x1000
 570:	8f55                	or	a4,a4,a3
 572:	c398                	sw	a4,0(a5)
    while((RCC->CTLR & RCC_PLLRDY) == 0);                // Ждём стабилизации PLL
 574:	400217b7          	lui	a5,0x40021
 578:	4398                	lw	a4,0(a5)
 57a:	00671693          	slli	a3,a4,0x6
 57e:	fe06dde3          	bgez	a3,578 <main+0x3e>

    RCC->CFGR0 &= (uint32_t)~RCC_SW;                     // Переключаем SYSCLK на PLL
 582:	43d8                	lw	a4,4(a5)
    RCC->CFGR0 |= (uint32_t)RCC_SW_PLL;
    while((RCC->CFGR0 & RCC_SWS) != RCC_SWS_PLL);        // Ждём, пока SYSCLK переключится на PLL
 584:	400216b7          	lui	a3,0x40021
    RCC->CFGR0 &= (uint32_t)~RCC_SW;                     // Переключаем SYSCLK на PLL
 588:	9b71                	andi	a4,a4,-4
 58a:	c3d8                	sw	a4,4(a5)
    RCC->CFGR0 |= (uint32_t)RCC_SW_PLL;
 58c:	43d8                	lw	a4,4(a5)
 58e:	00276713          	ori	a4,a4,2
 592:	c3d8                	sw	a4,4(a5)
    while((RCC->CFGR0 & RCC_SWS) != RCC_SWS_PLL);        // Ждём, пока SYSCLK переключится на PLL
 594:	4721                	li	a4,8
 596:	42dc                	lw	a5,4(a3)
 598:	8bb1                	andi	a5,a5,12
 59a:	fee79ee3          	bne	a5,a4,596 <main+0x5c>


    RCC_APB2PeriphClockCmd(RCC_APB2Periph_GPIOC, ENABLE);
 59e:	4585                	li	a1,1
 5a0:	4541                	li	a0,16
 5a2:	22bd                	jal	710 <RCC_APB2PeriphClockCmd>
    GPIO_InitTypeDef GPIO_InitStructure = {
 5a4:	00000597          	auipc	a1,0x0
 5a8:	49458593          	addi	a1,a1,1172 # a38 <register_fini+0x2a>
 5ac:	4631                	li	a2,12
 5ae:	fe440513          	addi	a0,s0,-28
 5b2:	3b01                	jal	2c2 <memcpy>
        .GPIO_Pin   = GPIO_Pin_15,
        .GPIO_Mode  = GPIO_Mode_Out_PP,
        .GPIO_Speed = GPIO_Speed_50MHz
    };
    GPIO_Init(GPIOC, &GPIO_InitStructure);
 5b4:	fe440593          	addi	a1,s0,-28
 5b8:	40011537          	lui	a0,0x40011
 5bc:	2821                	jal	5d4 <GPIO_Init>
    // delay = 3  → ~6 МГц
    // delay = 5  → ~4 МГц

    while(1)
    {
            GPIO_WriteBit(GPIOC, GPIO_Pin_15, Bit_SET);
 5be:	4605                	li	a2,1
 5c0:	65a1                	lui	a1,0x8
 5c2:	40011537          	lui	a0,0x40011
 5c6:	28ed                	jal	6c0 <GPIO_WriteBit>
            // Delay_Ms(500);
            GPIO_WriteBit(GPIOC, GPIO_Pin_15, Bit_RESET);
 5c8:	4601                	li	a2,0
 5ca:	65a1                	lui	a1,0x8
 5cc:	40011537          	lui	a0,0x40011
 5d0:	28c5                	jal	6c0 <GPIO_WriteBit>
    while(1)
 5d2:	b7f5                	j	5be <main+0x84>

000005d4 <GPIO_Init>:
 *        contains the configuration information for the specified GPIO peripheral.
 *
 * @return  none
 */
void GPIO_Init(GPIO_TypeDef *GPIOx, GPIO_InitTypeDef *GPIO_InitStruct)
{
 5d4:	1141                	addi	sp,sp,-16
 5d6:	c422                	sw	s0,8(sp)
 5d8:	c606                	sw	ra,12(sp)
 5da:	0800                	addi	s0,sp,16
    uint32_t currentmode = 0x00, currentpin = 0x00, pinpos = 0x00, pos = 0x00;
    uint32_t tmpreg = 0x00, pinmask = 0x00;

    currentmode = ((uint32_t)GPIO_InitStruct->GPIO_Mode) & ((uint32_t)0x0F);
 5dc:	459c                	lw	a5,8(a1)

    if((((uint32_t)GPIO_InitStruct->GPIO_Mode) & ((uint32_t)0x10)) != 0x00)
 5de:	0107f713          	andi	a4,a5,16
    currentmode = ((uint32_t)GPIO_InitStruct->GPIO_Mode) & ((uint32_t)0x0F);
 5e2:	00f7f813          	andi	a6,a5,15
    if((((uint32_t)GPIO_InitStruct->GPIO_Mode) & ((uint32_t)0x10)) != 0x00)
 5e6:	c701                	beqz	a4,5ee <GPIO_Init+0x1a>
    {
        currentmode |= (uint32_t)GPIO_InitStruct->GPIO_Speed;
 5e8:	41d8                	lw	a4,4(a1)
 5ea:	00e86833          	or	a6,a6,a4
    }

    if(((uint32_t)GPIO_InitStruct->GPIO_Pin & ((uint32_t)0x00FF)) != 0x00)
 5ee:	0005d583          	lhu	a1,0(a1) # 8000 <_data_lma+0x75b8>
 5f2:	0ff5f713          	zext.b	a4,a1
 5f6:	c339                	beqz	a4,63c <GPIO_Init+0x68>
    {
        tmpreg = GPIOx->CFGLR;
 5f8:	4118                	lw	a4,0(a0)

        for(pinpos = 0x00; pinpos < 0x08; pinpos++)
 5fa:	4681                	li	a3,0
        {
            pos = ((uint32_t)0x01) << pinpos;
 5fc:	4e85                	li	t4,1
            currentpin = (GPIO_InitStruct->GPIO_Pin) & pos;

            if(currentpin == pos)
            {
                pos = pinpos << 2;
                pinmask = ((uint32_t)0x0F) << pos;
 5fe:	4f3d                	li	t5,15
                tmpreg &= ~pinmask;
                tmpreg |= (currentmode << pos);

                if(GPIO_InitStruct->GPIO_Mode == GPIO_Mode_IPD)
 600:	02800f93          	li	t6,40
                {
                    GPIOx->BCR = (((uint32_t)0x01) << pinpos);
                }
                else
                {
                    if(GPIO_InitStruct->GPIO_Mode == GPIO_Mode_IPU)
 604:	04800293          	li	t0,72
        for(pinpos = 0x00; pinpos < 0x08; pinpos++)
 608:	4e21                	li	t3,8
            pos = ((uint32_t)0x01) << pinpos;
 60a:	00de9633          	sll	a2,t4,a3
            currentpin = (GPIO_InitStruct->GPIO_Pin) & pos;
 60e:	00c5f8b3          	and	a7,a1,a2
            if(currentpin == pos)
 612:	03161163          	bne	a2,a7,634 <GPIO_Init+0x60>
                pos = pinpos << 2;
 616:	00269893          	slli	a7,a3,0x2
                pinmask = ((uint32_t)0x0F) << pos;
 61a:	011f1333          	sll	t1,t5,a7
                tmpreg &= ~pinmask;
 61e:	fff34313          	not	t1,t1
 622:	00e37733          	and	a4,t1,a4
                tmpreg |= (currentmode << pos);
 626:	011818b3          	sll	a7,a6,a7
 62a:	00e8e733          	or	a4,a7,a4
                if(GPIO_InitStruct->GPIO_Mode == GPIO_Mode_IPD)
 62e:	09f79163          	bne	a5,t6,6b0 <GPIO_Init+0xdc>
                    GPIOx->BCR = (((uint32_t)0x01) << pinpos);
 632:	c950                	sw	a2,20(a0)
        for(pinpos = 0x00; pinpos < 0x08; pinpos++)
 634:	0685                	addi	a3,a3,1 # 40021001 <_eusrstack+0x20019001>
 636:	fdc69ae3          	bne	a3,t3,60a <GPIO_Init+0x36>
                        GPIOx->BSHR = (((uint32_t)0x01) << pinpos);
                    }
                }
            }
        }
        GPIOx->CFGLR = tmpreg;
 63a:	c118                	sw	a4,0(a0)
    }

    if(GPIO_InitStruct->GPIO_Pin > 0x00FF)
 63c:	0ff00713          	li	a4,255
 640:	04b77663          	bgeu	a4,a1,68c <GPIO_Init+0xb8>
    {
        tmpreg = GPIOx->CFGHR;
 644:	4154                	lw	a3,4(a0)

        for(pinpos = 0x00; pinpos < 0x08; pinpos++)
 646:	4601                	li	a2,0
        {
            pos = (((uint32_t)0x01) << (pinpos + 0x08));
 648:	4e85                	li	t4,1
            currentpin = ((GPIO_InitStruct->GPIO_Pin) & pos);

            if(currentpin == pos)
            {
                pos = pinpos << 2;
                pinmask = ((uint32_t)0x0F) << pos;
 64a:	4f3d                	li	t5,15
                tmpreg &= ~pinmask;
                tmpreg |= (currentmode << pos);

                if(GPIO_InitStruct->GPIO_Mode == GPIO_Mode_IPD)
 64c:	02800f93          	li	t6,40
                {
                    GPIOx->BCR = (((uint32_t)0x01) << (pinpos + 0x08));
                }

                if(GPIO_InitStruct->GPIO_Mode == GPIO_Mode_IPU)
 650:	04800293          	li	t0,72
        for(pinpos = 0x00; pinpos < 0x08; pinpos++)
 654:	4e21                	li	t3,8
            pos = (((uint32_t)0x01) << (pinpos + 0x08));
 656:	00860713          	addi	a4,a2,8
 65a:	00ee9733          	sll	a4,t4,a4
            currentpin = ((GPIO_InitStruct->GPIO_Pin) & pos);
 65e:	00e5f8b3          	and	a7,a1,a4
            if(currentpin == pos)
 662:	03171163          	bne	a4,a7,684 <GPIO_Init+0xb0>
                pos = pinpos << 2;
 666:	00261893          	slli	a7,a2,0x2
                pinmask = ((uint32_t)0x0F) << pos;
 66a:	011f1333          	sll	t1,t5,a7
                tmpreg &= ~pinmask;
 66e:	fff34313          	not	t1,t1
 672:	00d376b3          	and	a3,t1,a3
                tmpreg |= (currentmode << pos);
 676:	011818b3          	sll	a7,a6,a7
 67a:	00d8e6b3          	or	a3,a7,a3
                if(GPIO_InitStruct->GPIO_Mode == GPIO_Mode_IPD)
 67e:	03f79d63          	bne	a5,t6,6b8 <GPIO_Init+0xe4>
                    GPIOx->BCR = (((uint32_t)0x01) << (pinpos + 0x08));
 682:	c958                	sw	a4,20(a0)
        for(pinpos = 0x00; pinpos < 0x08; pinpos++)
 684:	0605                	addi	a2,a2,1
 686:	fdc618e3          	bne	a2,t3,656 <GPIO_Init+0x82>
                {
                    GPIOx->BSHR = (((uint32_t)0x01) << (pinpos + 0x08));
                }
            }
        }
        GPIOx->CFGHR = tmpreg;
 68a:	c154                	sw	a3,4(a0)
    }
}
 68c:	40b2                	lw	ra,12(sp)
 68e:	4422                	lw	s0,8(sp)
 690:	0141                	addi	sp,sp,16
 692:	4281                	li	t0,0
 694:	4301                	li	t1,0
 696:	4501                	li	a0,0
 698:	4581                	li	a1,0
 69a:	4601                	li	a2,0
 69c:	4681                	li	a3,0
 69e:	4701                	li	a4,0
 6a0:	4781                	li	a5,0
 6a2:	4801                	li	a6,0
 6a4:	4881                	li	a7,0
 6a6:	4e01                	li	t3,0
 6a8:	4e81                	li	t4,0
 6aa:	4f01                	li	t5,0
 6ac:	4f81                	li	t6,0
 6ae:	8082                	ret
                    if(GPIO_InitStruct->GPIO_Mode == GPIO_Mode_IPU)
 6b0:	f85792e3          	bne	a5,t0,634 <GPIO_Init+0x60>
                        GPIOx->BSHR = (((uint32_t)0x01) << pinpos);
 6b4:	c910                	sw	a2,16(a0)
 6b6:	bfbd                	j	634 <GPIO_Init+0x60>
                if(GPIO_InitStruct->GPIO_Mode == GPIO_Mode_IPU)
 6b8:	fc5796e3          	bne	a5,t0,684 <GPIO_Init+0xb0>
                    GPIOx->BSHR = (((uint32_t)0x01) << (pinpos + 0x08));
 6bc:	c918                	sw	a4,16(a0)
 6be:	b7d9                	j	684 <GPIO_Init+0xb0>

000006c0 <GPIO_WriteBit>:
 *            Bit_SetH - to set the port pin.
 *
 * @return  none
 */
void GPIO_WriteBit(GPIO_TypeDef *GPIOx, uint16_t GPIO_Pin, BitAction BitVal)
{
 6c0:	1141                	addi	sp,sp,-16
 6c2:	c422                	sw	s0,8(sp)
 6c4:	c606                	sw	ra,12(sp)
 6c6:	0800                	addi	s0,sp,16
    if(BitVal != Bit_RESET)
 6c8:	ca09                	beqz	a2,6da <GPIO_WriteBit+0x1a>
    {
        GPIOx->BSHR = GPIO_Pin;
 6ca:	c90c                	sw	a1,16(a0)
    }
    else
    {
        GPIOx->BCR = GPIO_Pin;
    }
}
 6cc:	40b2                	lw	ra,12(sp)
 6ce:	4422                	lw	s0,8(sp)
 6d0:	0141                	addi	sp,sp,16
 6d2:	4501                	li	a0,0
 6d4:	4581                	li	a1,0
 6d6:	4601                	li	a2,0
 6d8:	8082                	ret
        GPIOx->BCR = GPIO_Pin;
 6da:	c94c                	sw	a1,20(a0)
}
 6dc:	bfc5                	j	6cc <GPIO_WriteBit+0xc>

000006de <NMI_Handler>:
 * @brief   This function handles NMI exception.
 *
 * @return  none
 */
void NMI_Handler(void)
{
 6de:	1141                	addi	sp,sp,-16
 6e0:	c422                	sw	s0,8(sp)
 6e2:	c606                	sw	ra,12(sp)
 6e4:	0800                	addi	s0,sp,16
}
 6e6:	40b2                	lw	ra,12(sp)
 6e8:	4422                	lw	s0,8(sp)
 6ea:	0141                	addi	sp,sp,16
 6ec:	8082                	ret

000006ee <HardFault_Handler>:
 * @brief   This function handles Hard Fault exception.
 *
 * @return  none
 */
void HardFault_Handler(void)
{
 6ee:	1141                	addi	sp,sp,-16
 6f0:	c422                	sw	s0,8(sp)
 6f2:	c606                	sw	ra,12(sp)
 6f4:	0800                	addi	s0,sp,16
  while (1)
 6f6:	a001                	j	6f6 <HardFault_Handler+0x8>

000006f8 <NVIC_PriorityGroupConfig>:
 *                                   0 bits for subpriority
 *
 * @return  none
 */
void NVIC_PriorityGroupConfig(uint32_t NVIC_PriorityGroup)
{
 6f8:	1141                	addi	sp,sp,-16
 6fa:	c422                	sw	s0,8(sp)
 6fc:	c606                	sw	ra,12(sp)
 6fe:	0800                	addi	s0,sp,16
    NVIC_Priority_Group = NVIC_PriorityGroup;
}
 700:	40b2                	lw	ra,12(sp)
 702:	4422                	lw	s0,8(sp)
    NVIC_Priority_Group = NVIC_PriorityGroup;
 704:	80a1a423          	sw	a0,-2040(gp) # 20000008 <NVIC_Priority_Group>
}
 708:	0141                	addi	sp,sp,16
 70a:	4501                	li	a0,0
 70c:	4781                	li	a5,0
 70e:	8082                	ret

00000710 <RCC_APB2PeriphClockCmd>:
 *          NewState - ENABLE or DISABLE
 *
 * @return  none
 */
void RCC_APB2PeriphClockCmd(uint32_t RCC_APB2Periph, FunctionalState NewState)
{
 710:	1141                	addi	sp,sp,-16
 712:	c422                	sw	s0,8(sp)
 714:	c606                	sw	ra,12(sp)
 716:	0800                	addi	s0,sp,16
 718:	400217b7          	lui	a5,0x40021
    if(NewState != DISABLE)
    {
        RCC->APB2PCENR |= RCC_APB2Periph;
 71c:	4f98                	lw	a4,24(a5)
    if(NewState != DISABLE)
 71e:	c999                	beqz	a1,734 <RCC_APB2PeriphClockCmd+0x24>
        RCC->APB2PCENR |= RCC_APB2Periph;
 720:	8f49                	or	a4,a4,a0
 722:	cf98                	sw	a4,24(a5)
    }
    else
    {
        RCC->APB2PCENR &= ~RCC_APB2Periph;
    }
}
 724:	40b2                	lw	ra,12(sp)
 726:	4422                	lw	s0,8(sp)
 728:	0141                	addi	sp,sp,16
 72a:	4501                	li	a0,0
 72c:	4581                	li	a1,0
 72e:	4701                	li	a4,0
 730:	4781                	li	a5,0
 732:	8082                	ret
        RCC->APB2PCENR &= ~RCC_APB2Periph;
 734:	fff54513          	not	a0,a0
 738:	8d79                	and	a0,a0,a4
 73a:	cf88                	sw	a0,24(a5)
}
 73c:	b7e5                	j	724 <RCC_APB2PeriphClockCmd+0x14>

0000073e <SystemInit>:
 *        the PLL and update the SystemCoreClock variable.
 *
 * @return  none
 */
void SystemInit (void)
{
 73e:	1101                	addi	sp,sp,-32
  RCC->CTLR |= (uint32_t)0x00000001;
 740:	400217b7          	lui	a5,0x40021
{
 744:	cc22                	sw	s0,24(sp)
 746:	ce06                	sw	ra,28(sp)
 748:	1000                	addi	s0,sp,32
  RCC->CTLR |= (uint32_t)0x00000001;
 74a:	4398                	lw	a4,0(a5)

#ifdef CH32V30x_D8C
  RCC->CFGR0 &= (uint32_t)0xF8FF0000;
 74c:	f8ff06b7          	lui	a3,0xf8ff0
  RCC->CTLR |= ((uint32_t)RCC_HSEON);

  /* Wait till HSE is ready and if Time out is reached exit */
  do
  {
    HSEStatus = RCC->CTLR & RCC_HSERDY;
 750:	00020637          	lui	a2,0x20
  RCC->CTLR |= (uint32_t)0x00000001;
 754:	00176713          	ori	a4,a4,1
 758:	c398                	sw	a4,0(a5)
  RCC->CFGR0 &= (uint32_t)0xF8FF0000;
 75a:	43d8                	lw	a4,4(a5)
 75c:	8f75                	and	a4,a4,a3
 75e:	c3d8                	sw	a4,4(a5)
  RCC->CTLR &= (uint32_t)0xFEF6FFFF;
 760:	4398                	lw	a4,0(a5)
 762:	fef706b7          	lui	a3,0xfef70
 766:	16fd                	addi	a3,a3,-1 # fef6ffff <_eusrstack+0xdef67fff>
 768:	8f75                	and	a4,a4,a3
 76a:	c398                	sw	a4,0(a5)
  RCC->CTLR &= (uint32_t)0xFFFBFFFF;
 76c:	4398                	lw	a4,0(a5)
 76e:	fffc06b7          	lui	a3,0xfffc0
 772:	16fd                	addi	a3,a3,-1 # fffbffff <_eusrstack+0xdffb7fff>
 774:	8f75                	and	a4,a4,a3
 776:	c398                	sw	a4,0(a5)
  RCC->CFGR0 &= (uint32_t)0xFF80FFFF;
 778:	43d8                	lw	a4,4(a5)
 77a:	ff8106b7          	lui	a3,0xff810
 77e:	16fd                	addi	a3,a3,-1 # ff80ffff <_eusrstack+0xdf807fff>
 780:	8f75                	and	a4,a4,a3
 782:	c3d8                	sw	a4,4(a5)
  RCC->CTLR &= (uint32_t)0xEBFFFFFF;
 784:	4398                	lw	a4,0(a5)
 786:	ec0006b7          	lui	a3,0xec000
 78a:	16fd                	addi	a3,a3,-1 # ebffffff <_eusrstack+0xcbff7fff>
 78c:	8f75                	and	a4,a4,a3
 78e:	c398                	sw	a4,0(a5)
  RCC->INTR = 0x00FF0000;
 790:	00ff0737          	lui	a4,0xff0
 794:	c798                	sw	a4,8(a5)
  RCC->CFGR2 = 0x00000000;
 796:	0207a623          	sw	zero,44(a5) # 4002102c <_eusrstack+0x2001902c>
  __IO uint32_t StartUpCounter = 0, HSEStatus = 0;
 79a:	fe042423          	sw	zero,-24(s0)
 79e:	fe042623          	sw	zero,-20(s0)
  RCC->CTLR |= ((uint32_t)RCC_HSEON);
 7a2:	4398                	lw	a4,0(a5)
 7a4:	66c1                	lui	a3,0x10
 7a6:	8f55                	or	a4,a4,a3
 7a8:	c398                	sw	a4,0(a5)
    StartUpCounter++;
  } while((HSEStatus == 0) && (StartUpCounter != HSE_STARTUP_TIMEOUT));
 7aa:	6685                	lui	a3,0x1
    HSEStatus = RCC->CTLR & RCC_HSERDY;
 7ac:	4398                	lw	a4,0(a5)
 7ae:	8f71                	and	a4,a4,a2
 7b0:	fee42623          	sw	a4,-20(s0)
    StartUpCounter++;
 7b4:	fe842703          	lw	a4,-24(s0)
 7b8:	0705                	addi	a4,a4,1 # ff0001 <_data_lma+0xfef5b9>
 7ba:	fee42423          	sw	a4,-24(s0)
  } while((HSEStatus == 0) && (StartUpCounter != HSE_STARTUP_TIMEOUT));
 7be:	fec42703          	lw	a4,-20(s0)
 7c2:	e709                	bnez	a4,7cc <SystemInit+0x8e>
 7c4:	fe842703          	lw	a4,-24(s0)
 7c8:	fed712e3          	bne	a4,a3,7ac <SystemInit+0x6e>

  if ((RCC->CTLR & RCC_HSERDY) != RESET)
 7cc:	4398                	lw	a4,0(a5)
 7ce:	4785                	li	a5,1
 7d0:	00e71693          	slli	a3,a4,0xe
 7d4:	0606dd63          	bgez	a3,84e <__stack_size+0x4e>
  {
    HSEStatus = (uint32_t)0x01;
 7d8:	fef42623          	sw	a5,-20(s0)
  else
  {
    HSEStatus = (uint32_t)0x00;
  }

  if (HSEStatus == (uint32_t)0x01)
 7dc:	fec42703          	lw	a4,-20(s0)
 7e0:	04f71f63          	bne	a4,a5,83e <__stack_size+0x3e>
  {
    /* HCLK = SYSCLK */
    RCC->CFGR0 |= (uint32_t)RCC_HPRE_DIV1;
 7e4:	400217b7          	lui	a5,0x40021
 7e8:	43d8                	lw	a4,4(a5)
    RCC->CFGR0 |= (uint32_t)RCC_PPRE2_DIV1;
    /* PCLK1 = HCLK */
    RCC->CFGR0 |= (uint32_t)RCC_PPRE1_DIV2;

    /*  PLL configuration: PLLCLK = HSE * 12 = 96 MHz */
    RCC->CFGR0 &= (uint32_t)((uint32_t)~(RCC_PLLSRC | RCC_PLLXTPRE |
 7ea:	ffc106b7          	lui	a3,0xffc10
 7ee:	16fd                	addi	a3,a3,-1 # ffc0ffff <_eusrstack+0xdfc07fff>
    RCC->CFGR0 |= (uint32_t)RCC_HPRE_DIV1;
 7f0:	c3d8                	sw	a4,4(a5)
    RCC->CFGR0 |= (uint32_t)RCC_PPRE2_DIV1;
 7f2:	43d8                	lw	a4,4(a5)
 7f4:	c3d8                	sw	a4,4(a5)
    RCC->CFGR0 |= (uint32_t)RCC_PPRE1_DIV2;
 7f6:	43d8                	lw	a4,4(a5)
 7f8:	40076713          	ori	a4,a4,1024
 7fc:	c3d8                	sw	a4,4(a5)
    RCC->CFGR0 &= (uint32_t)((uint32_t)~(RCC_PLLSRC | RCC_PLLXTPRE |
 7fe:	43d8                	lw	a4,4(a5)
 800:	8f75                	and	a4,a4,a3
 802:	c3d8                	sw	a4,4(a5)
                                        RCC_PLLMULL));

#ifdef CH32V30x_D8
        RCC->CFGR0 |= (uint32_t)(RCC_PLLSRC_HSE | RCC_PLLXTPRE_HSE | RCC_PLLMULL12);
#else
        RCC->CFGR0 |= (uint32_t)(RCC_PLLSRC_HSE | RCC_PLLXTPRE_HSE | RCC_PLLMULL12_EXTEN);
 804:	43d8                	lw	a4,4(a5)
 806:	002906b7          	lui	a3,0x290
 80a:	8f55                	or	a4,a4,a3
 80c:	c3d8                	sw	a4,4(a5)
#endif

    /* Enable PLL */
    RCC->CTLR |= RCC_PLLON;
 80e:	4398                	lw	a4,0(a5)
 810:	010006b7          	lui	a3,0x1000
 814:	8f55                	or	a4,a4,a3
 816:	c398                	sw	a4,0(a5)
    /* Wait till PLL is ready */
    while((RCC->CTLR & RCC_PLLRDY) == 0)
 818:	4398                	lw	a4,0(a5)
 81a:	00671693          	slli	a3,a4,0x6
 81e:	fe06dde3          	bgez	a3,818 <__stack_size+0x18>
    {
    }
    /* Select PLL as system clock source */
    RCC->CFGR0 &= (uint32_t)((uint32_t)~(RCC_SW));
 822:	43d8                	lw	a4,4(a5)
    RCC->CFGR0 |= (uint32_t)RCC_SW_PLL;
    /* Wait till PLL is used as system clock source */
    while ((RCC->CFGR0 & (uint32_t)RCC_SWS) != (uint32_t)0x08)
 824:	400216b7          	lui	a3,0x40021
    RCC->CFGR0 &= (uint32_t)((uint32_t)~(RCC_SW));
 828:	9b71                	andi	a4,a4,-4
 82a:	c3d8                	sw	a4,4(a5)
    RCC->CFGR0 |= (uint32_t)RCC_SW_PLL;
 82c:	43d8                	lw	a4,4(a5)
 82e:	00276713          	ori	a4,a4,2
 832:	c3d8                	sw	a4,4(a5)
    while ((RCC->CFGR0 & (uint32_t)RCC_SWS) != (uint32_t)0x08)
 834:	4721                	li	a4,8
 836:	42dc                	lw	a5,4(a3)
 838:	8bb1                	andi	a5,a5,12
 83a:	fee79ee3          	bne	a5,a4,836 <__stack_size+0x36>
}
 83e:	40f2                	lw	ra,28(sp)
 840:	4462                	lw	s0,24(sp)
 842:	6105                	addi	sp,sp,32
 844:	4601                	li	a2,0
 846:	4681                	li	a3,0
 848:	4701                	li	a4,0
 84a:	4781                	li	a5,0
 84c:	8082                	ret
    HSEStatus = (uint32_t)0x00;
 84e:	fe042623          	sw	zero,-20(s0)
 852:	b769                	j	7dc <SystemInit+0x9e>

00000854 <Delay_Init>:
 * @brief   Initializes Delay Funcation.
 *
 * @return  none
 */
void Delay_Init(void)
{
 854:	1141                	addi	sp,sp,-16
 856:	c422                	sw	s0,8(sp)
 858:	c606                	sw	ra,12(sp)
 85a:	0800                	addi	s0,sp,16
    p_us = SystemCoreClock / 8000000;
 85c:	1ffff797          	auipc	a5,0x1ffff
 860:	7a47a783          	lw	a5,1956(a5) # 20000000 <SystemCoreClock>
 864:	007a1737          	lui	a4,0x7a1
 868:	20070713          	addi	a4,a4,512 # 7a1200 <_data_lma+0x7a07b8>
 86c:	02e7d7b3          	divu	a5,a5,a4
    p_ms = (uint16_t)p_us * 1000;
}
 870:	40b2                	lw	ra,12(sp)
 872:	4422                	lw	s0,8(sp)
    p_us = SystemCoreClock / 8000000;
 874:	0ff7f793          	zext.b	a5,a5
 878:	80f18723          	sb	a5,-2034(gp) # 2000000e <p_us>
    p_ms = (uint16_t)p_us * 1000;
 87c:	3e800713          	li	a4,1000
 880:	02e787b3          	mul	a5,a5,a4
 884:	80f19623          	sh	a5,-2036(gp) # 2000000c <p_ms>
}
 888:	0141                	addi	sp,sp,16
 88a:	4701                	li	a4,0
 88c:	4781                	li	a5,0
 88e:	8082                	ret

00000890 <_fini>:

    curbrk += incr;
    return curbrk - incr;
}

void _fini(){}
 890:	1141                	addi	sp,sp,-16
 892:	c422                	sw	s0,8(sp)
 894:	c606                	sw	ra,12(sp)
 896:	0800                	addi	s0,sp,16
 898:	40b2                	lw	ra,12(sp)
 89a:	4422                	lw	s0,8(sp)
 89c:	0141                	addi	sp,sp,16
 89e:	8082                	ret

000008a0 <_init>:
void _init(){}
 8a0:	1141                	addi	sp,sp,-16
 8a2:	c422                	sw	s0,8(sp)
 8a4:	c606                	sw	ra,12(sp)
 8a6:	0800                	addi	s0,sp,16
 8a8:	40b2                	lw	ra,12(sp)
 8aa:	4422                	lw	s0,8(sp)
 8ac:	0141                	addi	sp,sp,16
 8ae:	8082                	ret
    .weak   DMA2_Channel8_IRQHandler   /* DMA2 Channel 8 */
    .weak   DMA2_Channel9_IRQHandler   /* DMA2 Channel 9 */
    .weak   DMA2_Channel10_IRQHandler  /* DMA2 Channel 10 */
    .weak   DMA2_Channel11_IRQHandler  /* DMA2 Channel 11 */

NMI_Handler:  1:  j 1b
 8b0:	a001                	j	8b0 <_init+0x10>
HardFault_Handler:  1:  j 1b
 8b2:	a001                	j	8b2 <_init+0x12>

000008b4 <Ecall_M_Mode_Handler>:
Ecall_M_Mode_Handler:  1:  j 1b
 8b4:	a001                	j	8b4 <Ecall_M_Mode_Handler>

000008b6 <Ecall_U_Mode_Handler>:
Ecall_U_Mode_Handler:  1:  j 1b
 8b6:	a001                	j	8b6 <Ecall_U_Mode_Handler>

000008b8 <Break_Point_Handler>:
Break_Point_Handler:  1:  j 1b
 8b8:	a001                	j	8b8 <Break_Point_Handler>

000008ba <SysTick_Handler>:
SysTick_Handler:  1:  j 1b
 8ba:	a001                	j	8ba <SysTick_Handler>

000008bc <SW_Handler>:
SW_Handler:  1:  j 1b
 8bc:	a001                	j	8bc <SW_Handler>

000008be <WWDG_IRQHandler>:
WWDG_IRQHandler:  1:  j 1b
 8be:	a001                	j	8be <WWDG_IRQHandler>

000008c0 <PVD_IRQHandler>:
PVD_IRQHandler:  1:  j 1b
 8c0:	a001                	j	8c0 <PVD_IRQHandler>

000008c2 <TAMPER_IRQHandler>:
TAMPER_IRQHandler:  1:  j 1b
 8c2:	a001                	j	8c2 <TAMPER_IRQHandler>

000008c4 <RTC_IRQHandler>:
RTC_IRQHandler:  1:  j 1b
 8c4:	a001                	j	8c4 <RTC_IRQHandler>

000008c6 <FLASH_IRQHandler>:
FLASH_IRQHandler:  1:  j 1b
 8c6:	a001                	j	8c6 <FLASH_IRQHandler>

000008c8 <RCC_IRQHandler>:
RCC_IRQHandler:  1:  j 1b
 8c8:	a001                	j	8c8 <RCC_IRQHandler>

000008ca <EXTI0_IRQHandler>:
EXTI0_IRQHandler:  1:  j 1b
 8ca:	a001                	j	8ca <EXTI0_IRQHandler>

000008cc <EXTI1_IRQHandler>:
EXTI1_IRQHandler:  1:  j 1b
 8cc:	a001                	j	8cc <EXTI1_IRQHandler>

000008ce <EXTI2_IRQHandler>:
EXTI2_IRQHandler:  1:  j 1b
 8ce:	a001                	j	8ce <EXTI2_IRQHandler>

000008d0 <EXTI3_IRQHandler>:
EXTI3_IRQHandler:  1:  j 1b
 8d0:	a001                	j	8d0 <EXTI3_IRQHandler>

000008d2 <EXTI4_IRQHandler>:
EXTI4_IRQHandler:  1:  j 1b
 8d2:	a001                	j	8d2 <EXTI4_IRQHandler>

000008d4 <DMA1_Channel1_IRQHandler>:
DMA1_Channel1_IRQHandler:  1:  j 1b
 8d4:	a001                	j	8d4 <DMA1_Channel1_IRQHandler>

000008d6 <DMA1_Channel2_IRQHandler>:
DMA1_Channel2_IRQHandler:  1:  j 1b
 8d6:	a001                	j	8d6 <DMA1_Channel2_IRQHandler>

000008d8 <DMA1_Channel3_IRQHandler>:
DMA1_Channel3_IRQHandler:  1:  j 1b
 8d8:	a001                	j	8d8 <DMA1_Channel3_IRQHandler>

000008da <DMA1_Channel4_IRQHandler>:
DMA1_Channel4_IRQHandler:  1:  j 1b
 8da:	a001                	j	8da <DMA1_Channel4_IRQHandler>

000008dc <DMA1_Channel5_IRQHandler>:
DMA1_Channel5_IRQHandler:  1:  j 1b
 8dc:	a001                	j	8dc <DMA1_Channel5_IRQHandler>

000008de <DMA1_Channel6_IRQHandler>:
DMA1_Channel6_IRQHandler:  1:  j 1b
 8de:	a001                	j	8de <DMA1_Channel6_IRQHandler>

000008e0 <DMA1_Channel7_IRQHandler>:
DMA1_Channel7_IRQHandler:  1:  j 1b
 8e0:	a001                	j	8e0 <DMA1_Channel7_IRQHandler>

000008e2 <ADC1_2_IRQHandler>:
ADC1_2_IRQHandler:  1:  j 1b
 8e2:	a001                	j	8e2 <ADC1_2_IRQHandler>

000008e4 <USB_HP_CAN1_TX_IRQHandler>:
USB_HP_CAN1_TX_IRQHandler:  1:  j 1b
 8e4:	a001                	j	8e4 <USB_HP_CAN1_TX_IRQHandler>

000008e6 <USB_LP_CAN1_RX0_IRQHandler>:
USB_LP_CAN1_RX0_IRQHandler:  1:  j 1b
 8e6:	a001                	j	8e6 <USB_LP_CAN1_RX0_IRQHandler>

000008e8 <CAN1_RX1_IRQHandler>:
CAN1_RX1_IRQHandler:  1:  j 1b
 8e8:	a001                	j	8e8 <CAN1_RX1_IRQHandler>

000008ea <CAN1_SCE_IRQHandler>:
CAN1_SCE_IRQHandler:  1:  j 1b
 8ea:	a001                	j	8ea <CAN1_SCE_IRQHandler>

000008ec <EXTI9_5_IRQHandler>:
EXTI9_5_IRQHandler:  1:  j 1b
 8ec:	a001                	j	8ec <EXTI9_5_IRQHandler>

000008ee <TIM1_BRK_IRQHandler>:
TIM1_BRK_IRQHandler:  1:  j 1b
 8ee:	a001                	j	8ee <TIM1_BRK_IRQHandler>

000008f0 <TIM1_UP_IRQHandler>:
TIM1_UP_IRQHandler:  1:  j 1b
 8f0:	a001                	j	8f0 <TIM1_UP_IRQHandler>

000008f2 <TIM1_TRG_COM_IRQHandler>:
TIM1_TRG_COM_IRQHandler:  1:  j 1b
 8f2:	a001                	j	8f2 <TIM1_TRG_COM_IRQHandler>

000008f4 <TIM1_CC_IRQHandler>:
TIM1_CC_IRQHandler:  1:  j 1b
 8f4:	a001                	j	8f4 <TIM1_CC_IRQHandler>

000008f6 <TIM2_IRQHandler>:
TIM2_IRQHandler:  1:  j 1b
 8f6:	a001                	j	8f6 <TIM2_IRQHandler>

000008f8 <TIM3_IRQHandler>:
TIM3_IRQHandler:  1:  j 1b
 8f8:	a001                	j	8f8 <TIM3_IRQHandler>

000008fa <TIM4_IRQHandler>:
TIM4_IRQHandler:  1:  j 1b
 8fa:	a001                	j	8fa <TIM4_IRQHandler>

000008fc <I2C1_EV_IRQHandler>:
I2C1_EV_IRQHandler:  1:  j 1b
 8fc:	a001                	j	8fc <I2C1_EV_IRQHandler>

000008fe <I2C1_ER_IRQHandler>:
I2C1_ER_IRQHandler:  1:  j 1b
 8fe:	a001                	j	8fe <I2C1_ER_IRQHandler>

00000900 <I2C2_EV_IRQHandler>:
I2C2_EV_IRQHandler:  1:  j 1b
 900:	a001                	j	900 <I2C2_EV_IRQHandler>

00000902 <I2C2_ER_IRQHandler>:
I2C2_ER_IRQHandler:  1:  j 1b
 902:	a001                	j	902 <I2C2_ER_IRQHandler>

00000904 <SPI1_IRQHandler>:
SPI1_IRQHandler:  1:  j 1b
 904:	a001                	j	904 <SPI1_IRQHandler>

00000906 <SPI2_IRQHandler>:
SPI2_IRQHandler:  1:  j 1b
 906:	a001                	j	906 <SPI2_IRQHandler>

00000908 <USART1_IRQHandler>:
USART1_IRQHandler:  1:  j 1b
 908:	a001                	j	908 <USART1_IRQHandler>

0000090a <USART2_IRQHandler>:
USART2_IRQHandler:  1:  j 1b
 90a:	a001                	j	90a <USART2_IRQHandler>

0000090c <USART3_IRQHandler>:
USART3_IRQHandler:  1:  j 1b
 90c:	a001                	j	90c <USART3_IRQHandler>

0000090e <EXTI15_10_IRQHandler>:
EXTI15_10_IRQHandler:  1:  j 1b
 90e:	a001                	j	90e <EXTI15_10_IRQHandler>

00000910 <RTCAlarm_IRQHandler>:
RTCAlarm_IRQHandler:  1:  j 1b
 910:	a001                	j	910 <RTCAlarm_IRQHandler>

00000912 <USBWakeUp_IRQHandler>:
USBWakeUp_IRQHandler:  1:  j 1b
 912:	a001                	j	912 <USBWakeUp_IRQHandler>

00000914 <TIM8_BRK_IRQHandler>:
TIM8_BRK_IRQHandler:  1:  j 1b
 914:	a001                	j	914 <TIM8_BRK_IRQHandler>

00000916 <TIM8_UP_IRQHandler>:
TIM8_UP_IRQHandler:  1:  j 1b
 916:	a001                	j	916 <TIM8_UP_IRQHandler>

00000918 <TIM8_TRG_COM_IRQHandler>:
TIM8_TRG_COM_IRQHandler:  1:  j 1b
 918:	a001                	j	918 <TIM8_TRG_COM_IRQHandler>

0000091a <TIM8_CC_IRQHandler>:
TIM8_CC_IRQHandler:  1:  j 1b
 91a:	a001                	j	91a <TIM8_CC_IRQHandler>

0000091c <RNG_IRQHandler>:
RNG_IRQHandler:  1:  j 1b
 91c:	a001                	j	91c <RNG_IRQHandler>

0000091e <FSMC_IRQHandler>:
FSMC_IRQHandler:  1:  j 1b
 91e:	a001                	j	91e <FSMC_IRQHandler>

00000920 <SDIO_IRQHandler>:
SDIO_IRQHandler:  1:  j 1b
 920:	a001                	j	920 <SDIO_IRQHandler>

00000922 <TIM5_IRQHandler>:
TIM5_IRQHandler:  1:  j 1b
 922:	a001                	j	922 <TIM5_IRQHandler>

00000924 <SPI3_IRQHandler>:
SPI3_IRQHandler:  1:  j 1b
 924:	a001                	j	924 <SPI3_IRQHandler>

00000926 <UART4_IRQHandler>:
UART4_IRQHandler:  1:  j 1b
 926:	a001                	j	926 <UART4_IRQHandler>

00000928 <UART5_IRQHandler>:
UART5_IRQHandler:  1:  j 1b
 928:	a001                	j	928 <UART5_IRQHandler>

0000092a <TIM6_IRQHandler>:
TIM6_IRQHandler:  1:  j 1b
 92a:	a001                	j	92a <TIM6_IRQHandler>

0000092c <TIM7_IRQHandler>:
TIM7_IRQHandler:  1:  j 1b
 92c:	a001                	j	92c <TIM7_IRQHandler>

0000092e <DMA2_Channel1_IRQHandler>:
DMA2_Channel1_IRQHandler:  1:  j 1b
 92e:	a001                	j	92e <DMA2_Channel1_IRQHandler>

00000930 <DMA2_Channel2_IRQHandler>:
DMA2_Channel2_IRQHandler:  1:  j 1b
 930:	a001                	j	930 <DMA2_Channel2_IRQHandler>

00000932 <DMA2_Channel3_IRQHandler>:
DMA2_Channel3_IRQHandler:  1:  j 1b
 932:	a001                	j	932 <DMA2_Channel3_IRQHandler>

00000934 <DMA2_Channel4_IRQHandler>:
DMA2_Channel4_IRQHandler:  1:  j 1b
 934:	a001                	j	934 <DMA2_Channel4_IRQHandler>

00000936 <DMA2_Channel5_IRQHandler>:
DMA2_Channel5_IRQHandler:  1:  j 1b
 936:	a001                	j	936 <DMA2_Channel5_IRQHandler>

00000938 <ETH_IRQHandler>:
ETH_IRQHandler:  1:  j 1b
 938:	a001                	j	938 <ETH_IRQHandler>

0000093a <ETH_WKUP_IRQHandler>:
ETH_WKUP_IRQHandler:  1:  j 1b
 93a:	a001                	j	93a <ETH_WKUP_IRQHandler>

0000093c <CAN2_TX_IRQHandler>:
CAN2_TX_IRQHandler:  1:  j 1b
 93c:	a001                	j	93c <CAN2_TX_IRQHandler>

0000093e <CAN2_RX0_IRQHandler>:
CAN2_RX0_IRQHandler:  1:  j 1b
 93e:	a001                	j	93e <CAN2_RX0_IRQHandler>

00000940 <CAN2_RX1_IRQHandler>:
CAN2_RX1_IRQHandler:  1:  j 1b
 940:	a001                	j	940 <CAN2_RX1_IRQHandler>

00000942 <CAN2_SCE_IRQHandler>:
CAN2_SCE_IRQHandler:  1:  j 1b
 942:	a001                	j	942 <CAN2_SCE_IRQHandler>

00000944 <OTG_FS_IRQHandler>:
OTG_FS_IRQHandler:  1:  j 1b
 944:	a001                	j	944 <OTG_FS_IRQHandler>

00000946 <USBHSWakeup_IRQHandler>:
USBHSWakeup_IRQHandler:  1:  j 1b
 946:	a001                	j	946 <USBHSWakeup_IRQHandler>

00000948 <USBHS_IRQHandler>:
USBHS_IRQHandler:  1:  j 1b
 948:	a001                	j	948 <USBHS_IRQHandler>

0000094a <DVP_IRQHandler>:
DVP_IRQHandler:  1:  j 1b
 94a:	a001                	j	94a <DVP_IRQHandler>

0000094c <UART6_IRQHandler>:
UART6_IRQHandler:  1:  j 1b
 94c:	a001                	j	94c <UART6_IRQHandler>

0000094e <UART7_IRQHandler>:
UART7_IRQHandler:  1:  j 1b
 94e:	a001                	j	94e <UART7_IRQHandler>

00000950 <UART8_IRQHandler>:
UART8_IRQHandler:  1:  j 1b
 950:	a001                	j	950 <UART8_IRQHandler>

00000952 <TIM9_BRK_IRQHandler>:
TIM9_BRK_IRQHandler:  1:  j 1b
 952:	a001                	j	952 <TIM9_BRK_IRQHandler>

00000954 <TIM9_UP_IRQHandler>:
TIM9_UP_IRQHandler:  1:  j 1b
 954:	a001                	j	954 <TIM9_UP_IRQHandler>

00000956 <TIM9_TRG_COM_IRQHandler>:
TIM9_TRG_COM_IRQHandler:  1:  j 1b
 956:	a001                	j	956 <TIM9_TRG_COM_IRQHandler>

00000958 <TIM9_CC_IRQHandler>:
TIM9_CC_IRQHandler:  1:  j 1b
 958:	a001                	j	958 <TIM9_CC_IRQHandler>

0000095a <TIM10_BRK_IRQHandler>:
TIM10_BRK_IRQHandler:  1:  j 1b
 95a:	a001                	j	95a <TIM10_BRK_IRQHandler>

0000095c <TIM10_UP_IRQHandler>:
TIM10_UP_IRQHandler:  1:  j 1b
 95c:	a001                	j	95c <TIM10_UP_IRQHandler>

0000095e <TIM10_TRG_COM_IRQHandler>:
TIM10_TRG_COM_IRQHandler:  1:  j 1b
 95e:	a001                	j	95e <TIM10_TRG_COM_IRQHandler>

00000960 <TIM10_CC_IRQHandler>:
TIM10_CC_IRQHandler:  1:  j 1b
 960:	a001                	j	960 <TIM10_CC_IRQHandler>

00000962 <DMA2_Channel6_IRQHandler>:
DMA2_Channel6_IRQHandler:  1:  j 1b
 962:	a001                	j	962 <DMA2_Channel6_IRQHandler>

00000964 <DMA2_Channel7_IRQHandler>:
DMA2_Channel7_IRQHandler:  1:  j 1b
 964:	a001                	j	964 <DMA2_Channel7_IRQHandler>

00000966 <DMA2_Channel8_IRQHandler>:
DMA2_Channel8_IRQHandler:  1:  j 1b
 966:	a001                	j	966 <DMA2_Channel8_IRQHandler>

00000968 <DMA2_Channel9_IRQHandler>:
DMA2_Channel9_IRQHandler:  1:  j 1b
 968:	a001                	j	968 <DMA2_Channel9_IRQHandler>

0000096a <DMA2_Channel10_IRQHandler>:
DMA2_Channel10_IRQHandler:  1:  j 1b
 96a:	a001                	j	96a <DMA2_Channel10_IRQHandler>

0000096c <DMA2_Channel11_IRQHandler>:
DMA2_Channel11_IRQHandler:  1:  j 1b
 96c:	a001                	j	96c <DMA2_Channel11_IRQHandler>

0000096e <handle_reset>:
	.weak	handle_reset
	.align	1
handle_reset:
.option push 
.option	norelax 
	la gp, __global_pointer$
 96e:	20000197          	auipc	gp,0x20000
 972:	e9218193          	addi	gp,gp,-366 # 20000800 <__global_pointer$>
.option	pop 
1:
	la sp, _eusrstack 
 976:	20007117          	auipc	sp,0x20007
 97a:	68a10113          	addi	sp,sp,1674 # 20008000 <_eusrstack>
2:
	/* Load data section from flash to RAM */
	la a0, _data_lma
 97e:	00000517          	auipc	a0,0x0
 982:	0ca50513          	addi	a0,a0,202 # a48 <_data_lma>
	la a1, _data_vma
 986:	1ffff597          	auipc	a1,0x1ffff
 98a:	67a58593          	addi	a1,a1,1658 # 20000000 <SystemCoreClock>
	la a2, _edata
 98e:	1ffff617          	auipc	a2,0x1ffff
 992:	67a60613          	addi	a2,a2,1658 # 20000008 <NVIC_Priority_Group>
	bgeu a1, a2, 2f
 996:	00c5fa63          	bgeu	a1,a2,9aa <handle_reset+0x3c>
1:
	lw t0, (a0)
 99a:	00052283          	lw	t0,0(a0)
	sw t0, (a1)
 99e:	0055a023          	sw	t0,0(a1)
	addi a0, a0, 4
 9a2:	0511                	addi	a0,a0,4
	addi a1, a1, 4
 9a4:	0591                	addi	a1,a1,4
	bltu a1, a2, 1b
 9a6:	fec5eae3          	bltu	a1,a2,99a <handle_reset+0x2c>
2:
	/* Clear bss section */
	la a0, _sbss
 9aa:	80818513          	addi	a0,gp,-2040 # 20000008 <NVIC_Priority_Group>
	la a1, _ebss
 9ae:	20000597          	auipc	a1,0x20000
 9b2:	81658593          	addi	a1,a1,-2026 # 200001c4 <_ebss>
	bgeu a0, a1, 2f
 9b6:	00b57763          	bgeu	a0,a1,9c4 <handle_reset+0x56>
1:
	sw zero, (a0)
 9ba:	00052023          	sw	zero,0(a0)
	addi a0, a0, 4
 9be:	0511                	addi	a0,a0,4
	bltu a0, a1, 1b
 9c0:	feb56de3          	bltu	a0,a1,9ba <handle_reset+0x4c>
2:
    li t0, 0x1f
 9c4:	42fd                	li	t0,31
    csrw 0xbc0, t0
 9c6:	bc029073          	csrw	0xbc0,t0

    /* Enable nested and hardware stack */
	li t0, 0x0b
 9ca:	42ad                	li	t0,11
	csrw 0x804, t0
 9cc:	80429073          	csrw	0x804,t0

    /* Enable floating point and interrupt */
   	li t0, 0x6088           
 9d0:	6299                	lui	t0,0x6
 9d2:	08828293          	addi	t0,t0,136 # 6088 <_data_lma+0x5640>
   	csrs mstatus, t0
 9d6:	3002a073          	csrs	mstatus,t0

 	la t0, _vector_base
 9da:	fffff297          	auipc	t0,0xfffff
 9de:	65e28293          	addi	t0,t0,1630 # 38 <_einit>
    ori t0, t0, 3           
 9e2:	0032e293          	ori	t0,t0,3
	csrw mtvec, t0
 9e6:	30529073          	csrw	mtvec,t0

    la a0,__libc_fini_array
 9ea:	00000517          	auipc	a0,0x0
 9ee:	89850513          	addi	a0,a0,-1896 # 282 <__libc_fini_array>
    call atexit
 9f2:	80fff0ef          	jal	200 <atexit>
    call __libc_init_array
 9f6:	823ff0ef          	jal	218 <__libc_init_array>

    jal  SystemInit
 9fa:	d45ff0ef          	jal	73e <SystemInit>
	la t0, main
 9fe:	00000297          	auipc	t0,0x0
 a02:	b3c28293          	addi	t0,t0,-1220 # 53a <main>
	csrw mepc, t0
 a06:	34129073          	csrw	mepc,t0
	mret
 a0a:	30200073          	mret

00000a0e <register_fini>:
 a0e:	1141                	addi	sp,sp,-16
 a10:	c422                	sw	s0,8(sp)
 a12:	c606                	sw	ra,12(sp)
 a14:	0800                	addi	s0,sp,16
 a16:	00000793          	li	a5,0
 a1a:	cb81                	beqz	a5,a2a <register_fini+0x1c>
 a1c:	4422                	lw	s0,8(sp)
 a1e:	40b2                	lw	ra,12(sp)
 a20:	28200513          	li	a0,642
 a24:	0141                	addi	sp,sp,16
 a26:	fdaff06f          	j	200 <atexit>
 a2a:	40b2                	lw	ra,12(sp)
 a2c:	4422                	lw	s0,8(sp)
 a2e:	0141                	addi	sp,sp,16
 a30:	4501                	li	a0,0
 a32:	4781                	li	a5,0
 a34:	8082                	ret
 a36:	0000                	unimp
 a38:	8000                	.insn	2, 0x8000
 a3a:	0000                	unimp
 a3c:	00000003          	lb	zero,0(zero) # 0 <_sinit>
 a40:	0010                	.insn	2, 0x0010
	...
