
/home/blank/Engineering/MCU/WCH/Project/Blink30/build/ch32v30x_firmware.elf:     file format elf32-littleriscv


Disassembly of section .init:

00000000 <_sinit>:

	.section	.init,"ax",@progbits
	.global	_start
	.align	1
_start:
	j	handle_reset
   0:	6fa0006f          	j	6fa <handle_reset>
   4:	00000013          	.word	0x00000013
   8:	00000013          	.word	0x00000013
   c:	00000013          	.word	0x00000013
  10:	00000013          	.word	0x00000013
  14:	00000013          	.word	0x00000013
  18:	00000013          	.word	0x00000013
  1c:	00000013          	.word	0x00000013
  20:	00000013          	.word	0x00000013
  24:	00000013          	.word	0x00000013
  28:	00000013          	.word	0x00000013
  2c:	00000013          	.word	0x00000013
  30:	00000013          	.word	0x00000013
  34:	00100073          	.word	0x00100073

Disassembly of section .vector:

00000038 <_vector_base>:
	...
  40:	00000480          	.word	0x00000480
  44:	00000490          	.word	0x00000490
  48:	00000000          	.word	0x00000000
  4c:	00000654          	.word	0x00000654
	...
  58:	00000656          	.word	0x00000656
  5c:	00000658          	.word	0x00000658
	...
  68:	0000065a          	.word	0x0000065a
  6c:	00000000          	.word	0x00000000
  70:	0000065c          	.word	0x0000065c
  74:	00000000          	.word	0x00000000
  78:	0000065e          	.word	0x0000065e
  7c:	00000660          	.word	0x00000660
  80:	00000662          	.word	0x00000662
  84:	00000664          	.word	0x00000664
  88:	00000666          	.word	0x00000666
  8c:	00000668          	.word	0x00000668
  90:	0000066a          	.word	0x0000066a
  94:	0000066c          	.word	0x0000066c
  98:	0000066e          	.word	0x0000066e
  9c:	00000670          	.word	0x00000670
  a0:	00000672          	.word	0x00000672
  a4:	00000674          	.word	0x00000674
  a8:	00000676          	.word	0x00000676
  ac:	00000678          	.word	0x00000678
  b0:	0000067a          	.word	0x0000067a
  b4:	0000067c          	.word	0x0000067c
  b8:	0000067e          	.word	0x0000067e
  bc:	00000680          	.word	0x00000680
  c0:	00000682          	.word	0x00000682
  c4:	00000684          	.word	0x00000684
  c8:	00000686          	.word	0x00000686
  cc:	00000688          	.word	0x00000688
  d0:	0000068a          	.word	0x0000068a
  d4:	0000068c          	.word	0x0000068c
  d8:	0000068e          	.word	0x0000068e
  dc:	00000690          	.word	0x00000690
  e0:	00000692          	.word	0x00000692
  e4:	00000694          	.word	0x00000694
  e8:	00000696          	.word	0x00000696
  ec:	00000698          	.word	0x00000698
  f0:	0000069a          	.word	0x0000069a
  f4:	0000069c          	.word	0x0000069c
  f8:	0000069e          	.word	0x0000069e
  fc:	000006a0          	.word	0x000006a0
 100:	000006a2          	.word	0x000006a2
 104:	000006a4          	.word	0x000006a4
 108:	000006a6          	.word	0x000006a6
 10c:	000006a8          	.word	0x000006a8
 110:	000006aa          	.word	0x000006aa
 114:	000006ac          	.word	0x000006ac
 118:	000006ae          	.word	0x000006ae
 11c:	000006b0          	.word	0x000006b0
 120:	00000000          	.word	0x00000000
 124:	000006b2          	.word	0x000006b2
 128:	000006b4          	.word	0x000006b4
 12c:	000006b6          	.word	0x000006b6
 130:	000006b8          	.word	0x000006b8
 134:	000006ba          	.word	0x000006ba
 138:	000006bc          	.word	0x000006bc
 13c:	000006be          	.word	0x000006be
 140:	000006c0          	.word	0x000006c0
 144:	000006c2          	.word	0x000006c2
 148:	000006c4          	.word	0x000006c4
 14c:	000006c6          	.word	0x000006c6
 150:	000006c8          	.word	0x000006c8
 154:	000006ca          	.word	0x000006ca
 158:	000006cc          	.word	0x000006cc
 15c:	000006ce          	.word	0x000006ce
 160:	000006d0          	.word	0x000006d0
 164:	000006d2          	.word	0x000006d2
 168:	000006d4          	.word	0x000006d4
	...
 184:	000006d6          	.word	0x000006d6
	...
 194:	000006d8          	.word	0x000006d8
 198:	000006da          	.word	0x000006da
 19c:	000006dc          	.word	0x000006dc
 1a0:	000006de          	.word	0x000006de
 1a4:	000006e0          	.word	0x000006e0
 1a8:	000006e2          	.word	0x000006e2
 1ac:	000006e4          	.word	0x000006e4
 1b0:	000006e6          	.word	0x000006e6
 1b4:	000006e8          	.word	0x000006e8
 1b8:	000006ea          	.word	0x000006ea
 1bc:	000006ec          	.word	0x000006ec
 1c0:	000006ee          	.word	0x000006ee
 1c4:	000006f0          	.word	0x000006f0
 1c8:	000006f2          	.word	0x000006f2
 1cc:	000006f4          	.word	0x000006f4
 1d0:	000006f6          	.word	0x000006f6
 1d4:	000006f8          	.word	0x000006f8
	...

Disassembly of section .text:

00000200 <memcpy>:
 200:	1141                	addi	sp,sp,-16
 202:	c422                	sw	s0,8(sp)
 204:	c606                	sw	ra,12(sp)
 206:	0800                	addi	s0,sp,16
 208:	00a5c7b3          	xor	a5,a1,a0
 20c:	8b8d                	andi	a5,a5,3
 20e:	00c508b3          	add	a7,a0,a2
 212:	e7bd                	bnez	a5,280 <memcpy+0x80>
 214:	00463613          	sltiu	a2,a2,4
 218:	e625                	bnez	a2,280 <memcpy+0x80>
 21a:	00357793          	andi	a5,a0,3
 21e:	872a                	mv	a4,a0
 220:	e3e5                	bnez	a5,300 <memcpy+0x100>
 222:	ffc8f613          	andi	a2,a7,-4
 226:	40e606b3          	sub	a3,a2,a4
 22a:	02000793          	li	a5,32
 22e:	06d7cd63          	blt	a5,a3,2a8 <memcpy+0xa8>
 232:	86ae                	mv	a3,a1
 234:	87ba                	mv	a5,a4
 236:	02c77163          	bgeu	a4,a2,258 <memcpy+0x58>
 23a:	0006a803          	lw	a6,0(a3)
 23e:	0791                	addi	a5,a5,4
 240:	0691                	addi	a3,a3,4
 242:	ff07ae23          	sw	a6,-4(a5)
 246:	fec7eae3          	bltu	a5,a2,23a <memcpy+0x3a>
 24a:	167d                	addi	a2,a2,-1
 24c:	8e19                	sub	a2,a2,a4
 24e:	9a71                	andi	a2,a2,-4
 250:	0591                	addi	a1,a1,4
 252:	0711                	addi	a4,a4,4
 254:	95b2                	add	a1,a1,a2
 256:	9732                	add	a4,a4,a2
 258:	03176763          	bltu	a4,a7,286 <memcpy+0x86>
 25c:	40b2                	lw	ra,12(sp)
 25e:	4422                	lw	s0,8(sp)
 260:	0141                	addi	sp,sp,16
 262:	4281                	li	t0,0
 264:	4301                	li	t1,0
 266:	4381                	li	t2,0
 268:	4581                	li	a1,0
 26a:	4601                	li	a2,0
 26c:	4681                	li	a3,0
 26e:	4701                	li	a4,0
 270:	4781                	li	a5,0
 272:	4801                	li	a6,0
 274:	4881                	li	a7,0
 276:	4e01                	li	t3,0
 278:	4e81                	li	t4,0
 27a:	4f01                	li	t5,0
 27c:	4f81                	li	t6,0
 27e:	8082                	ret
 280:	872a                	mv	a4,a0
 282:	fd157de3          	bgeu	a0,a7,25c <memcpy+0x5c>
 286:	0005c783          	lbu	a5,0(a1)
 28a:	0705                	addi	a4,a4,1
 28c:	0585                	addi	a1,a1,1
 28e:	fef70fa3          	sb	a5,-1(a4)
 292:	fce885e3          	beq	a7,a4,25c <memcpy+0x5c>
 296:	0005c783          	lbu	a5,0(a1)
 29a:	0705                	addi	a4,a4,1
 29c:	0585                	addi	a1,a1,1
 29e:	fef70fa3          	sb	a5,-1(a4)
 2a2:	fee892e3          	bne	a7,a4,286 <memcpy+0x86>
 2a6:	bf5d                	j	25c <memcpy+0x5c>
 2a8:	5194                	lw	a3,32(a1)
 2aa:	0005a383          	lw	t2,0(a1)
 2ae:	0045a283          	lw	t0,4(a1)
 2b2:	0085af83          	lw	t6,8(a1)
 2b6:	00c5af03          	lw	t5,12(a1)
 2ba:	0105ae83          	lw	t4,16(a1)
 2be:	0145ae03          	lw	t3,20(a1)
 2c2:	0185a303          	lw	t1,24(a1)
 2c6:	01c5a803          	lw	a6,28(a1)
 2ca:	02470713          	addi	a4,a4,36
 2ce:	fed72e23          	sw	a3,-4(a4)
 2d2:	fc772e23          	sw	t2,-36(a4)
 2d6:	40e606b3          	sub	a3,a2,a4
 2da:	fe572023          	sw	t0,-32(a4)
 2de:	fff72223          	sw	t6,-28(a4)
 2e2:	ffe72423          	sw	t5,-24(a4)
 2e6:	ffd72623          	sw	t4,-20(a4)
 2ea:	ffc72823          	sw	t3,-16(a4)
 2ee:	fe672a23          	sw	t1,-12(a4)
 2f2:	ff072c23          	sw	a6,-8(a4)
 2f6:	02458593          	addi	a1,a1,36
 2fa:	fad7c7e3          	blt	a5,a3,2a8 <memcpy+0xa8>
 2fe:	bf15                	j	232 <memcpy+0x32>
 300:	0005c683          	lbu	a3,0(a1)
 304:	0705                	addi	a4,a4,1
 306:	00377793          	andi	a5,a4,3
 30a:	fed70fa3          	sb	a3,-1(a4)
 30e:	0585                	addi	a1,a1,1
 310:	db89                	beqz	a5,222 <memcpy+0x22>
 312:	0005c683          	lbu	a3,0(a1)
 316:	0705                	addi	a4,a4,1
 318:	00377793          	andi	a5,a4,3
 31c:	fed70fa3          	sb	a3,-1(a4)
 320:	0585                	addi	a1,a1,1
 322:	fff9                	bnez	a5,300 <memcpy+0x100>
 324:	bdfd                	j	222 <memcpy+0x22>

00000326 <main>:
#include "ch32v30x.h"        // Для CH32V30x
#include "ch32v30x_gpio.h"


int main(void)
{
 326:	1101                	addi	sp,sp,-32
 328:	ce06                	sw	ra,28(sp)
 32a:	cc22                	sw	s0,24(sp)
    // Включаем тактирование порта C
    RCC_APB2PeriphClockCmd(RCC_APB2Periph_GPIOC, ENABLE);
 32c:	4585                	li	a1,1
{
 32e:	1000                	addi	s0,sp,32
    RCC_APB2PeriphClockCmd(RCC_APB2Periph_GPIOC, ENABLE);
 330:	4541                	li	a0,16
 332:	22a5                	jal	49a <RCC_APB2PeriphClockCmd>

    GPIO_InitTypeDef GPIO_InitStructure = {
 334:	78c00593          	li	a1,1932
 338:	4631                	li	a2,12
 33a:	fe440513          	addi	a0,s0,-28
 33e:	35c9                	jal	200 <memcpy>
            .GPIO_Pin = GPIO_Pin_15,
            .GPIO_Mode = GPIO_Mode_Out_PP,
            .GPIO_Speed = GPIO_Speed_2MHz,
    };
    GPIO_Init(GPIOC, &GPIO_InitStructure);
 340:	fe440593          	addi	a1,s0,-28
 344:	40011537          	lui	a0,0x40011
 348:	2005                	jal	368 <GPIO_Init>

    while(1)
    {
        GPIO_SetBits(GPIOC, GPIO_Pin_15);     // LED выкл (если анод к VCC)
 34a:	65a1                	lui	a1,0x8
 34c:	40011537          	lui	a0,0x40011
 350:	2211                	jal	454 <GPIO_SetBits>
        Delay_Ms(500);
 352:	1f400513          	li	a0,500
 356:	2461                	jal	5de <Delay_Ms>

        GPIO_ResetBits(GPIOC, GPIO_Pin_15);   // LED вкл
 358:	65a1                	lui	a1,0x8
 35a:	40011537          	lui	a0,0x40011
 35e:	2231                	jal	46a <GPIO_ResetBits>
        Delay_Ms(500);
 360:	1f400513          	li	a0,500
 364:	2cad                	jal	5de <Delay_Ms>
    while(1)
 366:	b7d5                	j	34a <main+0x24>

00000368 <GPIO_Init>:
 *        contains the configuration information for the specified GPIO peripheral.
 *
 * @return  none
 */
void GPIO_Init(GPIO_TypeDef *GPIOx, GPIO_InitTypeDef *GPIO_InitStruct)
{
 368:	1141                	addi	sp,sp,-16
 36a:	c422                	sw	s0,8(sp)
 36c:	c606                	sw	ra,12(sp)
 36e:	0800                	addi	s0,sp,16
    uint32_t currentmode = 0x00, currentpin = 0x00, pinpos = 0x00, pos = 0x00;
    uint32_t tmpreg = 0x00, pinmask = 0x00;

    currentmode = ((uint32_t)GPIO_InitStruct->GPIO_Mode) & ((uint32_t)0x0F);
 370:	459c                	lw	a5,8(a1)

    if((((uint32_t)GPIO_InitStruct->GPIO_Mode) & ((uint32_t)0x10)) != 0x00)
 372:	0107f713          	andi	a4,a5,16
    currentmode = ((uint32_t)GPIO_InitStruct->GPIO_Mode) & ((uint32_t)0x0F);
 376:	00f7f813          	andi	a6,a5,15
    if((((uint32_t)GPIO_InitStruct->GPIO_Mode) & ((uint32_t)0x10)) != 0x00)
 37a:	c701                	beqz	a4,382 <GPIO_Init+0x1a>
    {
        currentmode |= (uint32_t)GPIO_InitStruct->GPIO_Speed;
 37c:	41d8                	lw	a4,4(a1)
 37e:	00e86833          	or	a6,a6,a4
    }

    if(((uint32_t)GPIO_InitStruct->GPIO_Pin & ((uint32_t)0x00FF)) != 0x00)
 382:	0005d583          	lhu	a1,0(a1) # 8000 <__stack_size+0x7800>
 386:	0ff5f713          	zext.b	a4,a1
 38a:	c339                	beqz	a4,3d0 <GPIO_Init+0x68>
    {
        tmpreg = GPIOx->CFGLR;
 38c:	4118                	lw	a4,0(a0)

        for(pinpos = 0x00; pinpos < 0x08; pinpos++)
 38e:	4681                	li	a3,0
        {
            pos = ((uint32_t)0x01) << pinpos;
 390:	4e85                	li	t4,1
            currentpin = (GPIO_InitStruct->GPIO_Pin) & pos;

            if(currentpin == pos)
            {
                pos = pinpos << 2;
                pinmask = ((uint32_t)0x0F) << pos;
 392:	4f3d                	li	t5,15
                tmpreg &= ~pinmask;
                tmpreg |= (currentmode << pos);

                if(GPIO_InitStruct->GPIO_Mode == GPIO_Mode_IPD)
 394:	02800f93          	li	t6,40
                {
                    GPIOx->BCR = (((uint32_t)0x01) << pinpos);
                }
                else
                {
                    if(GPIO_InitStruct->GPIO_Mode == GPIO_Mode_IPU)
 398:	04800293          	li	t0,72
        for(pinpos = 0x00; pinpos < 0x08; pinpos++)
 39c:	4e21                	li	t3,8
            pos = ((uint32_t)0x01) << pinpos;
 39e:	00de9633          	sll	a2,t4,a3
            currentpin = (GPIO_InitStruct->GPIO_Pin) & pos;
 3a2:	00c5f8b3          	and	a7,a1,a2
            if(currentpin == pos)
 3a6:	03161163          	bne	a2,a7,3c8 <GPIO_Init+0x60>
                pos = pinpos << 2;
 3aa:	00269893          	slli	a7,a3,0x2
                pinmask = ((uint32_t)0x0F) << pos;
 3ae:	011f1333          	sll	t1,t5,a7
                tmpreg &= ~pinmask;
 3b2:	fff34313          	not	t1,t1
 3b6:	00e37733          	and	a4,t1,a4
                tmpreg |= (currentmode << pos);
 3ba:	011818b3          	sll	a7,a6,a7
 3be:	00e8e733          	or	a4,a7,a4
                if(GPIO_InitStruct->GPIO_Mode == GPIO_Mode_IPD)
 3c2:	09f79163          	bne	a5,t6,444 <GPIO_Init+0xdc>
                    GPIOx->BCR = (((uint32_t)0x01) << pinpos);
 3c6:	c950                	sw	a2,20(a0)
        for(pinpos = 0x00; pinpos < 0x08; pinpos++)
 3c8:	0685                	addi	a3,a3,1
 3ca:	fdc69ae3          	bne	a3,t3,39e <GPIO_Init+0x36>
                        GPIOx->BSHR = (((uint32_t)0x01) << pinpos);
                    }
                }
            }
        }
        GPIOx->CFGLR = tmpreg;
 3ce:	c118                	sw	a4,0(a0)
    }

    if(GPIO_InitStruct->GPIO_Pin > 0x00FF)
 3d0:	0ff00713          	li	a4,255
 3d4:	04b77663          	bgeu	a4,a1,420 <GPIO_Init+0xb8>
    {
        tmpreg = GPIOx->CFGHR;
 3d8:	4154                	lw	a3,4(a0)

        for(pinpos = 0x00; pinpos < 0x08; pinpos++)
 3da:	4601                	li	a2,0
        {
            pos = (((uint32_t)0x01) << (pinpos + 0x08));
 3dc:	4e85                	li	t4,1
            currentpin = ((GPIO_InitStruct->GPIO_Pin) & pos);

            if(currentpin == pos)
            {
                pos = pinpos << 2;
                pinmask = ((uint32_t)0x0F) << pos;
 3de:	4f3d                	li	t5,15
                tmpreg &= ~pinmask;
                tmpreg |= (currentmode << pos);

                if(GPIO_InitStruct->GPIO_Mode == GPIO_Mode_IPD)
 3e0:	02800f93          	li	t6,40
                {
                    GPIOx->BCR = (((uint32_t)0x01) << (pinpos + 0x08));
                }

                if(GPIO_InitStruct->GPIO_Mode == GPIO_Mode_IPU)
 3e4:	04800293          	li	t0,72
        for(pinpos = 0x00; pinpos < 0x08; pinpos++)
 3e8:	4e21                	li	t3,8
            pos = (((uint32_t)0x01) << (pinpos + 0x08));
 3ea:	00860713          	addi	a4,a2,8
 3ee:	00ee9733          	sll	a4,t4,a4
            currentpin = ((GPIO_InitStruct->GPIO_Pin) & pos);
 3f2:	00e5f8b3          	and	a7,a1,a4
            if(currentpin == pos)
 3f6:	03171163          	bne	a4,a7,418 <GPIO_Init+0xb0>
                pos = pinpos << 2;
 3fa:	00261893          	slli	a7,a2,0x2
                pinmask = ((uint32_t)0x0F) << pos;
 3fe:	011f1333          	sll	t1,t5,a7
                tmpreg &= ~pinmask;
 402:	fff34313          	not	t1,t1
 406:	00d376b3          	and	a3,t1,a3
                tmpreg |= (currentmode << pos);
 40a:	011818b3          	sll	a7,a6,a7
 40e:	00d8e6b3          	or	a3,a7,a3
                if(GPIO_InitStruct->GPIO_Mode == GPIO_Mode_IPD)
 412:	03f79d63          	bne	a5,t6,44c <GPIO_Init+0xe4>
                    GPIOx->BCR = (((uint32_t)0x01) << (pinpos + 0x08));
 416:	c958                	sw	a4,20(a0)
        for(pinpos = 0x00; pinpos < 0x08; pinpos++)
 418:	0605                	addi	a2,a2,1
 41a:	fdc618e3          	bne	a2,t3,3ea <GPIO_Init+0x82>
                {
                    GPIOx->BSHR = (((uint32_t)0x01) << (pinpos + 0x08));
                }
            }
        }
        GPIOx->CFGHR = tmpreg;
 41e:	c154                	sw	a3,4(a0)
    }
}
 420:	40b2                	lw	ra,12(sp)
 422:	4422                	lw	s0,8(sp)
 424:	0141                	addi	sp,sp,16
 426:	4281                	li	t0,0
 428:	4301                	li	t1,0
 42a:	4501                	li	a0,0
 42c:	4581                	li	a1,0
 42e:	4601                	li	a2,0
 430:	4681                	li	a3,0
 432:	4701                	li	a4,0
 434:	4781                	li	a5,0
 436:	4801                	li	a6,0
 438:	4881                	li	a7,0
 43a:	4e01                	li	t3,0
 43c:	4e81                	li	t4,0
 43e:	4f01                	li	t5,0
 440:	4f81                	li	t6,0
 442:	8082                	ret
                    if(GPIO_InitStruct->GPIO_Mode == GPIO_Mode_IPU)
 444:	f85792e3          	bne	a5,t0,3c8 <GPIO_Init+0x60>
                        GPIOx->BSHR = (((uint32_t)0x01) << pinpos);
 448:	c910                	sw	a2,16(a0)
 44a:	bfbd                	j	3c8 <GPIO_Init+0x60>
                if(GPIO_InitStruct->GPIO_Mode == GPIO_Mode_IPU)
 44c:	fc5796e3          	bne	a5,t0,418 <GPIO_Init+0xb0>
                    GPIOx->BSHR = (((uint32_t)0x01) << (pinpos + 0x08));
 450:	c918                	sw	a4,16(a0)
 452:	b7d9                	j	418 <GPIO_Init+0xb0>

00000454 <GPIO_SetBits>:
 *            This parameter can be any combination of GPIO_Pin_x where x can be (0..15).
 *
 * @return  none
 */
void GPIO_SetBits(GPIO_TypeDef *GPIOx, uint16_t GPIO_Pin)
{
 454:	1141                	addi	sp,sp,-16
 456:	c422                	sw	s0,8(sp)
 458:	c606                	sw	ra,12(sp)
 45a:	0800                	addi	s0,sp,16
    GPIOx->BSHR = GPIO_Pin;
}
 45c:	40b2                	lw	ra,12(sp)
 45e:	4422                	lw	s0,8(sp)
    GPIOx->BSHR = GPIO_Pin;
 460:	c90c                	sw	a1,16(a0)
}
 462:	0141                	addi	sp,sp,16
 464:	4501                	li	a0,0
 466:	4581                	li	a1,0
 468:	8082                	ret

0000046a <GPIO_ResetBits>:
 *            This parameter can be any combination of GPIO_Pin_x where x can be (0..15).
 *
 * @return  none
 */
void GPIO_ResetBits(GPIO_TypeDef *GPIOx, uint16_t GPIO_Pin)
{
 46a:	1141                	addi	sp,sp,-16
 46c:	c422                	sw	s0,8(sp)
 46e:	c606                	sw	ra,12(sp)
 470:	0800                	addi	s0,sp,16
    GPIOx->BCR = GPIO_Pin;
}
 472:	40b2                	lw	ra,12(sp)
 474:	4422                	lw	s0,8(sp)
    GPIOx->BCR = GPIO_Pin;
 476:	c94c                	sw	a1,20(a0)
}
 478:	0141                	addi	sp,sp,16
 47a:	4501                	li	a0,0
 47c:	4581                	li	a1,0
 47e:	8082                	ret

00000480 <NMI_Handler>:
 * @brief   This function handles NMI exception.
 *
 * @return  none
 */
void NMI_Handler(void)
{
 480:	1141                	addi	sp,sp,-16
 482:	c422                	sw	s0,8(sp)
 484:	c606                	sw	ra,12(sp)
 486:	0800                	addi	s0,sp,16
}
 488:	40b2                	lw	ra,12(sp)
 48a:	4422                	lw	s0,8(sp)
 48c:	0141                	addi	sp,sp,16
 48e:	8082                	ret

00000490 <HardFault_Handler>:
 * @brief   This function handles Hard Fault exception.
 *
 * @return  none
 */
void HardFault_Handler(void)
{
 490:	1141                	addi	sp,sp,-16
 492:	c422                	sw	s0,8(sp)
 494:	c606                	sw	ra,12(sp)
 496:	0800                	addi	s0,sp,16
  while (1)
 498:	a001                	j	498 <HardFault_Handler+0x8>

0000049a <RCC_APB2PeriphClockCmd>:
 *          NewState - ENABLE or DISABLE
 *
 * @return  none
 */
void RCC_APB2PeriphClockCmd(uint32_t RCC_APB2Periph, FunctionalState NewState)
{
 49a:	1141                	addi	sp,sp,-16
 49c:	c422                	sw	s0,8(sp)
 49e:	c606                	sw	ra,12(sp)
 4a0:	0800                	addi	s0,sp,16
 4a2:	400217b7          	lui	a5,0x40021
    if(NewState != DISABLE)
    {
        RCC->APB2PCENR |= RCC_APB2Periph;
 4a6:	4f98                	lw	a4,24(a5)
    if(NewState != DISABLE)
 4a8:	c999                	beqz	a1,4be <RCC_APB2PeriphClockCmd+0x24>
        RCC->APB2PCENR |= RCC_APB2Periph;
 4aa:	8f49                	or	a4,a4,a0
 4ac:	cf98                	sw	a4,24(a5)
    }
    else
    {
        RCC->APB2PCENR &= ~RCC_APB2Periph;
    }
}
 4ae:	40b2                	lw	ra,12(sp)
 4b0:	4422                	lw	s0,8(sp)
 4b2:	0141                	addi	sp,sp,16
 4b4:	4501                	li	a0,0
 4b6:	4581                	li	a1,0
 4b8:	4701                	li	a4,0
 4ba:	4781                	li	a5,0
 4bc:	8082                	ret
        RCC->APB2PCENR &= ~RCC_APB2Periph;
 4be:	fff54513          	not	a0,a0
 4c2:	8d79                	and	a0,a0,a4
 4c4:	cf88                	sw	a0,24(a5)
}
 4c6:	b7e5                	j	4ae <RCC_APB2PeriphClockCmd+0x14>

000004c8 <SystemInit>:
 *        the PLL and update the SystemCoreClock variable.
 *
 * @return  none
 */
void SystemInit (void)
{
 4c8:	1101                	addi	sp,sp,-32
  RCC->CTLR |= (uint32_t)0x00000001;
 4ca:	400217b7          	lui	a5,0x40021
{
 4ce:	cc22                	sw	s0,24(sp)
 4d0:	ce06                	sw	ra,28(sp)
 4d2:	1000                	addi	s0,sp,32
  RCC->CTLR |= (uint32_t)0x00000001;
 4d4:	4398                	lw	a4,0(a5)

#ifdef CH32V30x_D8C
  RCC->CFGR0 &= (uint32_t)0xF8FF0000;
 4d6:	f8ff06b7          	lui	a3,0xf8ff0
  RCC->CTLR |= ((uint32_t)RCC_HSEON);

  /* Wait till HSE is ready and if Time out is reached exit */
  do
  {
    HSEStatus = RCC->CTLR & RCC_HSERDY;
 4da:	00020637          	lui	a2,0x20
  RCC->CTLR |= (uint32_t)0x00000001;
 4de:	00176713          	ori	a4,a4,1
 4e2:	c398                	sw	a4,0(a5)
  RCC->CFGR0 &= (uint32_t)0xF8FF0000;
 4e4:	43d8                	lw	a4,4(a5)
 4e6:	8f75                	and	a4,a4,a3
 4e8:	c3d8                	sw	a4,4(a5)
  RCC->CTLR &= (uint32_t)0xFEF6FFFF;
 4ea:	4398                	lw	a4,0(a5)
 4ec:	fef706b7          	lui	a3,0xfef70
 4f0:	16fd                	addi	a3,a3,-1 # fef6ffff <_eusrstack+0xdef67fff>
 4f2:	8f75                	and	a4,a4,a3
 4f4:	c398                	sw	a4,0(a5)
  RCC->CTLR &= (uint32_t)0xFFFBFFFF;
 4f6:	4398                	lw	a4,0(a5)
 4f8:	fffc06b7          	lui	a3,0xfffc0
 4fc:	16fd                	addi	a3,a3,-1 # fffbffff <_eusrstack+0xdffb7fff>
 4fe:	8f75                	and	a4,a4,a3
 500:	c398                	sw	a4,0(a5)
  RCC->CFGR0 &= (uint32_t)0xFF80FFFF;
 502:	43d8                	lw	a4,4(a5)
 504:	ff8106b7          	lui	a3,0xff810
 508:	16fd                	addi	a3,a3,-1 # ff80ffff <_eusrstack+0xdf807fff>
 50a:	8f75                	and	a4,a4,a3
 50c:	c3d8                	sw	a4,4(a5)
  RCC->CTLR &= (uint32_t)0xEBFFFFFF;
 50e:	4398                	lw	a4,0(a5)
 510:	ec0006b7          	lui	a3,0xec000
 514:	16fd                	addi	a3,a3,-1 # ebffffff <_eusrstack+0xcbff7fff>
 516:	8f75                	and	a4,a4,a3
 518:	c398                	sw	a4,0(a5)
  RCC->INTR = 0x00FF0000;
 51a:	00ff0737          	lui	a4,0xff0
 51e:	c798                	sw	a4,8(a5)
  RCC->CFGR2 = 0x00000000;
 520:	0207a623          	sw	zero,44(a5) # 4002102c <_eusrstack+0x2001902c>
  __IO uint32_t StartUpCounter = 0, HSEStatus = 0;
 524:	fe042423          	sw	zero,-24(s0)
 528:	fe042623          	sw	zero,-20(s0)
  RCC->CTLR |= ((uint32_t)RCC_HSEON);
 52c:	4398                	lw	a4,0(a5)
 52e:	66c1                	lui	a3,0x10
 530:	8f55                	or	a4,a4,a3
 532:	c398                	sw	a4,0(a5)
    StartUpCounter++;
  } while((HSEStatus == 0) && (StartUpCounter != HSE_STARTUP_TIMEOUT));
 534:	6685                	lui	a3,0x1
    HSEStatus = RCC->CTLR & RCC_HSERDY;
 536:	4398                	lw	a4,0(a5)
 538:	8f71                	and	a4,a4,a2
 53a:	fee42623          	sw	a4,-20(s0)
    StartUpCounter++;
 53e:	fe842703          	lw	a4,-24(s0)
 542:	0705                	addi	a4,a4,1 # ff0001 <__stack_size+0xfef801>
 544:	fee42423          	sw	a4,-24(s0)
  } while((HSEStatus == 0) && (StartUpCounter != HSE_STARTUP_TIMEOUT));
 548:	fec42703          	lw	a4,-20(s0)
 54c:	e709                	bnez	a4,556 <SystemInit+0x8e>
 54e:	fe842703          	lw	a4,-24(s0)
 552:	fed712e3          	bne	a4,a3,536 <SystemInit+0x6e>

  if ((RCC->CTLR & RCC_HSERDY) != RESET)
 556:	4398                	lw	a4,0(a5)
 558:	4785                	li	a5,1
 55a:	00e71693          	slli	a3,a4,0xe
 55e:	0606dd63          	bgez	a3,5d8 <SystemInit+0x110>
  {
    HSEStatus = (uint32_t)0x01;
 562:	fef42623          	sw	a5,-20(s0)
  else
  {
    HSEStatus = (uint32_t)0x00;
  }

  if (HSEStatus == (uint32_t)0x01)
 566:	fec42703          	lw	a4,-20(s0)
 56a:	04f71f63          	bne	a4,a5,5c8 <SystemInit+0x100>
  {
    /* HCLK = SYSCLK */
    RCC->CFGR0 |= (uint32_t)RCC_HPRE_DIV1;
 56e:	400217b7          	lui	a5,0x40021
 572:	43d8                	lw	a4,4(a5)
    RCC->CFGR0 |= (uint32_t)RCC_PPRE2_DIV1;
    /* PCLK1 = HCLK */
    RCC->CFGR0 |= (uint32_t)RCC_PPRE1_DIV2;

    /*  PLL configuration: PLLCLK = HSE * 12 = 96 MHz */
    RCC->CFGR0 &= (uint32_t)((uint32_t)~(RCC_PLLSRC | RCC_PLLXTPRE |
 574:	ffc106b7          	lui	a3,0xffc10
 578:	16fd                	addi	a3,a3,-1 # ffc0ffff <_eusrstack+0xdfc07fff>
    RCC->CFGR0 |= (uint32_t)RCC_HPRE_DIV1;
 57a:	c3d8                	sw	a4,4(a5)
    RCC->CFGR0 |= (uint32_t)RCC_PPRE2_DIV1;
 57c:	43d8                	lw	a4,4(a5)
 57e:	c3d8                	sw	a4,4(a5)
    RCC->CFGR0 |= (uint32_t)RCC_PPRE1_DIV2;
 580:	43d8                	lw	a4,4(a5)
 582:	40076713          	ori	a4,a4,1024
 586:	c3d8                	sw	a4,4(a5)
    RCC->CFGR0 &= (uint32_t)((uint32_t)~(RCC_PLLSRC | RCC_PLLXTPRE |
 588:	43d8                	lw	a4,4(a5)
 58a:	8f75                	and	a4,a4,a3
 58c:	c3d8                	sw	a4,4(a5)
                                        RCC_PLLMULL));

#ifdef CH32V30x_D8
        RCC->CFGR0 |= (uint32_t)(RCC_PLLSRC_HSE | RCC_PLLXTPRE_HSE | RCC_PLLMULL12);
#else
        RCC->CFGR0 |= (uint32_t)(RCC_PLLSRC_HSE | RCC_PLLXTPRE_HSE | RCC_PLLMULL12_EXTEN);
 58e:	43d8                	lw	a4,4(a5)
 590:	002906b7          	lui	a3,0x290
 594:	8f55                	or	a4,a4,a3
 596:	c3d8                	sw	a4,4(a5)
#endif

    /* Enable PLL */
    RCC->CTLR |= RCC_PLLON;
 598:	4398                	lw	a4,0(a5)
 59a:	010006b7          	lui	a3,0x1000
 59e:	8f55                	or	a4,a4,a3
 5a0:	c398                	sw	a4,0(a5)
    /* Wait till PLL is ready */
    while((RCC->CTLR & RCC_PLLRDY) == 0)
 5a2:	4398                	lw	a4,0(a5)
 5a4:	00671693          	slli	a3,a4,0x6
 5a8:	fe06dde3          	bgez	a3,5a2 <SystemInit+0xda>
    {
    }
    /* Select PLL as system clock source */
    RCC->CFGR0 &= (uint32_t)((uint32_t)~(RCC_SW));
 5ac:	43d8                	lw	a4,4(a5)
    RCC->CFGR0 |= (uint32_t)RCC_SW_PLL;
    /* Wait till PLL is used as system clock source */
    while ((RCC->CFGR0 & (uint32_t)RCC_SWS) != (uint32_t)0x08)
 5ae:	400216b7          	lui	a3,0x40021
    RCC->CFGR0 &= (uint32_t)((uint32_t)~(RCC_SW));
 5b2:	9b71                	andi	a4,a4,-4
 5b4:	c3d8                	sw	a4,4(a5)
    RCC->CFGR0 |= (uint32_t)RCC_SW_PLL;
 5b6:	43d8                	lw	a4,4(a5)
 5b8:	00276713          	ori	a4,a4,2
 5bc:	c3d8                	sw	a4,4(a5)
    while ((RCC->CFGR0 & (uint32_t)RCC_SWS) != (uint32_t)0x08)
 5be:	4721                	li	a4,8
 5c0:	42dc                	lw	a5,4(a3)
 5c2:	8bb1                	andi	a5,a5,12
 5c4:	fee79ee3          	bne	a5,a4,5c0 <SystemInit+0xf8>
}
 5c8:	40f2                	lw	ra,28(sp)
 5ca:	4462                	lw	s0,24(sp)
 5cc:	6105                	addi	sp,sp,32
 5ce:	4601                	li	a2,0
 5d0:	4681                	li	a3,0
 5d2:	4701                	li	a4,0
 5d4:	4781                	li	a5,0
 5d6:	8082                	ret
    HSEStatus = (uint32_t)0x00;
 5d8:	fe042623          	sw	zero,-20(s0)
 5dc:	b769                	j	566 <SystemInit+0x9e>

000005de <Delay_Ms>:
 * @param   n - Millisecond number.
 *
 * @return  None
 */
void Delay_Ms(uint32_t n)
{
 5de:	1141                	addi	sp,sp,-16
    uint32_t i;

    SysTick->SR &= ~(1 << 0);
 5e0:	e000f7b7          	lui	a5,0xe000f
{
 5e4:	c422                	sw	s0,8(sp)
 5e6:	c606                	sw	ra,12(sp)
 5e8:	0800                	addi	s0,sp,16
    SysTick->SR &= ~(1 << 0);
 5ea:	43d8                	lw	a4,4(a5)
    i = (uint32_t)n * p_ms;

    SysTick->CMP = i;
 5ec:	4681                	li	a3,0
    SysTick->SR &= ~(1 << 0);
 5ee:	9b79                	andi	a4,a4,-2
 5f0:	c3d8                	sw	a4,4(a5)
    i = (uint32_t)n * p_ms;
 5f2:	20000717          	auipc	a4,0x20000
 5f6:	a0e75703          	lhu	a4,-1522(a4) # 20000000 <p_ms>
    SysTick->CMP = i;
 5fa:	02a70633          	mul	a2,a4,a0
 5fe:	cb90                	sw	a2,16(a5)
 600:	cbd4                	sw	a3,20(a5)
    SysTick->CTLR |= (1 << 4);
 602:	4398                	lw	a4,0(a5)
 604:	01076713          	ori	a4,a4,16
 608:	c398                	sw	a4,0(a5)
    SysTick->CTLR |= (1 << 5) | (1 << 0);
 60a:	4398                	lw	a4,0(a5)
 60c:	02176713          	ori	a4,a4,33
 610:	c398                	sw	a4,0(a5)

    while((SysTick->SR & (1 << 0)) != (1 << 0))
 612:	43d8                	lw	a4,4(a5)
 614:	8b05                	andi	a4,a4,1
 616:	df75                	beqz	a4,612 <Delay_Ms+0x34>
        ;
    SysTick->CTLR &= ~(1 << 0);
 618:	4398                	lw	a4,0(a5)
}
 61a:	40b2                	lw	ra,12(sp)
 61c:	4422                	lw	s0,8(sp)
    SysTick->CTLR &= ~(1 << 0);
 61e:	9b79                	andi	a4,a4,-2
 620:	c398                	sw	a4,0(a5)
}
 622:	0141                	addi	sp,sp,16
 624:	4501                	li	a0,0
 626:	4601                	li	a2,0
 628:	4681                	li	a3,0
 62a:	4701                	li	a4,0
 62c:	4781                	li	a5,0
 62e:	8082                	ret

00000630 <_fini>:

    curbrk += incr;
    return curbrk - incr;
}

void _fini(){}
 630:	1141                	addi	sp,sp,-16
 632:	c422                	sw	s0,8(sp)
 634:	c606                	sw	ra,12(sp)
 636:	0800                	addi	s0,sp,16
 638:	40b2                	lw	ra,12(sp)
 63a:	4422                	lw	s0,8(sp)
 63c:	0141                	addi	sp,sp,16
 63e:	8082                	ret

00000640 <_init>:
void _init(){}
 640:	1141                	addi	sp,sp,-16
 642:	c422                	sw	s0,8(sp)
 644:	c606                	sw	ra,12(sp)
 646:	0800                	addi	s0,sp,16
 648:	40b2                	lw	ra,12(sp)
 64a:	4422                	lw	s0,8(sp)
 64c:	0141                	addi	sp,sp,16
 64e:	8082                	ret
    .weak   DMA2_Channel8_IRQHandler   /* DMA2 Channel 8 */
    .weak   DMA2_Channel9_IRQHandler   /* DMA2 Channel 9 */
    .weak   DMA2_Channel10_IRQHandler  /* DMA2 Channel 10 */
    .weak   DMA2_Channel11_IRQHandler  /* DMA2 Channel 11 */

NMI_Handler:  1:  j 1b
 650:	a001                	j	650 <_init+0x10>
HardFault_Handler:  1:  j 1b
 652:	a001                	j	652 <_init+0x12>

00000654 <Ecall_M_Mode_Handler>:
Ecall_M_Mode_Handler:  1:  j 1b
 654:	a001                	j	654 <Ecall_M_Mode_Handler>

00000656 <Ecall_U_Mode_Handler>:
Ecall_U_Mode_Handler:  1:  j 1b
 656:	a001                	j	656 <Ecall_U_Mode_Handler>

00000658 <Break_Point_Handler>:
Break_Point_Handler:  1:  j 1b
 658:	a001                	j	658 <Break_Point_Handler>

0000065a <SysTick_Handler>:
SysTick_Handler:  1:  j 1b
 65a:	a001                	j	65a <SysTick_Handler>

0000065c <SW_Handler>:
SW_Handler:  1:  j 1b
 65c:	a001                	j	65c <SW_Handler>

0000065e <WWDG_IRQHandler>:
WWDG_IRQHandler:  1:  j 1b
 65e:	a001                	j	65e <WWDG_IRQHandler>

00000660 <PVD_IRQHandler>:
PVD_IRQHandler:  1:  j 1b
 660:	a001                	j	660 <PVD_IRQHandler>

00000662 <TAMPER_IRQHandler>:
TAMPER_IRQHandler:  1:  j 1b
 662:	a001                	j	662 <TAMPER_IRQHandler>

00000664 <RTC_IRQHandler>:
RTC_IRQHandler:  1:  j 1b
 664:	a001                	j	664 <RTC_IRQHandler>

00000666 <FLASH_IRQHandler>:
FLASH_IRQHandler:  1:  j 1b
 666:	a001                	j	666 <FLASH_IRQHandler>

00000668 <RCC_IRQHandler>:
RCC_IRQHandler:  1:  j 1b
 668:	a001                	j	668 <RCC_IRQHandler>

0000066a <EXTI0_IRQHandler>:
EXTI0_IRQHandler:  1:  j 1b
 66a:	a001                	j	66a <EXTI0_IRQHandler>

0000066c <EXTI1_IRQHandler>:
EXTI1_IRQHandler:  1:  j 1b
 66c:	a001                	j	66c <EXTI1_IRQHandler>

0000066e <EXTI2_IRQHandler>:
EXTI2_IRQHandler:  1:  j 1b
 66e:	a001                	j	66e <EXTI2_IRQHandler>

00000670 <EXTI3_IRQHandler>:
EXTI3_IRQHandler:  1:  j 1b
 670:	a001                	j	670 <EXTI3_IRQHandler>

00000672 <EXTI4_IRQHandler>:
EXTI4_IRQHandler:  1:  j 1b
 672:	a001                	j	672 <EXTI4_IRQHandler>

00000674 <DMA1_Channel1_IRQHandler>:
DMA1_Channel1_IRQHandler:  1:  j 1b
 674:	a001                	j	674 <DMA1_Channel1_IRQHandler>

00000676 <DMA1_Channel2_IRQHandler>:
DMA1_Channel2_IRQHandler:  1:  j 1b
 676:	a001                	j	676 <DMA1_Channel2_IRQHandler>

00000678 <DMA1_Channel3_IRQHandler>:
DMA1_Channel3_IRQHandler:  1:  j 1b
 678:	a001                	j	678 <DMA1_Channel3_IRQHandler>

0000067a <DMA1_Channel4_IRQHandler>:
DMA1_Channel4_IRQHandler:  1:  j 1b
 67a:	a001                	j	67a <DMA1_Channel4_IRQHandler>

0000067c <DMA1_Channel5_IRQHandler>:
DMA1_Channel5_IRQHandler:  1:  j 1b
 67c:	a001                	j	67c <DMA1_Channel5_IRQHandler>

0000067e <DMA1_Channel6_IRQHandler>:
DMA1_Channel6_IRQHandler:  1:  j 1b
 67e:	a001                	j	67e <DMA1_Channel6_IRQHandler>

00000680 <DMA1_Channel7_IRQHandler>:
DMA1_Channel7_IRQHandler:  1:  j 1b
 680:	a001                	j	680 <DMA1_Channel7_IRQHandler>

00000682 <ADC1_2_IRQHandler>:
ADC1_2_IRQHandler:  1:  j 1b
 682:	a001                	j	682 <ADC1_2_IRQHandler>

00000684 <USB_HP_CAN1_TX_IRQHandler>:
USB_HP_CAN1_TX_IRQHandler:  1:  j 1b
 684:	a001                	j	684 <USB_HP_CAN1_TX_IRQHandler>

00000686 <USB_LP_CAN1_RX0_IRQHandler>:
USB_LP_CAN1_RX0_IRQHandler:  1:  j 1b
 686:	a001                	j	686 <USB_LP_CAN1_RX0_IRQHandler>

00000688 <CAN1_RX1_IRQHandler>:
CAN1_RX1_IRQHandler:  1:  j 1b
 688:	a001                	j	688 <CAN1_RX1_IRQHandler>

0000068a <CAN1_SCE_IRQHandler>:
CAN1_SCE_IRQHandler:  1:  j 1b
 68a:	a001                	j	68a <CAN1_SCE_IRQHandler>

0000068c <EXTI9_5_IRQHandler>:
EXTI9_5_IRQHandler:  1:  j 1b
 68c:	a001                	j	68c <EXTI9_5_IRQHandler>

0000068e <TIM1_BRK_IRQHandler>:
TIM1_BRK_IRQHandler:  1:  j 1b
 68e:	a001                	j	68e <TIM1_BRK_IRQHandler>

00000690 <TIM1_UP_IRQHandler>:
TIM1_UP_IRQHandler:  1:  j 1b
 690:	a001                	j	690 <TIM1_UP_IRQHandler>

00000692 <TIM1_TRG_COM_IRQHandler>:
TIM1_TRG_COM_IRQHandler:  1:  j 1b
 692:	a001                	j	692 <TIM1_TRG_COM_IRQHandler>

00000694 <TIM1_CC_IRQHandler>:
TIM1_CC_IRQHandler:  1:  j 1b
 694:	a001                	j	694 <TIM1_CC_IRQHandler>

00000696 <TIM2_IRQHandler>:
TIM2_IRQHandler:  1:  j 1b
 696:	a001                	j	696 <TIM2_IRQHandler>

00000698 <TIM3_IRQHandler>:
TIM3_IRQHandler:  1:  j 1b
 698:	a001                	j	698 <TIM3_IRQHandler>

0000069a <TIM4_IRQHandler>:
TIM4_IRQHandler:  1:  j 1b
 69a:	a001                	j	69a <TIM4_IRQHandler>

0000069c <I2C1_EV_IRQHandler>:
I2C1_EV_IRQHandler:  1:  j 1b
 69c:	a001                	j	69c <I2C1_EV_IRQHandler>

0000069e <I2C1_ER_IRQHandler>:
I2C1_ER_IRQHandler:  1:  j 1b
 69e:	a001                	j	69e <I2C1_ER_IRQHandler>

000006a0 <I2C2_EV_IRQHandler>:
I2C2_EV_IRQHandler:  1:  j 1b
 6a0:	a001                	j	6a0 <I2C2_EV_IRQHandler>

000006a2 <I2C2_ER_IRQHandler>:
I2C2_ER_IRQHandler:  1:  j 1b
 6a2:	a001                	j	6a2 <I2C2_ER_IRQHandler>

000006a4 <SPI1_IRQHandler>:
SPI1_IRQHandler:  1:  j 1b
 6a4:	a001                	j	6a4 <SPI1_IRQHandler>

000006a6 <SPI2_IRQHandler>:
SPI2_IRQHandler:  1:  j 1b
 6a6:	a001                	j	6a6 <SPI2_IRQHandler>

000006a8 <USART1_IRQHandler>:
USART1_IRQHandler:  1:  j 1b
 6a8:	a001                	j	6a8 <USART1_IRQHandler>

000006aa <USART2_IRQHandler>:
USART2_IRQHandler:  1:  j 1b
 6aa:	a001                	j	6aa <USART2_IRQHandler>

000006ac <USART3_IRQHandler>:
USART3_IRQHandler:  1:  j 1b
 6ac:	a001                	j	6ac <USART3_IRQHandler>

000006ae <EXTI15_10_IRQHandler>:
EXTI15_10_IRQHandler:  1:  j 1b
 6ae:	a001                	j	6ae <EXTI15_10_IRQHandler>

000006b0 <RTCAlarm_IRQHandler>:
RTCAlarm_IRQHandler:  1:  j 1b
 6b0:	a001                	j	6b0 <RTCAlarm_IRQHandler>

000006b2 <TIM8_BRK_IRQHandler>:
TIM8_BRK_IRQHandler:  1:  j 1b
 6b2:	a001                	j	6b2 <TIM8_BRK_IRQHandler>

000006b4 <TIM8_UP_IRQHandler>:
TIM8_UP_IRQHandler:  1:  j 1b
 6b4:	a001                	j	6b4 <TIM8_UP_IRQHandler>

000006b6 <TIM8_TRG_COM_IRQHandler>:
TIM8_TRG_COM_IRQHandler:  1:  j 1b
 6b6:	a001                	j	6b6 <TIM8_TRG_COM_IRQHandler>

000006b8 <TIM8_CC_IRQHandler>:
TIM8_CC_IRQHandler:  1:  j 1b
 6b8:	a001                	j	6b8 <TIM8_CC_IRQHandler>

000006ba <RNG_IRQHandler>:
RNG_IRQHandler:  1:  j 1b
 6ba:	a001                	j	6ba <RNG_IRQHandler>

000006bc <FSMC_IRQHandler>:
FSMC_IRQHandler:  1:  j 1b
 6bc:	a001                	j	6bc <FSMC_IRQHandler>

000006be <SDIO_IRQHandler>:
SDIO_IRQHandler:  1:  j 1b
 6be:	a001                	j	6be <SDIO_IRQHandler>

000006c0 <TIM5_IRQHandler>:
TIM5_IRQHandler:  1:  j 1b
 6c0:	a001                	j	6c0 <TIM5_IRQHandler>

000006c2 <SPI3_IRQHandler>:
SPI3_IRQHandler:  1:  j 1b
 6c2:	a001                	j	6c2 <SPI3_IRQHandler>

000006c4 <UART4_IRQHandler>:
UART4_IRQHandler:  1:  j 1b
 6c4:	a001                	j	6c4 <UART4_IRQHandler>

000006c6 <UART5_IRQHandler>:
UART5_IRQHandler:  1:  j 1b
 6c6:	a001                	j	6c6 <UART5_IRQHandler>

000006c8 <TIM6_IRQHandler>:
TIM6_IRQHandler:  1:  j 1b
 6c8:	a001                	j	6c8 <TIM6_IRQHandler>

000006ca <TIM7_IRQHandler>:
TIM7_IRQHandler:  1:  j 1b
 6ca:	a001                	j	6ca <TIM7_IRQHandler>

000006cc <DMA2_Channel1_IRQHandler>:
DMA2_Channel1_IRQHandler:  1:  j 1b
 6cc:	a001                	j	6cc <DMA2_Channel1_IRQHandler>

000006ce <DMA2_Channel2_IRQHandler>:
DMA2_Channel2_IRQHandler:  1:  j 1b
 6ce:	a001                	j	6ce <DMA2_Channel2_IRQHandler>

000006d0 <DMA2_Channel3_IRQHandler>:
DMA2_Channel3_IRQHandler:  1:  j 1b
 6d0:	a001                	j	6d0 <DMA2_Channel3_IRQHandler>

000006d2 <DMA2_Channel4_IRQHandler>:
DMA2_Channel4_IRQHandler:  1:  j 1b
 6d2:	a001                	j	6d2 <DMA2_Channel4_IRQHandler>

000006d4 <DMA2_Channel5_IRQHandler>:
DMA2_Channel5_IRQHandler:  1:  j 1b
 6d4:	a001                	j	6d4 <DMA2_Channel5_IRQHandler>

000006d6 <OTG_FS_IRQHandler>:
OTG_FS_IRQHandler:  1:  j 1b
 6d6:	a001                	j	6d6 <OTG_FS_IRQHandler>

000006d8 <UART6_IRQHandler>:
UART6_IRQHandler:  1:  j 1b
 6d8:	a001                	j	6d8 <UART6_IRQHandler>

000006da <UART7_IRQHandler>:
UART7_IRQHandler:  1:  j 1b
 6da:	a001                	j	6da <UART7_IRQHandler>

000006dc <UART8_IRQHandler>:
UART8_IRQHandler:  1:  j 1b
 6dc:	a001                	j	6dc <UART8_IRQHandler>

000006de <TIM9_BRK_IRQHandler>:
TIM9_BRK_IRQHandler:  1:  j 1b
 6de:	a001                	j	6de <TIM9_BRK_IRQHandler>

000006e0 <TIM9_UP_IRQHandler>:
TIM9_UP_IRQHandler:  1:  j 1b
 6e0:	a001                	j	6e0 <TIM9_UP_IRQHandler>

000006e2 <TIM9_TRG_COM_IRQHandler>:
TIM9_TRG_COM_IRQHandler:  1:  j 1b
 6e2:	a001                	j	6e2 <TIM9_TRG_COM_IRQHandler>

000006e4 <TIM9_CC_IRQHandler>:
TIM9_CC_IRQHandler:  1:  j 1b
 6e4:	a001                	j	6e4 <TIM9_CC_IRQHandler>

000006e6 <TIM10_BRK_IRQHandler>:
TIM10_BRK_IRQHandler:  1:  j 1b
 6e6:	a001                	j	6e6 <TIM10_BRK_IRQHandler>

000006e8 <TIM10_UP_IRQHandler>:
TIM10_UP_IRQHandler:  1:  j 1b
 6e8:	a001                	j	6e8 <TIM10_UP_IRQHandler>

000006ea <TIM10_TRG_COM_IRQHandler>:
TIM10_TRG_COM_IRQHandler:  1:  j 1b
 6ea:	a001                	j	6ea <TIM10_TRG_COM_IRQHandler>

000006ec <TIM10_CC_IRQHandler>:
TIM10_CC_IRQHandler:  1:  j 1b
 6ec:	a001                	j	6ec <TIM10_CC_IRQHandler>

000006ee <DMA2_Channel6_IRQHandler>:
DMA2_Channel6_IRQHandler:  1:  j 1b
 6ee:	a001                	j	6ee <DMA2_Channel6_IRQHandler>

000006f0 <DMA2_Channel7_IRQHandler>:
DMA2_Channel7_IRQHandler:  1:  j 1b
 6f0:	a001                	j	6f0 <DMA2_Channel7_IRQHandler>

000006f2 <DMA2_Channel8_IRQHandler>:
DMA2_Channel8_IRQHandler:  1:  j 1b
 6f2:	a001                	j	6f2 <DMA2_Channel8_IRQHandler>

000006f4 <DMA2_Channel9_IRQHandler>:
DMA2_Channel9_IRQHandler:  1:  j 1b
 6f4:	a001                	j	6f4 <DMA2_Channel9_IRQHandler>

000006f6 <DMA2_Channel10_IRQHandler>:
DMA2_Channel10_IRQHandler:  1:  j 1b
 6f6:	a001                	j	6f6 <DMA2_Channel10_IRQHandler>

000006f8 <DMA2_Channel11_IRQHandler>:
DMA2_Channel11_IRQHandler:  1:  j 1b
 6f8:	a001                	j	6f8 <DMA2_Channel11_IRQHandler>

000006fa <handle_reset>:
	.weak	handle_reset
	.align	1
handle_reset:
.option push
.option	norelax
	la gp, __global_pointer$
 6fa:	20000197          	auipc	gp,0x20000
 6fe:	10618193          	addi	gp,gp,262 # 20000800 <__global_pointer$>
.option	pop
1:
	la sp, _eusrstack
 702:	20008117          	auipc	sp,0x20008
 706:	8fe10113          	addi	sp,sp,-1794 # 20008000 <_eusrstack>
2:
	/* Load data section from flash to RAM */
	la a0, _data_lma
 70a:	79800513          	li	a0,1944
	la a1, _data_vma
 70e:	20000597          	auipc	a1,0x20000
 712:	8f258593          	addi	a1,a1,-1806 # 20000000 <p_ms>
	la a2, _edata
 716:	20000617          	auipc	a2,0x20000
 71a:	8ea60613          	addi	a2,a2,-1814 # 20000000 <p_ms>
	bgeu a1, a2, 2f
 71e:	00c5fa63          	bgeu	a1,a2,732 <handle_reset+0x38>
1:
	lw t0, (a0)
 722:	00052283          	lw	t0,0(a0) # 40011000 <_eusrstack+0x20009000>
	sw t0, (a1)
 726:	0055a023          	sw	t0,0(a1)
	addi a0, a0, 4
 72a:	0511                	addi	a0,a0,4
	addi a1, a1, 4
 72c:	0591                	addi	a1,a1,4
	bltu a1, a2, 1b
 72e:	fec5eae3          	bltu	a1,a2,722 <handle_reset+0x28>
2:
	/* Clear bss section */
	la a0, _sbss
 732:	20000517          	auipc	a0,0x20000
 736:	8ce50513          	addi	a0,a0,-1842 # 20000000 <p_ms>
	la a1, _ebss
 73a:	20000597          	auipc	a1,0x20000
 73e:	8ca58593          	addi	a1,a1,-1846 # 20000004 <_ebss>
	bgeu a0, a1, 2f
 742:	00b57763          	bgeu	a0,a1,750 <handle_reset+0x56>
1:
	sw zero, (a0)
 746:	00052023          	sw	zero,0(a0)
	addi a0, a0, 4
 74a:	0511                	addi	a0,a0,4
	bltu a0, a1, 1b
 74c:	feb56de3          	bltu	a0,a1,746 <handle_reset+0x4c>
2:
    li t0, 0x1f
 750:	42fd                	li	t0,31
    csrw 0xbc0, t0
 752:	bc029073          	csrw	0xbc0,t0

    /* Enable nested and hardware stack */
	li t0, 0x0b
 756:	42ad                	li	t0,11
	csrw 0x804, t0
 758:	80429073          	csrw	0x804,t0

    /* Enable floating point and interrupt */
   	li t0, 0x6088
 75c:	6299                	lui	t0,0x6
 75e:	08828293          	addi	t0,t0,136 # 6088 <__stack_size+0x5888>
   	csrs mstatus, t0
 762:	3002a073          	csrs	mstatus,t0

 	la t0, _vector_base
 766:	00000297          	auipc	t0,0x0
 76a:	8d228293          	addi	t0,t0,-1838 # 38 <_einit>
    ori t0, t0, 3
 76e:	0032e293          	ori	t0,t0,3
	csrw mtvec, t0
 772:	30529073          	csrw	mtvec,t0

    jal  SystemInit
 776:	d53ff0ef          	jal	4c8 <SystemInit>
	la t0, main
 77a:	00000297          	auipc	t0,0x0
 77e:	bac28293          	addi	t0,t0,-1108 # 326 <main>
	csrw mepc, t0
 782:	34129073          	csrw	mepc,t0
	mret
 786:	30200073          	mret
 78a:	0000                	unimp
 78c:	8000                	.insn	2, 0x8000
 78e:	0000                	unimp
 790:	0002                	c.slli64	zero
 792:	0000                	unimp
 794:	0010                	.insn	2, 0x0010
	...
