
/home/blank/Engineering/MCU/WCH_1/CH32V20x/Project/TEest/build/TEest.elf:     file format elf32-littleriscv


Disassembly of section .init:

00000000 <_sinit>:
   0:	6400306f          	j	3640 <handle_reset>
   4:	00000013          	.word	0x00000013
   8:	00000013          	.word	0x00000013
   c:	00000013          	.word	0x00000013
  10:	00000013          	.word	0x00000013
  14:	00000013          	.word	0x00000013
  18:	00000013          	.word	0x00000013
  1c:	00000013          	.word	0x00000013
  20:	00000013          	.word	0x00000013
  24:	00000013          	.word	0x00000013
  28:	00000013          	.word	0x00000013
  2c:	00000013          	.word	0x00000013
  30:	00000013          	.word	0x00000013
  34:	00100073          	.word	0x00100073

Disassembly of section .vector:

00000038 <_vector_base>:
	...
  40:	000035ca          	.word	0x000035ca
  44:	000035cc          	.word	0x000035cc
  48:	00000000          	.word	0x00000000
  4c:	000035ce          	.word	0x000035ce
	...
  58:	000035d0          	.word	0x000035d0
  5c:	000035d2          	.word	0x000035d2
	...
  68:	000035d4          	.word	0x000035d4
  6c:	00000000          	.word	0x00000000
  70:	000035d6          	.word	0x000035d6
  74:	00000000          	.word	0x00000000
  78:	000035d8          	.word	0x000035d8
  7c:	000035da          	.word	0x000035da
  80:	000035dc          	.word	0x000035dc
  84:	000035de          	.word	0x000035de
  88:	000035e0          	.word	0x000035e0
  8c:	000035e2          	.word	0x000035e2
  90:	000035e4          	.word	0x000035e4
  94:	000035e6          	.word	0x000035e6
  98:	000035e8          	.word	0x000035e8
  9c:	000035ea          	.word	0x000035ea
  a0:	000035ec          	.word	0x000035ec
  a4:	000035ee          	.word	0x000035ee
  a8:	000035f0          	.word	0x000035f0
  ac:	000035f2          	.word	0x000035f2
  b0:	000035f4          	.word	0x000035f4
  b4:	000035f6          	.word	0x000035f6
  b8:	000035f8          	.word	0x000035f8
  bc:	000035fa          	.word	0x000035fa
  c0:	000035fc          	.word	0x000035fc
  c4:	000035fe          	.word	0x000035fe
  c8:	00003600          	.word	0x00003600
  cc:	00003602          	.word	0x00003602
  d0:	00003604          	.word	0x00003604
  d4:	00003606          	.word	0x00003606
  d8:	00003608          	.word	0x00003608
  dc:	0000360a          	.word	0x0000360a
  e0:	0000360c          	.word	0x0000360c
  e4:	0000360e          	.word	0x0000360e
  e8:	00003610          	.word	0x00003610
  ec:	00003612          	.word	0x00003612
  f0:	00003614          	.word	0x00003614
  f4:	00003616          	.word	0x00003616
  f8:	00003618          	.word	0x00003618
  fc:	0000361a          	.word	0x0000361a
 100:	0000361c          	.word	0x0000361c
 104:	0000361e          	.word	0x0000361e
 108:	00003620          	.word	0x00003620
 10c:	00003622          	.word	0x00003622
 110:	00003624          	.word	0x00003624
 114:	00003626          	.word	0x00003626
 118:	00003628          	.word	0x00003628
 11c:	0000362a          	.word	0x0000362a
 120:	0000362c          	.word	0x0000362c
 124:	0000362e          	.word	0x0000362e
 128:	00003630          	.word	0x00003630
 12c:	00003632          	.word	0x00003632
 130:	00003634          	.word	0x00003634
	...
 13c:	00003636          	.word	0x00003636
 140:	0000363c          	.word	0x0000363c
 144:	0000363e          	.word	0x0000363e
 148:	00003638          	.word	0x00003638
 14c:	0000363a          	.word	0x0000363a
	...

Disassembly of section .text:

00000180 <_puts_r>:
     180:	7179                	addi	sp,sp,-48
     182:	d422                	sw	s0,40(sp)
     184:	d226                	sw	s1,36(sp)
     186:	1800                	addi	s0,sp,48
     188:	d04a                	sw	s2,32(sp)
     18a:	d606                	sw	ra,44(sp)
     18c:	892a                	mv	s2,a0
     18e:	852e                	mv	a0,a1
     190:	84ae                	mv	s1,a1
     192:	22d9                	jal	358 <strlen>
     194:	6791                	lui	a5,0x4
     196:	03492703          	lw	a4,52(s2)
     19a:	00150813          	addi	a6,a0,1
     19e:	83078793          	addi	a5,a5,-2000 # 3830 <USART_GetFlagStatus+0x2c>
     1a2:	4585                	li	a1,1
     1a4:	fe040613          	addi	a2,s0,-32
     1a8:	4689                	li	a3,2
     1aa:	fe942023          	sw	s1,-32(s0)
     1ae:	fea42223          	sw	a0,-28(s0)
     1b2:	fd042e23          	sw	a6,-36(s0)
     1b6:	fef42423          	sw	a5,-24(s0)
     1ba:	feb42623          	sw	a1,-20(s0)
     1be:	fcc42a23          	sw	a2,-44(s0)
     1c2:	fcd42c23          	sw	a3,-40(s0)
     1c6:	00892483          	lw	s1,8(s2)
     1ca:	c379                	beqz	a4,290 <_puts_r+0x110>
     1cc:	50fc                	lw	a5,100(s1)
     1ce:	00c49703          	lh	a4,12(s1)
     1d2:	0017f693          	andi	a3,a5,1
     1d6:	c2ad                	beqz	a3,238 <_puts_r+0xb8>
     1d8:	01271693          	slli	a3,a4,0x12
     1dc:	0606cb63          	bltz	a3,252 <_puts_r+0xd2>
     1e0:	76f9                	lui	a3,0xffffe
     1e2:	16fd                	addi	a3,a3,-1 # ffffdfff <_eusrstack+0xdfff8fff>
     1e4:	6609                	lui	a2,0x2
     1e6:	8ff5                	and	a5,a5,a3
     1e8:	8f51                	or	a4,a4,a2
     1ea:	d0fc                	sw	a5,100(s1)
     1ec:	00e49623          	sh	a4,12(s1)
     1f0:	01279713          	slli	a4,a5,0x12
     1f4:	0a074163          	bltz	a4,296 <_puts_r+0x116>
     1f8:	854a                	mv	a0,s2
     1fa:	fd440613          	addi	a2,s0,-44
     1fe:	85a6                	mv	a1,s1
     200:	234d                	jal	7a2 <__sfvwrite_r>
     202:	00a03733          	snez	a4,a0
     206:	50fc                	lw	a5,100(s1)
     208:	40e00733          	neg	a4,a4
     20c:	00a76913          	ori	s2,a4,10
     210:	8b85                	andi	a5,a5,1
     212:	e791                	bnez	a5,21e <_puts_r+0x9e>
     214:	00c4d783          	lhu	a5,12(s1)
     218:	2007f793          	andi	a5,a5,512
     21c:	c3a9                	beqz	a5,25e <_puts_r+0xde>
     21e:	50b2                	lw	ra,44(sp)
     220:	5422                	lw	s0,40(sp)
     222:	5492                	lw	s1,36(sp)
     224:	854a                	mv	a0,s2
     226:	5902                	lw	s2,32(sp)
     228:	6145                	addi	sp,sp,48
     22a:	4581                	li	a1,0
     22c:	4601                	li	a2,0
     22e:	4681                	li	a3,0
     230:	4701                	li	a4,0
     232:	4781                	li	a5,0
     234:	4801                	li	a6,0
     236:	8082                	ret
     238:	20077693          	andi	a3,a4,512
     23c:	c2a1                	beqz	a3,27c <_puts_r+0xfc>
     23e:	01271693          	slli	a3,a4,0x12
     242:	f806dfe3          	bgez	a3,1e0 <_puts_r+0x60>
     246:	01279713          	slli	a4,a5,0x12
     24a:	fa0757e3          	bgez	a4,1f8 <_puts_r+0x78>
     24e:	597d                	li	s2,-1
     250:	b7d1                	j	214 <_puts_r+0x94>
     252:	01279713          	slli	a4,a5,0x12
     256:	fa0751e3          	bgez	a4,1f8 <_puts_r+0x78>
     25a:	597d                	li	s2,-1
     25c:	b7c9                	j	21e <_puts_r+0x9e>
     25e:	4ca8                	lw	a0,88(s1)
     260:	20e5                	jal	348 <__retarget_lock_release_recursive>
     262:	50b2                	lw	ra,44(sp)
     264:	5422                	lw	s0,40(sp)
     266:	5492                	lw	s1,36(sp)
     268:	854a                	mv	a0,s2
     26a:	5902                	lw	s2,32(sp)
     26c:	6145                	addi	sp,sp,48
     26e:	4581                	li	a1,0
     270:	4601                	li	a2,0
     272:	4681                	li	a3,0
     274:	4701                	li	a4,0
     276:	4781                	li	a5,0
     278:	4801                	li	a6,0
     27a:	8082                	ret
     27c:	4ca8                	lw	a0,88(s1)
     27e:	2059                	jal	304 <__retarget_lock_acquire_recursive>
     280:	00c49703          	lh	a4,12(s1)
     284:	50fc                	lw	a5,100(s1)
     286:	01271693          	slli	a3,a4,0x12
     28a:	f606c3e3          	bltz	a3,1f0 <_puts_r+0x70>
     28e:	bf89                	j	1e0 <_puts_r+0x60>
     290:	854a                	mv	a0,s2
     292:	2999                	jal	6e8 <__sinit>
     294:	bf25                	j	1cc <_puts_r+0x4c>
     296:	597d                	li	s2,-1
     298:	bfa5                	j	210 <_puts_r+0x90>

0000029a <puts>:
     29a:	1141                	addi	sp,sp,-16
     29c:	c422                	sw	s0,8(sp)
     29e:	c606                	sw	ra,12(sp)
     2a0:	0800                	addi	s0,sp,16
     2a2:	200007b7          	lui	a5,0x20000
     2a6:	4422                	lw	s0,8(sp)
     2a8:	40b2                	lw	ra,12(sp)
     2aa:	85aa                	mv	a1,a0
     2ac:	5647a503          	lw	a0,1380(a5) # 20000564 <_impure_ptr>
     2b0:	0141                	addi	sp,sp,16
     2b2:	b5f9                	j	180 <_puts_r>

000002b4 <__retarget_lock_init>:
     2b4:	1141                	addi	sp,sp,-16
     2b6:	c422                	sw	s0,8(sp)
     2b8:	c606                	sw	ra,12(sp)
     2ba:	0800                	addi	s0,sp,16
     2bc:	40b2                	lw	ra,12(sp)
     2be:	4422                	lw	s0,8(sp)
     2c0:	0141                	addi	sp,sp,16
     2c2:	8082                	ret

000002c4 <__retarget_lock_init_recursive>:
     2c4:	1141                	addi	sp,sp,-16
     2c6:	c422                	sw	s0,8(sp)
     2c8:	c606                	sw	ra,12(sp)
     2ca:	0800                	addi	s0,sp,16
     2cc:	40b2                	lw	ra,12(sp)
     2ce:	4422                	lw	s0,8(sp)
     2d0:	0141                	addi	sp,sp,16
     2d2:	8082                	ret

000002d4 <__retarget_lock_close>:
     2d4:	1141                	addi	sp,sp,-16
     2d6:	c422                	sw	s0,8(sp)
     2d8:	c606                	sw	ra,12(sp)
     2da:	0800                	addi	s0,sp,16
     2dc:	40b2                	lw	ra,12(sp)
     2de:	4422                	lw	s0,8(sp)
     2e0:	0141                	addi	sp,sp,16
     2e2:	8082                	ret

000002e4 <__retarget_lock_close_recursive>:
     2e4:	1141                	addi	sp,sp,-16
     2e6:	c422                	sw	s0,8(sp)
     2e8:	c606                	sw	ra,12(sp)
     2ea:	0800                	addi	s0,sp,16
     2ec:	40b2                	lw	ra,12(sp)
     2ee:	4422                	lw	s0,8(sp)
     2f0:	0141                	addi	sp,sp,16
     2f2:	8082                	ret

000002f4 <__retarget_lock_acquire>:
     2f4:	1141                	addi	sp,sp,-16
     2f6:	c422                	sw	s0,8(sp)
     2f8:	c606                	sw	ra,12(sp)
     2fa:	0800                	addi	s0,sp,16
     2fc:	40b2                	lw	ra,12(sp)
     2fe:	4422                	lw	s0,8(sp)
     300:	0141                	addi	sp,sp,16
     302:	8082                	ret

00000304 <__retarget_lock_acquire_recursive>:
     304:	1141                	addi	sp,sp,-16
     306:	c422                	sw	s0,8(sp)
     308:	c606                	sw	ra,12(sp)
     30a:	0800                	addi	s0,sp,16
     30c:	40b2                	lw	ra,12(sp)
     30e:	4422                	lw	s0,8(sp)
     310:	0141                	addi	sp,sp,16
     312:	8082                	ret

00000314 <__retarget_lock_try_acquire>:
     314:	1141                	addi	sp,sp,-16
     316:	c422                	sw	s0,8(sp)
     318:	c606                	sw	ra,12(sp)
     31a:	0800                	addi	s0,sp,16
     31c:	40b2                	lw	ra,12(sp)
     31e:	4422                	lw	s0,8(sp)
     320:	4505                	li	a0,1
     322:	0141                	addi	sp,sp,16
     324:	8082                	ret

00000326 <__retarget_lock_try_acquire_recursive>:
     326:	1141                	addi	sp,sp,-16
     328:	c422                	sw	s0,8(sp)
     32a:	c606                	sw	ra,12(sp)
     32c:	0800                	addi	s0,sp,16
     32e:	40b2                	lw	ra,12(sp)
     330:	4422                	lw	s0,8(sp)
     332:	4505                	li	a0,1
     334:	0141                	addi	sp,sp,16
     336:	8082                	ret

00000338 <__retarget_lock_release>:
     338:	1141                	addi	sp,sp,-16
     33a:	c422                	sw	s0,8(sp)
     33c:	c606                	sw	ra,12(sp)
     33e:	0800                	addi	s0,sp,16
     340:	40b2                	lw	ra,12(sp)
     342:	4422                	lw	s0,8(sp)
     344:	0141                	addi	sp,sp,16
     346:	8082                	ret

00000348 <__retarget_lock_release_recursive>:
     348:	1141                	addi	sp,sp,-16
     34a:	c422                	sw	s0,8(sp)
     34c:	c606                	sw	ra,12(sp)
     34e:	0800                	addi	s0,sp,16
     350:	40b2                	lw	ra,12(sp)
     352:	4422                	lw	s0,8(sp)
     354:	0141                	addi	sp,sp,16
     356:	8082                	ret

00000358 <strlen>:
     358:	1141                	addi	sp,sp,-16
     35a:	c422                	sw	s0,8(sp)
     35c:	c606                	sw	ra,12(sp)
     35e:	0800                	addi	s0,sp,16
     360:	00357793          	andi	a5,a0,3
     364:	872a                	mv	a4,a0
     366:	ebb9                	bnez	a5,3bc <strlen+0x64>
     368:	7f7f86b7          	lui	a3,0x7f7f8
     36c:	f7f68693          	addi	a3,a3,-129 # 7f7f7f7f <_eusrstack+0x5f7f2f7f>
     370:	55fd                	li	a1,-1
     372:	4310                	lw	a2,0(a4)
     374:	0711                	addi	a4,a4,4
     376:	00d677b3          	and	a5,a2,a3
     37a:	97b6                	add	a5,a5,a3
     37c:	8fd1                	or	a5,a5,a2
     37e:	8fd5                	or	a5,a5,a3
     380:	feb789e3          	beq	a5,a1,372 <strlen+0x1a>
     384:	ffc74683          	lbu	a3,-4(a4)
     388:	40a707b3          	sub	a5,a4,a0
     38c:	ffc78513          	addi	a0,a5,-4
     390:	ce81                	beqz	a3,3a8 <strlen+0x50>
     392:	ffd74683          	lbu	a3,-3(a4)
     396:	ffd78513          	addi	a0,a5,-3
     39a:	c699                	beqz	a3,3a8 <strlen+0x50>
     39c:	ffe74503          	lbu	a0,-2(a4)
     3a0:	00a03533          	snez	a0,a0
     3a4:	953e                	add	a0,a0,a5
     3a6:	1579                	addi	a0,a0,-2
     3a8:	40b2                	lw	ra,12(sp)
     3aa:	4422                	lw	s0,8(sp)
     3ac:	0141                	addi	sp,sp,16
     3ae:	4581                	li	a1,0
     3b0:	4601                	li	a2,0
     3b2:	4681                	li	a3,0
     3b4:	4701                	li	a4,0
     3b6:	4781                	li	a5,0
     3b8:	8082                	ret
     3ba:	d6dd                	beqz	a3,368 <strlen+0x10>
     3bc:	00074783          	lbu	a5,0(a4)
     3c0:	0705                	addi	a4,a4,1
     3c2:	00377693          	andi	a3,a4,3
     3c6:	fbf5                	bnez	a5,3ba <strlen+0x62>
     3c8:	8f09                	sub	a4,a4,a0
     3ca:	fff70513          	addi	a0,a4,-1
     3ce:	bfe9                	j	3a8 <strlen+0x50>

000003d0 <stdio_exit_handler>:
     3d0:	1141                	addi	sp,sp,-16
     3d2:	c422                	sw	s0,8(sp)
     3d4:	c606                	sw	ra,12(sp)
     3d6:	0800                	addi	s0,sp,16
     3d8:	4422                	lw	s0,8(sp)
     3da:	40b2                	lw	ra,12(sp)
     3dc:	20000637          	lui	a2,0x20000
     3e0:	6589                	lui	a1,0x2
     3e2:	20000537          	lui	a0,0x20000
     3e6:	14060613          	addi	a2,a2,320 # 20000140 <__sglue>
     3ea:	1ec58593          	addi	a1,a1,492 # 21ec <_fclose_r>
     3ee:	00050513          	mv	a0,a0
     3f2:	0141                	addi	sp,sp,16
     3f4:	7000006f          	j	af4 <_fwalk_sglue>

000003f8 <cleanup_stdio>:
     3f8:	1141                	addi	sp,sp,-16
     3fa:	c422                	sw	s0,8(sp)
     3fc:	c226                	sw	s1,4(sp)
     3fe:	c04a                	sw	s2,0(sp)
     400:	c606                	sw	ra,12(sp)
     402:	0800                	addi	s0,sp,16
     404:	414c                	lw	a1,4(a0)
     406:	83c18493          	addi	s1,gp,-1988 # 200005ac <__sf>
     40a:	892a                	mv	s2,a0
     40c:	00958463          	beq	a1,s1,414 <__stack_size+0x14>
     410:	5dd010ef          	jal	21ec <_fclose_r>
     414:	00892583          	lw	a1,8(s2)
     418:	06848793          	addi	a5,s1,104
     41c:	00f58563          	beq	a1,a5,426 <__stack_size+0x26>
     420:	854a                	mv	a0,s2
     422:	5cb010ef          	jal	21ec <_fclose_r>
     426:	00c92583          	lw	a1,12(s2)
     42a:	0d048493          	addi	s1,s1,208
     42e:	00958a63          	beq	a1,s1,442 <__stack_size+0x42>
     432:	4422                	lw	s0,8(sp)
     434:	40b2                	lw	ra,12(sp)
     436:	4492                	lw	s1,4(sp)
     438:	854a                	mv	a0,s2
     43a:	4902                	lw	s2,0(sp)
     43c:	0141                	addi	sp,sp,16
     43e:	5af0106f          	j	21ec <_fclose_r>
     442:	40b2                	lw	ra,12(sp)
     444:	4422                	lw	s0,8(sp)
     446:	4492                	lw	s1,4(sp)
     448:	4902                	lw	s2,0(sp)
     44a:	0141                	addi	sp,sp,16
     44c:	4501                	li	a0,0
     44e:	4581                	li	a1,0
     450:	4781                	li	a5,0
     452:	8082                	ret

00000454 <__fp_lock>:
     454:	51fc                	lw	a5,100(a1)
     456:	8b85                	andi	a5,a5,1
     458:	e791                	bnez	a5,464 <__fp_lock+0x10>
     45a:	00c5d783          	lhu	a5,12(a1)
     45e:	2007f793          	andi	a5,a5,512
     462:	c789                	beqz	a5,46c <__fp_lock+0x18>
     464:	4501                	li	a0,0
     466:	4581                	li	a1,0
     468:	4781                	li	a5,0
     46a:	8082                	ret
     46c:	1141                	addi	sp,sp,-16
     46e:	c422                	sw	s0,8(sp)
     470:	c606                	sw	ra,12(sp)
     472:	0800                	addi	s0,sp,16
     474:	4da8                	lw	a0,88(a1)
     476:	3579                	jal	304 <__retarget_lock_acquire_recursive>
     478:	40b2                	lw	ra,12(sp)
     47a:	4422                	lw	s0,8(sp)
     47c:	4501                	li	a0,0
     47e:	0141                	addi	sp,sp,16
     480:	4581                	li	a1,0
     482:	4781                	li	a5,0
     484:	8082                	ret

00000486 <__fp_unlock>:
     486:	51fc                	lw	a5,100(a1)
     488:	8b85                	andi	a5,a5,1
     48a:	e791                	bnez	a5,496 <__fp_unlock+0x10>
     48c:	00c5d783          	lhu	a5,12(a1)
     490:	2007f793          	andi	a5,a5,512
     494:	c789                	beqz	a5,49e <__fp_unlock+0x18>
     496:	4501                	li	a0,0
     498:	4581                	li	a1,0
     49a:	4781                	li	a5,0
     49c:	8082                	ret
     49e:	1141                	addi	sp,sp,-16
     4a0:	c422                	sw	s0,8(sp)
     4a2:	c606                	sw	ra,12(sp)
     4a4:	0800                	addi	s0,sp,16
     4a6:	4da8                	lw	a0,88(a1)
     4a8:	3545                	jal	348 <__retarget_lock_release_recursive>
     4aa:	40b2                	lw	ra,12(sp)
     4ac:	4422                	lw	s0,8(sp)
     4ae:	4501                	li	a0,0
     4b0:	0141                	addi	sp,sp,16
     4b2:	4581                	li	a1,0
     4b4:	4781                	li	a5,0
     4b6:	8082                	ret

000004b8 <global_stdio_init.part.0>:
     4b8:	1101                	addi	sp,sp,-32
     4ba:	ce06                	sw	ra,28(sp)
     4bc:	cc22                	sw	s0,24(sp)
     4be:	ca26                	sw	s1,20(sp)
     4c0:	c84a                	sw	s2,16(sp)
     4c2:	c64e                	sw	s3,12(sp)
     4c4:	c452                	sw	s4,8(sp)
     4c6:	c256                	sw	s5,4(sp)
     4c8:	1000                	addi	s0,sp,32
     4ca:	83c18493          	addi	s1,gp,-1988 # 200005ac <__sf>
     4ce:	4711                	li	a4,4
     4d0:	3d000793          	li	a5,976
     4d4:	c4d8                	sw	a4,12(s1)
     4d6:	4621                	li	a2,8
     4d8:	4581                	li	a1,0
     4da:	05c48513          	addi	a0,s1,92
     4de:	82f1a423          	sw	a5,-2008(gp) # 20000598 <__stdio_exit_handler>
     4e2:	0004a023          	sw	zero,0(s1)
     4e6:	0004a223          	sw	zero,4(s1)
     4ea:	0004a423          	sw	zero,8(s1)
     4ee:	0604a223          	sw	zero,100(s1)
     4f2:	0004a823          	sw	zero,16(s1)
     4f6:	0004aa23          	sw	zero,20(s1)
     4fa:	0004ac23          	sw	zero,24(s1)
     4fe:	6a85                	lui	s5,0x1
     500:	3db000ef          	jal	10da <memset>
     504:	6a05                	lui	s4,0x1
     506:	6985                	lui	s3,0x1
     508:	6905                	lui	s2,0x1
     50a:	b72a8a93          	addi	s5,s5,-1166 # b72 <__sread>
     50e:	bd6a0a13          	addi	s4,s4,-1066 # bd6 <__swrite>
     512:	c3c98993          	addi	s3,s3,-964 # c3c <__sseek>
     516:	c9890913          	addi	s2,s2,-872 # c98 <__sclose>
     51a:	05848513          	addi	a0,s1,88
     51e:	0354a023          	sw	s5,32(s1)
     522:	0344a223          	sw	s4,36(s1)
     526:	0334a423          	sw	s3,40(s1)
     52a:	0324a623          	sw	s2,44(s1)
     52e:	ccc4                	sw	s1,28(s1)
     530:	3b51                	jal	2c4 <__retarget_lock_init_recursive>
     532:	67c1                	lui	a5,0x10
     534:	07a5                	addi	a5,a5,9 # 10009 <_data_lma+0xc7b1>
     536:	4621                	li	a2,8
     538:	4581                	li	a1,0
     53a:	0c448513          	addi	a0,s1,196
     53e:	d8fc                	sw	a5,116(s1)
     540:	0604a423          	sw	zero,104(s1)
     544:	0604a623          	sw	zero,108(s1)
     548:	0604a823          	sw	zero,112(s1)
     54c:	0c04a623          	sw	zero,204(s1)
     550:	0604ac23          	sw	zero,120(s1)
     554:	0604ae23          	sw	zero,124(s1)
     558:	0804a023          	sw	zero,128(s1)
     55c:	37f000ef          	jal	10da <memset>
     560:	06848793          	addi	a5,s1,104
     564:	0c048513          	addi	a0,s1,192
     568:	08f4a223          	sw	a5,132(s1)
     56c:	0954a423          	sw	s5,136(s1)
     570:	0944a623          	sw	s4,140(s1)
     574:	0934a823          	sw	s3,144(s1)
     578:	0924aa23          	sw	s2,148(s1)
     57c:	33a1                	jal	2c4 <__retarget_lock_init_recursive>
     57e:	000207b7          	lui	a5,0x20
     582:	07c9                	addi	a5,a5,18 # 20012 <_data_lma+0x1c7ba>
     584:	12c48513          	addi	a0,s1,300
     588:	4621                	li	a2,8
     58a:	4581                	li	a1,0
     58c:	0cf4ae23          	sw	a5,220(s1)
     590:	0c04a823          	sw	zero,208(s1)
     594:	0c04aa23          	sw	zero,212(s1)
     598:	0c04ac23          	sw	zero,216(s1)
     59c:	1204aa23          	sw	zero,308(s1)
     5a0:	0e04a023          	sw	zero,224(s1)
     5a4:	0e04a223          	sw	zero,228(s1)
     5a8:	0e04a423          	sw	zero,232(s1)
     5ac:	32f000ef          	jal	10da <memset>
     5b0:	0d048793          	addi	a5,s1,208
     5b4:	4462                	lw	s0,24(sp)
     5b6:	0f54a823          	sw	s5,240(s1)
     5ba:	0f44aa23          	sw	s4,244(s1)
     5be:	0f34ac23          	sw	s3,248(s1)
     5c2:	0f24ae23          	sw	s2,252(s1)
     5c6:	40f2                	lw	ra,28(sp)
     5c8:	4942                	lw	s2,16(sp)
     5ca:	49b2                	lw	s3,12(sp)
     5cc:	4a22                	lw	s4,8(sp)
     5ce:	4a92                	lw	s5,4(sp)
     5d0:	0ef4a623          	sw	a5,236(s1)
     5d4:	12848513          	addi	a0,s1,296
     5d8:	44d2                	lw	s1,20(sp)
     5da:	6105                	addi	sp,sp,32
     5dc:	b1e5                	j	2c4 <__retarget_lock_init_recursive>

000005de <__sfp>:
     5de:	7179                	addi	sp,sp,-48
     5e0:	d04a                	sw	s2,32(sp)
     5e2:	d422                	sw	s0,40(sp)
     5e4:	ce4e                	sw	s3,28(sp)
     5e6:	d606                	sw	ra,44(sp)
     5e8:	d226                	sw	s1,36(sp)
     5ea:	1800                	addi	s0,sp,48
     5ec:	89aa                	mv	s3,a0
     5ee:	82418513          	addi	a0,gp,-2012 # 20000594 <__lock___sfp_recursive_mutex>
     5f2:	3b09                	jal	304 <__retarget_lock_acquire_recursive>
     5f4:	8281a783          	lw	a5,-2008(gp) # 20000598 <__stdio_exit_handler>
     5f8:	cfe9                	beqz	a5,6d2 <__sfp+0xf4>
     5fa:	20000837          	lui	a6,0x20000
     5fe:	14080813          	addi	a6,a6,320 # 20000140 <__sglue>
     602:	56fd                	li	a3,-1
     604:	00482783          	lw	a5,4(a6)
     608:	17fd                	addi	a5,a5,-1
     60a:	0807c063          	bltz	a5,68a <__sfp+0xac>
     60e:	00882483          	lw	s1,8(a6)
     612:	a029                	j	61c <__sfp+0x3e>
     614:	06848493          	addi	s1,s1,104
     618:	06d78963          	beq	a5,a3,68a <__sfp+0xac>
     61c:	00c49703          	lh	a4,12(s1)
     620:	17fd                	addi	a5,a5,-1
     622:	fb6d                	bnez	a4,614 <__sfp+0x36>
     624:	77c1                	lui	a5,0xffff0
     626:	0785                	addi	a5,a5,1 # ffff0001 <_eusrstack+0xdffeb001>
     628:	c4dc                	sw	a5,12(s1)
     62a:	05848513          	addi	a0,s1,88
     62e:	0604a223          	sw	zero,100(s1)
     632:	3949                	jal	2c4 <__retarget_lock_init_recursive>
     634:	82418513          	addi	a0,gp,-2012 # 20000594 <__lock___sfp_recursive_mutex>
     638:	3b01                	jal	348 <__retarget_lock_release_recursive>
     63a:	05c48513          	addi	a0,s1,92
     63e:	0004a023          	sw	zero,0(s1)
     642:	0004a423          	sw	zero,8(s1)
     646:	0004a223          	sw	zero,4(s1)
     64a:	0004a823          	sw	zero,16(s1)
     64e:	0004aa23          	sw	zero,20(s1)
     652:	0004ac23          	sw	zero,24(s1)
     656:	4621                	li	a2,8
     658:	4581                	li	a1,0
     65a:	281000ef          	jal	10da <memset>
     65e:	0204a823          	sw	zero,48(s1)
     662:	0204aa23          	sw	zero,52(s1)
     666:	0404a223          	sw	zero,68(s1)
     66a:	0404a423          	sw	zero,72(s1)
     66e:	50b2                	lw	ra,44(sp)
     670:	5422                	lw	s0,40(sp)
     672:	5902                	lw	s2,32(sp)
     674:	49f2                	lw	s3,28(sp)
     676:	8526                	mv	a0,s1
     678:	5492                	lw	s1,36(sp)
     67a:	6145                	addi	sp,sp,48
     67c:	4581                	li	a1,0
     67e:	4601                	li	a2,0
     680:	4681                	li	a3,0
     682:	4701                	li	a4,0
     684:	4781                	li	a5,0
     686:	4801                	li	a6,0
     688:	8082                	ret
     68a:	00082483          	lw	s1,0(a6)
     68e:	c099                	beqz	s1,694 <__sfp+0xb6>
     690:	8826                	mv	a6,s1
     692:	bf8d                	j	604 <__sfp+0x26>
     694:	1ac00593          	li	a1,428
     698:	854e                	mv	a0,s3
     69a:	fd042e23          	sw	a6,-36(s0)
     69e:	73f000ef          	jal	15dc <_malloc_r>
     6a2:	fdc42803          	lw	a6,-36(s0)
     6a6:	84aa                	mv	s1,a0
     6a8:	c51d                	beqz	a0,6d6 <__sfp+0xf8>
     6aa:	4791                	li	a5,4
     6ac:	c15c                	sw	a5,4(a0)
     6ae:	0531                	addi	a0,a0,12 # 2000000c <_impure_data+0xc>
     6b0:	0004a023          	sw	zero,0(s1)
     6b4:	c488                	sw	a0,8(s1)
     6b6:	1a000613          	li	a2,416
     6ba:	4581                	li	a1,0
     6bc:	fd042e23          	sw	a6,-36(s0)
     6c0:	21b000ef          	jal	10da <memset>
     6c4:	fdc42803          	lw	a6,-36(s0)
     6c8:	56fd                	li	a3,-1
     6ca:	00982023          	sw	s1,0(a6)
     6ce:	8826                	mv	a6,s1
     6d0:	bf15                	j	604 <__sfp+0x26>
     6d2:	33dd                	jal	4b8 <global_stdio_init.part.0>
     6d4:	b71d                	j	5fa <__sfp+0x1c>
     6d6:	00082023          	sw	zero,0(a6)
     6da:	82418513          	addi	a0,gp,-2012 # 20000594 <__lock___sfp_recursive_mutex>
     6de:	31ad                	jal	348 <__retarget_lock_release_recursive>
     6e0:	47b1                	li	a5,12
     6e2:	00f9a023          	sw	a5,0(s3)
     6e6:	b761                	j	66e <__sfp+0x90>

000006e8 <__sinit>:
     6e8:	1141                	addi	sp,sp,-16
     6ea:	c226                	sw	s1,4(sp)
     6ec:	c422                	sw	s0,8(sp)
     6ee:	c04a                	sw	s2,0(sp)
     6f0:	c606                	sw	ra,12(sp)
     6f2:	0800                	addi	s0,sp,16
     6f4:	892a                	mv	s2,a0
     6f6:	82418513          	addi	a0,gp,-2012 # 20000594 <__lock___sfp_recursive_mutex>
     6fa:	3129                	jal	304 <__retarget_lock_acquire_recursive>
     6fc:	03492783          	lw	a5,52(s2)
     700:	eb81                	bnez	a5,710 <__sinit+0x28>
     702:	8281a703          	lw	a4,-2008(gp) # 20000598 <__stdio_exit_handler>
     706:	3f800793          	li	a5,1016
     70a:	02f92a23          	sw	a5,52(s2)
     70e:	cb09                	beqz	a4,720 <__sinit+0x38>
     710:	4422                	lw	s0,8(sp)
     712:	40b2                	lw	ra,12(sp)
     714:	4902                	lw	s2,0(sp)
     716:	82418513          	addi	a0,gp,-2012 # 20000594 <__lock___sfp_recursive_mutex>
     71a:	4492                	lw	s1,4(sp)
     71c:	0141                	addi	sp,sp,16
     71e:	b12d                	j	348 <__retarget_lock_release_recursive>
     720:	3b61                	jal	4b8 <global_stdio_init.part.0>
     722:	4422                	lw	s0,8(sp)
     724:	40b2                	lw	ra,12(sp)
     726:	4902                	lw	s2,0(sp)
     728:	82418513          	addi	a0,gp,-2012 # 20000594 <__lock___sfp_recursive_mutex>
     72c:	4492                	lw	s1,4(sp)
     72e:	0141                	addi	sp,sp,16
     730:	b921                	j	348 <__retarget_lock_release_recursive>

00000732 <__sfp_lock_acquire>:
     732:	1141                	addi	sp,sp,-16
     734:	c422                	sw	s0,8(sp)
     736:	c606                	sw	ra,12(sp)
     738:	0800                	addi	s0,sp,16
     73a:	4422                	lw	s0,8(sp)
     73c:	40b2                	lw	ra,12(sp)
     73e:	82418513          	addi	a0,gp,-2012 # 20000594 <__lock___sfp_recursive_mutex>
     742:	0141                	addi	sp,sp,16
     744:	b6c1                	j	304 <__retarget_lock_acquire_recursive>

00000746 <__sfp_lock_release>:
     746:	1141                	addi	sp,sp,-16
     748:	c422                	sw	s0,8(sp)
     74a:	c606                	sw	ra,12(sp)
     74c:	0800                	addi	s0,sp,16
     74e:	4422                	lw	s0,8(sp)
     750:	40b2                	lw	ra,12(sp)
     752:	82418513          	addi	a0,gp,-2012 # 20000594 <__lock___sfp_recursive_mutex>
     756:	0141                	addi	sp,sp,16
     758:	bec5                	j	348 <__retarget_lock_release_recursive>

0000075a <__fp_lock_all>:
     75a:	1141                	addi	sp,sp,-16
     75c:	c422                	sw	s0,8(sp)
     75e:	c606                	sw	ra,12(sp)
     760:	0800                	addi	s0,sp,16
     762:	82418513          	addi	a0,gp,-2012 # 20000594 <__lock___sfp_recursive_mutex>
     766:	3e79                	jal	304 <__retarget_lock_acquire_recursive>
     768:	4422                	lw	s0,8(sp)
     76a:	40b2                	lw	ra,12(sp)
     76c:	20000637          	lui	a2,0x20000
     770:	14060613          	addi	a2,a2,320 # 20000140 <__sglue>
     774:	45400593          	li	a1,1108
     778:	4501                	li	a0,0
     77a:	0141                	addi	sp,sp,16
     77c:	aea5                	j	af4 <_fwalk_sglue>

0000077e <__fp_unlock_all>:
     77e:	1141                	addi	sp,sp,-16
     780:	20000637          	lui	a2,0x20000
     784:	c422                	sw	s0,8(sp)
     786:	c606                	sw	ra,12(sp)
     788:	0800                	addi	s0,sp,16
     78a:	14060613          	addi	a2,a2,320 # 20000140 <__sglue>
     78e:	48600593          	li	a1,1158
     792:	4501                	li	a0,0
     794:	2685                	jal	af4 <_fwalk_sglue>
     796:	4422                	lw	s0,8(sp)
     798:	40b2                	lw	ra,12(sp)
     79a:	82418513          	addi	a0,gp,-2012 # 20000594 <__lock___sfp_recursive_mutex>
     79e:	0141                	addi	sp,sp,16
     7a0:	b665                	j	348 <__retarget_lock_release_recursive>

000007a2 <__sfvwrite_r>:
     7a2:	461c                	lw	a5,8(a2)
     7a4:	1a078063          	beqz	a5,944 <__sfvwrite_r+0x1a2>
     7a8:	7139                	addi	sp,sp,-64
     7aa:	dc22                	sw	s0,56(sp)
     7ac:	da26                	sw	s1,52(sp)
     7ae:	d256                	sw	s5,36(sp)
     7b0:	d05a                	sw	s6,32(sp)
     7b2:	de06                	sw	ra,60(sp)
     7b4:	0080                	addi	s0,sp,64
     7b6:	00c59683          	lh	a3,12(a1)
     7ba:	84ae                	mv	s1,a1
     7bc:	8aaa                	mv	s5,a0
     7be:	0086f793          	andi	a5,a3,8
     7c2:	8b32                	mv	s6,a2
     7c4:	cfa5                	beqz	a5,83c <__sfvwrite_r+0x9a>
     7c6:	499c                	lw	a5,16(a1)
     7c8:	cbb5                	beqz	a5,83c <__sfvwrite_r+0x9a>
     7ca:	d84a                	sw	s2,48(sp)
     7cc:	d64e                	sw	s3,44(sp)
     7ce:	d452                	sw	s4,40(sp)
     7d0:	ce5e                	sw	s7,28(sp)
     7d2:	0026f793          	andi	a5,a3,2
     7d6:	000b2903          	lw	s2,0(s6)
     7da:	c3c9                	beqz	a5,85c <__sfvwrite_r+0xba>
     7dc:	80000bb7          	lui	s7,0x80000
     7e0:	c00b8b93          	addi	s7,s7,-1024 # 7ffffc00 <_eusrstack+0x5fffac00>
     7e4:	4a01                	li	s4,0
     7e6:	4981                	li	s3,0
     7e8:	8652                	mv	a2,s4
     7ea:	8556                	mv	a0,s5
     7ec:	14098663          	beqz	s3,938 <__sfvwrite_r+0x196>
     7f0:	86ce                	mv	a3,s3
     7f2:	013bf663          	bgeu	s7,s3,7fe <__sfvwrite_r+0x5c>
     7f6:	800006b7          	lui	a3,0x80000
     7fa:	c0068693          	addi	a3,a3,-1024 # 7ffffc00 <_eusrstack+0x5fffac00>
     7fe:	50dc                	lw	a5,36(s1)
     800:	4ccc                	lw	a1,28(s1)
     802:	9782                	jalr	a5
     804:	2ca05d63          	blez	a0,ade <__sfvwrite_r+0x33c>
     808:	008b2783          	lw	a5,8(s6)
     80c:	9a2a                	add	s4,s4,a0
     80e:	40a989b3          	sub	s3,s3,a0
     812:	8f89                	sub	a5,a5,a0
     814:	00fb2423          	sw	a5,8(s6)
     818:	fbe1                	bnez	a5,7e8 <__sfvwrite_r+0x46>
     81a:	5942                	lw	s2,48(sp)
     81c:	59b2                	lw	s3,44(sp)
     81e:	5a22                	lw	s4,40(sp)
     820:	4bf2                	lw	s7,28(sp)
     822:	4501                	li	a0,0
     824:	50f2                	lw	ra,60(sp)
     826:	5462                	lw	s0,56(sp)
     828:	54d2                	lw	s1,52(sp)
     82a:	5a92                	lw	s5,36(sp)
     82c:	5b02                	lw	s6,32(sp)
     82e:	6121                	addi	sp,sp,64
     830:	4581                	li	a1,0
     832:	4601                	li	a2,0
     834:	4681                	li	a3,0
     836:	4701                	li	a4,0
     838:	4781                	li	a5,0
     83a:	8082                	ret
     83c:	85a6                	mv	a1,s1
     83e:	8556                	mv	a0,s5
     840:	21b5                	jal	cac <__swsetup_r>
     842:	1c051363          	bnez	a0,a08 <__sfvwrite_r+0x266>
     846:	00c49683          	lh	a3,12(s1)
     84a:	d84a                	sw	s2,48(sp)
     84c:	d64e                	sw	s3,44(sp)
     84e:	d452                	sw	s4,40(sp)
     850:	ce5e                	sw	s7,28(sp)
     852:	0026f793          	andi	a5,a3,2
     856:	000b2903          	lw	s2,0(s6)
     85a:	f3c9                	bnez	a5,7dc <__sfvwrite_r+0x3a>
     85c:	cc62                	sw	s8,24(sp)
     85e:	ca66                	sw	s9,20(sp)
     860:	0016f793          	andi	a5,a3,1
     864:	e7fd                	bnez	a5,952 <__sfvwrite_r+0x1b0>
     866:	409c                	lw	a5,0(s1)
     868:	80000737          	lui	a4,0x80000
     86c:	fff70c93          	addi	s9,a4,-1 # 7fffffff <_eusrstack+0x5fffafff>
     870:	4b81                	li	s7,0
     872:	4a01                	li	s4,0
     874:	0a0a0c63          	beqz	s4,92c <__sfvwrite_r+0x18a>
     878:	2006f713          	andi	a4,a3,512
     87c:	0084a983          	lw	s3,8(s1)
     880:	853e                	mv	a0,a5
     882:	18070563          	beqz	a4,a0c <__sfvwrite_r+0x26a>
     886:	8c4e                	mv	s8,s3
     888:	1f3a6a63          	bltu	s4,s3,a7c <__sfvwrite_r+0x2da>
     88c:	4806f713          	andi	a4,a3,1152
     890:	cb35                	beqz	a4,904 <__sfvwrite_r+0x162>
     892:	48d0                	lw	a2,20(s1)
     894:	488c                	lw	a1,16(s1)
     896:	00161713          	slli	a4,a2,0x1
     89a:	9732                	add	a4,a4,a2
     89c:	01f75993          	srli	s3,a4,0x1f
     8a0:	40b78c33          	sub	s8,a5,a1
     8a4:	99ba                	add	s3,s3,a4
     8a6:	001c0793          	addi	a5,s8,1
     8aa:	4019d993          	srai	s3,s3,0x1
     8ae:	97d2                	add	a5,a5,s4
     8b0:	864e                	mv	a2,s3
     8b2:	00f9f463          	bgeu	s3,a5,8ba <__sfvwrite_r+0x118>
     8b6:	89be                	mv	s3,a5
     8b8:	863e                	mv	a2,a5
     8ba:	4006f693          	andi	a3,a3,1024
     8be:	1e068563          	beqz	a3,aa8 <__sfvwrite_r+0x306>
     8c2:	85b2                	mv	a1,a2
     8c4:	8556                	mv	a0,s5
     8c6:	517000ef          	jal	15dc <_malloc_r>
     8ca:	20050d63          	beqz	a0,ae4 <__sfvwrite_r+0x342>
     8ce:	488c                	lw	a1,16(s1)
     8d0:	8662                	mv	a2,s8
     8d2:	fca42623          	sw	a0,-52(s0)
     8d6:	0ad000ef          	jal	1182 <memcpy>
     8da:	00c4d783          	lhu	a5,12(s1)
     8de:	fcc42703          	lw	a4,-52(s0)
     8e2:	b7f7f793          	andi	a5,a5,-1153
     8e6:	0807e793          	ori	a5,a5,128
     8ea:	00f49623          	sh	a5,12(s1)
     8ee:	418987b3          	sub	a5,s3,s8
     8f2:	01870533          	add	a0,a4,s8
     8f6:	0134aa23          	sw	s3,20(s1)
     8fa:	c898                	sw	a4,16(s1)
     8fc:	c088                	sw	a0,0(s1)
     8fe:	c49c                	sw	a5,8(s1)
     900:	89d2                	mv	s3,s4
     902:	8c52                	mv	s8,s4
     904:	85de                	mv	a1,s7
     906:	8662                	mv	a2,s8
     908:	25c9                	jal	fca <memmove>
     90a:	4498                	lw	a4,8(s1)
     90c:	409c                	lw	a5,0(s1)
     90e:	41370733          	sub	a4,a4,s3
     912:	c498                	sw	a4,8(s1)
     914:	008b2703          	lw	a4,8(s6)
     918:	97e2                	add	a5,a5,s8
     91a:	c09c                	sw	a5,0(s1)
     91c:	41470733          	sub	a4,a4,s4
     920:	00eb2423          	sw	a4,8(s6)
     924:	1a070a63          	beqz	a4,ad8 <__sfvwrite_r+0x336>
     928:	00c49683          	lh	a3,12(s1)
     92c:	00092b83          	lw	s7,0(s2)
     930:	00492a03          	lw	s4,4(s2)
     934:	0921                	addi	s2,s2,8
     936:	bf3d                	j	874 <__sfvwrite_r+0xd2>
     938:	00092a03          	lw	s4,0(s2)
     93c:	00492983          	lw	s3,4(s2)
     940:	0921                	addi	s2,s2,8
     942:	b55d                	j	7e8 <__sfvwrite_r+0x46>
     944:	4501                	li	a0,0
     946:	4581                	li	a1,0
     948:	4601                	li	a2,0
     94a:	4681                	li	a3,0
     94c:	4701                	li	a4,0
     94e:	4781                	li	a5,0
     950:	8082                	ret
     952:	4b81                	li	s7,0
     954:	4c01                	li	s8,0
     956:	4501                	li	a0,0
     958:	4c81                	li	s9,0
     95a:	040b8e63          	beqz	s7,9b6 <__sfvwrite_r+0x214>
     95e:	c525                	beqz	a0,9c6 <__sfvwrite_r+0x224>
     960:	87e2                	mv	a5,s8
     962:	8a5e                	mv	s4,s7
     964:	0177f363          	bgeu	a5,s7,96a <__sfvwrite_r+0x1c8>
     968:	8a3e                	mv	s4,a5
     96a:	48d4                	lw	a3,20(s1)
     96c:	0084a983          	lw	s3,8(s1)
     970:	4088                	lw	a0,0(s1)
     972:	489c                	lw	a5,16(s1)
     974:	99b6                	add	s3,s3,a3
     976:	00a7f463          	bgeu	a5,a0,97e <__sfvwrite_r+0x1dc>
     97a:	0749c063          	blt	s3,s4,9da <__sfvwrite_r+0x238>
     97e:	10da4963          	blt	s4,a3,a90 <__sfvwrite_r+0x2ee>
     982:	50dc                	lw	a5,36(s1)
     984:	4ccc                	lw	a1,28(s1)
     986:	8666                	mv	a2,s9
     988:	8556                	mv	a0,s5
     98a:	9782                	jalr	a5
     98c:	89aa                	mv	s3,a0
     98e:	06a05163          	blez	a0,9f0 <__sfvwrite_r+0x24e>
     992:	413c0c33          	sub	s8,s8,s3
     996:	4505                	li	a0,1
     998:	0e0c0563          	beqz	s8,a82 <__sfvwrite_r+0x2e0>
     99c:	008b2783          	lw	a5,8(s6)
     9a0:	413787b3          	sub	a5,a5,s3
     9a4:	00fb2423          	sw	a5,8(s6)
     9a8:	12078863          	beqz	a5,ad8 <__sfvwrite_r+0x336>
     9ac:	413b8bb3          	sub	s7,s7,s3
     9b0:	9cce                	add	s9,s9,s3
     9b2:	fa0b96e3          	bnez	s7,95e <__sfvwrite_r+0x1bc>
     9b6:	00492b83          	lw	s7,4(s2)
     9ba:	87ca                	mv	a5,s2
     9bc:	0921                	addi	s2,s2,8
     9be:	fe0b8ce3          	beqz	s7,9b6 <__sfvwrite_r+0x214>
     9c2:	0007ac83          	lw	s9,0(a5)
     9c6:	865e                	mv	a2,s7
     9c8:	45a9                	li	a1,10
     9ca:	8566                	mv	a0,s9
     9cc:	2edd                	jal	dc2 <memchr>
     9ce:	10050163          	beqz	a0,ad0 <__sfvwrite_r+0x32e>
     9d2:	0505                	addi	a0,a0,1
     9d4:	41950c33          	sub	s8,a0,s9
     9d8:	b761                	j	960 <__sfvwrite_r+0x1be>
     9da:	85e6                	mv	a1,s9
     9dc:	864e                	mv	a2,s3
     9de:	23f5                	jal	fca <memmove>
     9e0:	409c                	lw	a5,0(s1)
     9e2:	85a6                	mv	a1,s1
     9e4:	8556                	mv	a0,s5
     9e6:	97ce                	add	a5,a5,s3
     9e8:	c09c                	sw	a5,0(s1)
     9ea:	2d5010ef          	jal	24be <_fflush_r>
     9ee:	d155                	beqz	a0,992 <__sfvwrite_r+0x1f0>
     9f0:	00c49783          	lh	a5,12(s1)
     9f4:	4c62                	lw	s8,24(sp)
     9f6:	4cd2                	lw	s9,20(sp)
     9f8:	5942                	lw	s2,48(sp)
     9fa:	59b2                	lw	s3,44(sp)
     9fc:	5a22                	lw	s4,40(sp)
     9fe:	4bf2                	lw	s7,28(sp)
     a00:	0407e793          	ori	a5,a5,64
     a04:	00f49623          	sh	a5,12(s1)
     a08:	557d                	li	a0,-1
     a0a:	bd29                	j	824 <__sfvwrite_r+0x82>
     a0c:	4898                	lw	a4,16(s1)
     a0e:	04f76263          	bltu	a4,a5,a52 <__sfvwrite_r+0x2b0>
     a12:	48d8                	lw	a4,20(s1)
     a14:	02ea6f63          	bltu	s4,a4,a52 <__sfvwrite_r+0x2b0>
     a18:	86d2                	mv	a3,s4
     a1a:	014cf363          	bgeu	s9,s4,a20 <__sfvwrite_r+0x27e>
     a1e:	86e6                	mv	a3,s9
     a20:	02e6e733          	rem	a4,a3,a4
     a24:	50dc                	lw	a5,36(s1)
     a26:	4ccc                	lw	a1,28(s1)
     a28:	865e                	mv	a2,s7
     a2a:	8556                	mv	a0,s5
     a2c:	8e99                	sub	a3,a3,a4
     a2e:	9782                	jalr	a5
     a30:	fca050e3          	blez	a0,9f0 <__sfvwrite_r+0x24e>
     a34:	89aa                	mv	s3,a0
     a36:	008b2783          	lw	a5,8(s6)
     a3a:	413a0a33          	sub	s4,s4,s3
     a3e:	413787b3          	sub	a5,a5,s3
     a42:	00fb2423          	sw	a5,8(s6)
     a46:	cbc9                	beqz	a5,ad8 <__sfvwrite_r+0x336>
     a48:	00c49683          	lh	a3,12(s1)
     a4c:	409c                	lw	a5,0(s1)
     a4e:	9bce                	add	s7,s7,s3
     a50:	b515                	j	874 <__sfvwrite_r+0xd2>
     a52:	013a7363          	bgeu	s4,s3,a58 <__sfvwrite_r+0x2b6>
     a56:	89d2                	mv	s3,s4
     a58:	853e                	mv	a0,a5
     a5a:	864e                	mv	a2,s3
     a5c:	85de                	mv	a1,s7
     a5e:	23b5                	jal	fca <memmove>
     a60:	409c                	lw	a5,0(s1)
     a62:	4498                	lw	a4,8(s1)
     a64:	97ce                	add	a5,a5,s3
     a66:	41370733          	sub	a4,a4,s3
     a6a:	c09c                	sw	a5,0(s1)
     a6c:	c498                	sw	a4,8(s1)
     a6e:	f761                	bnez	a4,a36 <__sfvwrite_r+0x294>
     a70:	85a6                	mv	a1,s1
     a72:	8556                	mv	a0,s5
     a74:	24b010ef          	jal	24be <_fflush_r>
     a78:	dd5d                	beqz	a0,a36 <__sfvwrite_r+0x294>
     a7a:	bf9d                	j	9f0 <__sfvwrite_r+0x24e>
     a7c:	89d2                	mv	s3,s4
     a7e:	8c52                	mv	s8,s4
     a80:	b551                	j	904 <__sfvwrite_r+0x162>
     a82:	85a6                	mv	a1,s1
     a84:	8556                	mv	a0,s5
     a86:	239010ef          	jal	24be <_fflush_r>
     a8a:	f00509e3          	beqz	a0,99c <__sfvwrite_r+0x1fa>
     a8e:	b78d                	j	9f0 <__sfvwrite_r+0x24e>
     a90:	8652                	mv	a2,s4
     a92:	85e6                	mv	a1,s9
     a94:	2b1d                	jal	fca <memmove>
     a96:	4498                	lw	a4,8(s1)
     a98:	409c                	lw	a5,0(s1)
     a9a:	89d2                	mv	s3,s4
     a9c:	41470733          	sub	a4,a4,s4
     aa0:	97d2                	add	a5,a5,s4
     aa2:	c498                	sw	a4,8(s1)
     aa4:	c09c                	sw	a5,0(s1)
     aa6:	b5f5                	j	992 <__sfvwrite_r+0x1f0>
     aa8:	8556                	mv	a0,s5
     aaa:	264010ef          	jal	1d0e <_realloc_r>
     aae:	872a                	mv	a4,a0
     ab0:	e2051fe3          	bnez	a0,8ee <__sfvwrite_r+0x14c>
     ab4:	488c                	lw	a1,16(s1)
     ab6:	8556                	mv	a0,s5
     ab8:	0e1000ef          	jal	1398 <_free_r>
     abc:	00c4d783          	lhu	a5,12(s1)
     ac0:	4731                	li	a4,12
     ac2:	4c62                	lw	s8,24(sp)
     ac4:	4cd2                	lw	s9,20(sp)
     ac6:	00eaa023          	sw	a4,0(s5)
     aca:	f7f7f793          	andi	a5,a5,-129
     ace:	b72d                	j	9f8 <__sfvwrite_r+0x256>
     ad0:	001b8793          	addi	a5,s7,1
     ad4:	8c3e                	mv	s8,a5
     ad6:	b571                	j	962 <__sfvwrite_r+0x1c0>
     ad8:	4c62                	lw	s8,24(sp)
     ada:	4cd2                	lw	s9,20(sp)
     adc:	bb3d                	j	81a <__sfvwrite_r+0x78>
     ade:	00c49783          	lh	a5,12(s1)
     ae2:	bf19                	j	9f8 <__sfvwrite_r+0x256>
     ae4:	47b1                	li	a5,12
     ae6:	00faa023          	sw	a5,0(s5)
     aea:	4c62                	lw	s8,24(sp)
     aec:	00c49783          	lh	a5,12(s1)
     af0:	4cd2                	lw	s9,20(sp)
     af2:	b719                	j	9f8 <__sfvwrite_r+0x256>

00000af4 <_fwalk_sglue>:
     af4:	7179                	addi	sp,sp,-48
     af6:	d422                	sw	s0,40(sp)
     af8:	ce4e                	sw	s3,28(sp)
     afa:	cc52                	sw	s4,24(sp)
     afc:	ca56                	sw	s5,20(sp)
     afe:	c85a                	sw	s6,16(sp)
     b00:	c65e                	sw	s7,12(sp)
     b02:	c462                	sw	s8,8(sp)
     b04:	d606                	sw	ra,44(sp)
     b06:	d226                	sw	s1,36(sp)
     b08:	d04a                	sw	s2,32(sp)
     b0a:	1800                	addi	s0,sp,48
     b0c:	8b32                	mv	s6,a2
     b0e:	8baa                	mv	s7,a0
     b10:	8c2e                	mv	s8,a1
     b12:	4a81                	li	s5,0
     b14:	4a05                	li	s4,1
     b16:	59fd                	li	s3,-1
     b18:	004b2903          	lw	s2,4(s6)
     b1c:	197d                	addi	s2,s2,-1
     b1e:	02094663          	bltz	s2,b4a <_fwalk_sglue+0x56>
     b22:	008b2483          	lw	s1,8(s6)
     b26:	00c4d783          	lhu	a5,12(s1)
     b2a:	00fa7b63          	bgeu	s4,a5,b40 <_fwalk_sglue+0x4c>
     b2e:	00e49783          	lh	a5,14(s1)
     b32:	85a6                	mv	a1,s1
     b34:	855e                	mv	a0,s7
     b36:	01378563          	beq	a5,s3,b40 <_fwalk_sglue+0x4c>
     b3a:	9c02                	jalr	s8
     b3c:	00aaeab3          	or	s5,s5,a0
     b40:	197d                	addi	s2,s2,-1
     b42:	06848493          	addi	s1,s1,104
     b46:	ff3910e3          	bne	s2,s3,b26 <_fwalk_sglue+0x32>
     b4a:	000b2b03          	lw	s6,0(s6)
     b4e:	fc0b15e3          	bnez	s6,b18 <_fwalk_sglue+0x24>
     b52:	50b2                	lw	ra,44(sp)
     b54:	5422                	lw	s0,40(sp)
     b56:	5492                	lw	s1,36(sp)
     b58:	5902                	lw	s2,32(sp)
     b5a:	49f2                	lw	s3,28(sp)
     b5c:	4a62                	lw	s4,24(sp)
     b5e:	4b42                	lw	s6,16(sp)
     b60:	4bb2                	lw	s7,12(sp)
     b62:	4c22                	lw	s8,8(sp)
     b64:	8556                	mv	a0,s5
     b66:	4ad2                	lw	s5,20(sp)
     b68:	6145                	addi	sp,sp,48
     b6a:	4581                	li	a1,0
     b6c:	4601                	li	a2,0
     b6e:	4781                	li	a5,0
     b70:	8082                	ret

00000b72 <__sread>:
     b72:	1141                	addi	sp,sp,-16
     b74:	c422                	sw	s0,8(sp)
     b76:	c226                	sw	s1,4(sp)
     b78:	c606                	sw	ra,12(sp)
     b7a:	0800                	addi	s0,sp,16
     b7c:	84ae                	mv	s1,a1
     b7e:	00e59583          	lh	a1,14(a1)
     b82:	2e51                	jal	f16 <_read_r>
     b84:	00054f63          	bltz	a0,ba2 <__sread+0x30>
     b88:	48bc                	lw	a5,80(s1)
     b8a:	40b2                	lw	ra,12(sp)
     b8c:	4422                	lw	s0,8(sp)
     b8e:	97aa                	add	a5,a5,a0
     b90:	c8bc                	sw	a5,80(s1)
     b92:	4492                	lw	s1,4(sp)
     b94:	0141                	addi	sp,sp,16
     b96:	4581                	li	a1,0
     b98:	4601                	li	a2,0
     b9a:	4681                	li	a3,0
     b9c:	4701                	li	a4,0
     b9e:	4781                	li	a5,0
     ba0:	8082                	ret
     ba2:	00c4d783          	lhu	a5,12(s1)
     ba6:	777d                	lui	a4,0xfffff
     ba8:	40b2                	lw	ra,12(sp)
     baa:	4422                	lw	s0,8(sp)
     bac:	177d                	addi	a4,a4,-1 # ffffefff <_eusrstack+0xdfff9fff>
     bae:	8ff9                	and	a5,a5,a4
     bb0:	00f49623          	sh	a5,12(s1)
     bb4:	4492                	lw	s1,4(sp)
     bb6:	0141                	addi	sp,sp,16
     bb8:	4581                	li	a1,0
     bba:	4601                	li	a2,0
     bbc:	4681                	li	a3,0
     bbe:	4701                	li	a4,0
     bc0:	4781                	li	a5,0
     bc2:	8082                	ret

00000bc4 <__seofread>:
     bc4:	1141                	addi	sp,sp,-16
     bc6:	c422                	sw	s0,8(sp)
     bc8:	c606                	sw	ra,12(sp)
     bca:	0800                	addi	s0,sp,16
     bcc:	40b2                	lw	ra,12(sp)
     bce:	4422                	lw	s0,8(sp)
     bd0:	4501                	li	a0,0
     bd2:	0141                	addi	sp,sp,16
     bd4:	8082                	ret

00000bd6 <__swrite>:
     bd6:	1101                	addi	sp,sp,-32
     bd8:	cc22                	sw	s0,24(sp)
     bda:	ce06                	sw	ra,28(sp)
     bdc:	1000                	addi	s0,sp,32
     bde:	00c59783          	lh	a5,12(a1)
     be2:	8336                	mv	t1,a3
     be4:	872e                	mv	a4,a1
     be6:	1007f693          	andi	a3,a5,256
     bea:	88b2                	mv	a7,a2
     bec:	882a                	mv	a6,a0
     bee:	ee99                	bnez	a3,c0c <__swrite+0x36>
     bf0:	76fd                	lui	a3,0xfffff
     bf2:	4462                	lw	s0,24(sp)
     bf4:	16fd                	addi	a3,a3,-1 # ffffefff <_eusrstack+0xdfff9fff>
     bf6:	40f2                	lw	ra,28(sp)
     bf8:	8ff5                	and	a5,a5,a3
     bfa:	00e71583          	lh	a1,14(a4)
     bfe:	00f71623          	sh	a5,12(a4)
     c02:	869a                	mv	a3,t1
     c04:	8646                	mv	a2,a7
     c06:	8542                	mv	a0,a6
     c08:	6105                	addi	sp,sp,32
     c0a:	a69d                	j	f70 <_write_r>
     c0c:	00e59583          	lh	a1,14(a1)
     c10:	fec42223          	sw	a2,-28(s0)
     c14:	4689                	li	a3,2
     c16:	4601                	li	a2,0
     c18:	fe642023          	sw	t1,-32(s0)
     c1c:	fee42623          	sw	a4,-20(s0)
     c20:	fea42423          	sw	a0,-24(s0)
     c24:	2c61                	jal	ebc <_lseek_r>
     c26:	fec42703          	lw	a4,-20(s0)
     c2a:	fe042303          	lw	t1,-32(s0)
     c2e:	fe442883          	lw	a7,-28(s0)
     c32:	00c71783          	lh	a5,12(a4)
     c36:	fe842803          	lw	a6,-24(s0)
     c3a:	bf5d                	j	bf0 <__swrite+0x1a>

00000c3c <__sseek>:
     c3c:	1141                	addi	sp,sp,-16
     c3e:	c422                	sw	s0,8(sp)
     c40:	c226                	sw	s1,4(sp)
     c42:	c606                	sw	ra,12(sp)
     c44:	0800                	addi	s0,sp,16
     c46:	84ae                	mv	s1,a1
     c48:	00e59583          	lh	a1,14(a1)
     c4c:	2c85                	jal	ebc <_lseek_r>
     c4e:	577d                	li	a4,-1
     c50:	00c49783          	lh	a5,12(s1)
     c54:	02e50163          	beq	a0,a4,c76 <__sseek+0x3a>
     c58:	40b2                	lw	ra,12(sp)
     c5a:	4422                	lw	s0,8(sp)
     c5c:	6705                	lui	a4,0x1
     c5e:	8fd9                	or	a5,a5,a4
     c60:	c8a8                	sw	a0,80(s1)
     c62:	00f49623          	sh	a5,12(s1)
     c66:	4492                	lw	s1,4(sp)
     c68:	0141                	addi	sp,sp,16
     c6a:	4581                	li	a1,0
     c6c:	4601                	li	a2,0
     c6e:	4681                	li	a3,0
     c70:	4701                	li	a4,0
     c72:	4781                	li	a5,0
     c74:	8082                	ret
     c76:	80050713          	addi	a4,a0,-2048
     c7a:	40b2                	lw	ra,12(sp)
     c7c:	4422                	lw	s0,8(sp)
     c7e:	80070713          	addi	a4,a4,-2048 # 800 <__sfvwrite_r+0x5e>
     c82:	8ff9                	and	a5,a5,a4
     c84:	00f49623          	sh	a5,12(s1)
     c88:	4492                	lw	s1,4(sp)
     c8a:	0141                	addi	sp,sp,16
     c8c:	4581                	li	a1,0
     c8e:	4601                	li	a2,0
     c90:	4681                	li	a3,0
     c92:	4701                	li	a4,0
     c94:	4781                	li	a5,0
     c96:	8082                	ret

00000c98 <__sclose>:
     c98:	1141                	addi	sp,sp,-16
     c9a:	c422                	sw	s0,8(sp)
     c9c:	c606                	sw	ra,12(sp)
     c9e:	0800                	addi	s0,sp,16
     ca0:	4422                	lw	s0,8(sp)
     ca2:	40b2                	lw	ra,12(sp)
     ca4:	00e59583          	lh	a1,14(a1)
     ca8:	0141                	addi	sp,sp,16
     caa:	a2d9                	j	e70 <_close_r>

00000cac <__swsetup_r>:
     cac:	1101                	addi	sp,sp,-32
     cae:	cc22                	sw	s0,24(sp)
     cb0:	200007b7          	lui	a5,0x20000
     cb4:	ce06                	sw	ra,28(sp)
     cb6:	1000                	addi	s0,sp,32
     cb8:	5647a703          	lw	a4,1380(a5) # 20000564 <_impure_ptr>
     cbc:	862a                	mv	a2,a0
     cbe:	87ae                	mv	a5,a1
     cc0:	c319                	beqz	a4,cc6 <__swsetup_r+0x1a>
     cc2:	5b54                	lw	a3,52(a4)
     cc4:	caf9                	beqz	a3,d9a <__swsetup_r+0xee>
     cc6:	00c79703          	lh	a4,12(a5)
     cca:	00877693          	andi	a3,a4,8
     cce:	ca8d                	beqz	a3,d00 <__swsetup_r+0x54>
     cd0:	4b94                	lw	a3,16(a5)
     cd2:	c2b9                	beqz	a3,d18 <__swsetup_r+0x6c>
     cd4:	00c79703          	lh	a4,12(a5)
     cd8:	00177613          	andi	a2,a4,1
     cdc:	c23d                	beqz	a2,d42 <__swsetup_r+0x96>
     cde:	4bd0                	lw	a2,20(a5)
     ce0:	0007a423          	sw	zero,8(a5)
     ce4:	4501                	li	a0,0
     ce6:	40c00633          	neg	a2,a2
     cea:	cf90                	sw	a2,24(a5)
     cec:	c2bd                	beqz	a3,d52 <__swsetup_r+0xa6>
     cee:	40f2                	lw	ra,28(sp)
     cf0:	4462                	lw	s0,24(sp)
     cf2:	6105                	addi	sp,sp,32
     cf4:	4581                	li	a1,0
     cf6:	4601                	li	a2,0
     cf8:	4681                	li	a3,0
     cfa:	4701                	li	a4,0
     cfc:	4781                	li	a5,0
     cfe:	8082                	ret
     d00:	01077693          	andi	a3,a4,16
     d04:	c6dd                	beqz	a3,db2 <__swsetup_r+0x106>
     d06:	00477693          	andi	a3,a4,4
     d0a:	eea9                	bnez	a3,d64 <__swsetup_r+0xb8>
     d0c:	4b94                	lw	a3,16(a5)
     d0e:	00876713          	ori	a4,a4,8
     d12:	00e79623          	sh	a4,12(a5)
     d16:	fedd                	bnez	a3,cd4 <__swsetup_r+0x28>
     d18:	47d8                	lw	a4,12(a5)
     d1a:	20000593          	li	a1,512
     d1e:	28077713          	andi	a4,a4,640
     d22:	fab709e3          	beq	a4,a1,cd4 <__swsetup_r+0x28>
     d26:	8532                	mv	a0,a2
     d28:	85be                	mv	a1,a5
     d2a:	fef42623          	sw	a5,-20(s0)
     d2e:	0ed010ef          	jal	261a <__smakebuf_r>
     d32:	fec42783          	lw	a5,-20(s0)
     d36:	00c79703          	lh	a4,12(a5)
     d3a:	4b94                	lw	a3,16(a5)
     d3c:	00177613          	andi	a2,a4,1
     d40:	fe59                	bnez	a2,cde <__swsetup_r+0x32>
     d42:	00277613          	andi	a2,a4,2
     d46:	4581                	li	a1,0
     d48:	e211                	bnez	a2,d4c <__swsetup_r+0xa0>
     d4a:	4bcc                	lw	a1,20(a5)
     d4c:	c78c                	sw	a1,8(a5)
     d4e:	4501                	li	a0,0
     d50:	fed9                	bnez	a3,cee <__swsetup_r+0x42>
     d52:	08077693          	andi	a3,a4,128
     d56:	dec1                	beqz	a3,cee <__swsetup_r+0x42>
     d58:	04076713          	ori	a4,a4,64
     d5c:	00e79623          	sh	a4,12(a5)
     d60:	557d                	li	a0,-1
     d62:	b771                	j	cee <__swsetup_r+0x42>
     d64:	5b8c                	lw	a1,48(a5)
     d66:	c19d                	beqz	a1,d8c <__swsetup_r+0xe0>
     d68:	04078693          	addi	a3,a5,64
     d6c:	00d58e63          	beq	a1,a3,d88 <__swsetup_r+0xdc>
     d70:	8532                	mv	a0,a2
     d72:	fef42423          	sw	a5,-24(s0)
     d76:	fec42623          	sw	a2,-20(s0)
     d7a:	2d39                	jal	1398 <_free_r>
     d7c:	fe842783          	lw	a5,-24(s0)
     d80:	fec42603          	lw	a2,-20(s0)
     d84:	00c79703          	lh	a4,12(a5)
     d88:	0207a823          	sw	zero,48(a5)
     d8c:	4b94                	lw	a3,16(a5)
     d8e:	fdb77713          	andi	a4,a4,-37
     d92:	0007a223          	sw	zero,4(a5)
     d96:	c394                	sw	a3,0(a5)
     d98:	bf9d                	j	d0e <__swsetup_r+0x62>
     d9a:	fea42623          	sw	a0,-20(s0)
     d9e:	853a                	mv	a0,a4
     da0:	feb42423          	sw	a1,-24(s0)
     da4:	945ff0ef          	jal	6e8 <__sinit>
     da8:	fe842783          	lw	a5,-24(s0)
     dac:	fec42603          	lw	a2,-20(s0)
     db0:	bf19                	j	cc6 <__swsetup_r+0x1a>
     db2:	46a5                	li	a3,9
     db4:	04076713          	ori	a4,a4,64
     db8:	c214                	sw	a3,0(a2)
     dba:	00e79623          	sh	a4,12(a5)
     dbe:	557d                	li	a0,-1
     dc0:	b73d                	j	cee <__swsetup_r+0x42>

00000dc2 <memchr>:
     dc2:	1141                	addi	sp,sp,-16
     dc4:	c422                	sw	s0,8(sp)
     dc6:	c606                	sw	ra,12(sp)
     dc8:	0800                	addi	s0,sp,16
     dca:	00357793          	andi	a5,a0,3
     dce:	0ff5f713          	zext.b	a4,a1
     dd2:	cb99                	beqz	a5,de8 <memchr+0x26>
     dd4:	c249                	beqz	a2,e56 <memchr+0x94>
     dd6:	00054783          	lbu	a5,0(a0)
     dda:	167d                	addi	a2,a2,-1
     ddc:	06e78163          	beq	a5,a4,e3e <memchr+0x7c>
     de0:	0505                	addi	a0,a0,1
     de2:	00357793          	andi	a5,a0,3
     de6:	f7fd                	bnez	a5,dd4 <memchr+0x12>
     de8:	480d                	li	a6,3
     dea:	04c87063          	bgeu	a6,a2,e2a <memchr+0x68>
     dee:	0ff5f593          	zext.b	a1,a1
     df2:	00859793          	slli	a5,a1,0x8
     df6:	97ae                	add	a5,a5,a1
     df8:	01079313          	slli	t1,a5,0x10
     dfc:	feff08b7          	lui	a7,0xfeff0
     e00:	808085b7          	lui	a1,0x80808
     e04:	933e                	add	t1,t1,a5
     e06:	eff88893          	addi	a7,a7,-257 # fefefeff <_eusrstack+0xdefeaeff>
     e0a:	08058593          	addi	a1,a1,128 # 80808080 <_eusrstack+0x60803080>
     e0e:	411c                	lw	a5,0(a0)
     e10:	00f347b3          	xor	a5,t1,a5
     e14:	011786b3          	add	a3,a5,a7
     e18:	fff7c793          	not	a5,a5
     e1c:	8ff5                	and	a5,a5,a3
     e1e:	8fed                	and	a5,a5,a1
     e20:	e791                	bnez	a5,e2c <memchr+0x6a>
     e22:	1671                	addi	a2,a2,-4
     e24:	0511                	addi	a0,a0,4
     e26:	fec864e3          	bltu	a6,a2,e0e <memchr+0x4c>
     e2a:	c615                	beqz	a2,e56 <memchr+0x94>
     e2c:	962a                	add	a2,a2,a0
     e2e:	a021                	j	e36 <memchr+0x74>
     e30:	0505                	addi	a0,a0,1
     e32:	02c50263          	beq	a0,a2,e56 <memchr+0x94>
     e36:	00054783          	lbu	a5,0(a0)
     e3a:	fee79be3          	bne	a5,a4,e30 <memchr+0x6e>
     e3e:	40b2                	lw	ra,12(sp)
     e40:	4422                	lw	s0,8(sp)
     e42:	0141                	addi	sp,sp,16
     e44:	4301                	li	t1,0
     e46:	4581                	li	a1,0
     e48:	4601                	li	a2,0
     e4a:	4681                	li	a3,0
     e4c:	4701                	li	a4,0
     e4e:	4781                	li	a5,0
     e50:	4801                	li	a6,0
     e52:	4881                	li	a7,0
     e54:	8082                	ret
     e56:	40b2                	lw	ra,12(sp)
     e58:	4422                	lw	s0,8(sp)
     e5a:	4501                	li	a0,0
     e5c:	0141                	addi	sp,sp,16
     e5e:	4301                	li	t1,0
     e60:	4581                	li	a1,0
     e62:	4601                	li	a2,0
     e64:	4681                	li	a3,0
     e66:	4701                	li	a4,0
     e68:	4781                	li	a5,0
     e6a:	4801                	li	a6,0
     e6c:	4881                	li	a7,0
     e6e:	8082                	ret

00000e70 <_close_r>:
     e70:	1141                	addi	sp,sp,-16
     e72:	c422                	sw	s0,8(sp)
     e74:	c226                	sw	s1,4(sp)
     e76:	c04a                	sw	s2,0(sp)
     e78:	c606                	sw	ra,12(sp)
     e7a:	0800                	addi	s0,sp,16
     e7c:	892a                	mv	s2,a0
     e7e:	852e                	mv	a0,a1
     e80:	8201a623          	sw	zero,-2004(gp) # 2000059c <errno>
     e84:	295010ef          	jal	2918 <_close>
     e88:	57fd                	li	a5,-1
     e8a:	00f50b63          	beq	a0,a5,ea0 <_close_r+0x30>
     e8e:	40b2                	lw	ra,12(sp)
     e90:	4422                	lw	s0,8(sp)
     e92:	4492                	lw	s1,4(sp)
     e94:	4902                	lw	s2,0(sp)
     e96:	0141                	addi	sp,sp,16
     e98:	4581                	li	a1,0
     e9a:	4701                	li	a4,0
     e9c:	4781                	li	a5,0
     e9e:	8082                	ret
     ea0:	82c1a783          	lw	a5,-2004(gp) # 2000059c <errno>
     ea4:	d7ed                	beqz	a5,e8e <_close_r+0x1e>
     ea6:	40b2                	lw	ra,12(sp)
     ea8:	4422                	lw	s0,8(sp)
     eaa:	00f92023          	sw	a5,0(s2)
     eae:	4492                	lw	s1,4(sp)
     eb0:	4902                	lw	s2,0(sp)
     eb2:	0141                	addi	sp,sp,16
     eb4:	4581                	li	a1,0
     eb6:	4701                	li	a4,0
     eb8:	4781                	li	a5,0
     eba:	8082                	ret

00000ebc <_lseek_r>:
     ebc:	1141                	addi	sp,sp,-16
     ebe:	87ae                	mv	a5,a1
     ec0:	c422                	sw	s0,8(sp)
     ec2:	c226                	sw	s1,4(sp)
     ec4:	c04a                	sw	s2,0(sp)
     ec6:	c606                	sw	ra,12(sp)
     ec8:	0800                	addi	s0,sp,16
     eca:	85b2                	mv	a1,a2
     ecc:	8636                	mv	a2,a3
     ece:	892a                	mv	s2,a0
     ed0:	853e                	mv	a0,a5
     ed2:	8201a623          	sw	zero,-2004(gp) # 2000059c <errno>
     ed6:	2ff010ef          	jal	29d4 <_lseek>
     eda:	57fd                	li	a5,-1
     edc:	00f50d63          	beq	a0,a5,ef6 <_lseek_r+0x3a>
     ee0:	40b2                	lw	ra,12(sp)
     ee2:	4422                	lw	s0,8(sp)
     ee4:	4492                	lw	s1,4(sp)
     ee6:	4902                	lw	s2,0(sp)
     ee8:	0141                	addi	sp,sp,16
     eea:	4581                	li	a1,0
     eec:	4601                	li	a2,0
     eee:	4681                	li	a3,0
     ef0:	4701                	li	a4,0
     ef2:	4781                	li	a5,0
     ef4:	8082                	ret
     ef6:	82c1a783          	lw	a5,-2004(gp) # 2000059c <errno>
     efa:	d3fd                	beqz	a5,ee0 <_lseek_r+0x24>
     efc:	40b2                	lw	ra,12(sp)
     efe:	4422                	lw	s0,8(sp)
     f00:	00f92023          	sw	a5,0(s2)
     f04:	4492                	lw	s1,4(sp)
     f06:	4902                	lw	s2,0(sp)
     f08:	0141                	addi	sp,sp,16
     f0a:	4581                	li	a1,0
     f0c:	4601                	li	a2,0
     f0e:	4681                	li	a3,0
     f10:	4701                	li	a4,0
     f12:	4781                	li	a5,0
     f14:	8082                	ret

00000f16 <_read_r>:
     f16:	1141                	addi	sp,sp,-16
     f18:	87ae                	mv	a5,a1
     f1a:	c422                	sw	s0,8(sp)
     f1c:	c226                	sw	s1,4(sp)
     f1e:	c04a                	sw	s2,0(sp)
     f20:	c606                	sw	ra,12(sp)
     f22:	0800                	addi	s0,sp,16
     f24:	85b2                	mv	a1,a2
     f26:	8636                	mv	a2,a3
     f28:	892a                	mv	s2,a0
     f2a:	853e                	mv	a0,a5
     f2c:	8201a623          	sw	zero,-2004(gp) # 2000059c <errno>
     f30:	2e7010ef          	jal	2a16 <_read>
     f34:	57fd                	li	a5,-1
     f36:	00f50d63          	beq	a0,a5,f50 <_read_r+0x3a>
     f3a:	40b2                	lw	ra,12(sp)
     f3c:	4422                	lw	s0,8(sp)
     f3e:	4492                	lw	s1,4(sp)
     f40:	4902                	lw	s2,0(sp)
     f42:	0141                	addi	sp,sp,16
     f44:	4581                	li	a1,0
     f46:	4601                	li	a2,0
     f48:	4681                	li	a3,0
     f4a:	4701                	li	a4,0
     f4c:	4781                	li	a5,0
     f4e:	8082                	ret
     f50:	82c1a783          	lw	a5,-2004(gp) # 2000059c <errno>
     f54:	d3fd                	beqz	a5,f3a <_read_r+0x24>
     f56:	40b2                	lw	ra,12(sp)
     f58:	4422                	lw	s0,8(sp)
     f5a:	00f92023          	sw	a5,0(s2)
     f5e:	4492                	lw	s1,4(sp)
     f60:	4902                	lw	s2,0(sp)
     f62:	0141                	addi	sp,sp,16
     f64:	4581                	li	a1,0
     f66:	4601                	li	a2,0
     f68:	4681                	li	a3,0
     f6a:	4701                	li	a4,0
     f6c:	4781                	li	a5,0
     f6e:	8082                	ret

00000f70 <_write_r>:
     f70:	1141                	addi	sp,sp,-16
     f72:	87ae                	mv	a5,a1
     f74:	c422                	sw	s0,8(sp)
     f76:	c226                	sw	s1,4(sp)
     f78:	c04a                	sw	s2,0(sp)
     f7a:	c606                	sw	ra,12(sp)
     f7c:	0800                	addi	s0,sp,16
     f7e:	85b2                	mv	a1,a2
     f80:	8636                	mv	a2,a3
     f82:	892a                	mv	s2,a0
     f84:	853e                	mv	a0,a5
     f86:	8201a623          	sw	zero,-2004(gp) # 2000059c <errno>
     f8a:	58a020ef          	jal	3514 <_write>
     f8e:	57fd                	li	a5,-1
     f90:	00f50d63          	beq	a0,a5,faa <_write_r+0x3a>
     f94:	40b2                	lw	ra,12(sp)
     f96:	4422                	lw	s0,8(sp)
     f98:	4492                	lw	s1,4(sp)
     f9a:	4902                	lw	s2,0(sp)
     f9c:	0141                	addi	sp,sp,16
     f9e:	4581                	li	a1,0
     fa0:	4601                	li	a2,0
     fa2:	4681                	li	a3,0
     fa4:	4701                	li	a4,0
     fa6:	4781                	li	a5,0
     fa8:	8082                	ret
     faa:	82c1a783          	lw	a5,-2004(gp) # 2000059c <errno>
     fae:	d3fd                	beqz	a5,f94 <_write_r+0x24>
     fb0:	40b2                	lw	ra,12(sp)
     fb2:	4422                	lw	s0,8(sp)
     fb4:	00f92023          	sw	a5,0(s2)
     fb8:	4492                	lw	s1,4(sp)
     fba:	4902                	lw	s2,0(sp)
     fbc:	0141                	addi	sp,sp,16
     fbe:	4581                	li	a1,0
     fc0:	4601                	li	a2,0
     fc2:	4681                	li	a3,0
     fc4:	4701                	li	a4,0
     fc6:	4781                	li	a5,0
     fc8:	8082                	ret

00000fca <memmove>:
     fca:	1141                	addi	sp,sp,-16
     fcc:	c422                	sw	s0,8(sp)
     fce:	c606                	sw	ra,12(sp)
     fd0:	0800                	addi	s0,sp,16
     fd2:	02a5fd63          	bgeu	a1,a0,100c <memmove+0x42>
     fd6:	00c587b3          	add	a5,a1,a2
     fda:	02f57963          	bgeu	a0,a5,100c <memmove+0x42>
     fde:	ca11                	beqz	a2,ff2 <memmove+0x28>
     fe0:	962a                	add	a2,a2,a0
     fe2:	fff7c703          	lbu	a4,-1(a5)
     fe6:	167d                	addi	a2,a2,-1
     fe8:	17fd                	addi	a5,a5,-1
     fea:	00e60023          	sb	a4,0(a2)
     fee:	fec51ae3          	bne	a0,a2,fe2 <memmove+0x18>
     ff2:	40b2                	lw	ra,12(sp)
     ff4:	4422                	lw	s0,8(sp)
     ff6:	0141                	addi	sp,sp,16
     ff8:	4301                	li	t1,0
     ffa:	4581                	li	a1,0
     ffc:	4601                	li	a2,0
     ffe:	4681                	li	a3,0
    1000:	4701                	li	a4,0
    1002:	4781                	li	a5,0
    1004:	4801                	li	a6,0
    1006:	4881                	li	a7,0
    1008:	4e01                	li	t3,0
    100a:	8082                	ret
    100c:	47bd                	li	a5,15
    100e:	02c7ed63          	bltu	a5,a2,1048 <memmove+0x7e>
    1012:	87aa                	mv	a5,a0
    1014:	fff60693          	addi	a3,a2,-1
    1018:	de69                	beqz	a2,ff2 <memmove+0x28>
    101a:	0685                	addi	a3,a3,1
    101c:	96be                	add	a3,a3,a5
    101e:	0005c703          	lbu	a4,0(a1)
    1022:	0785                	addi	a5,a5,1
    1024:	0585                	addi	a1,a1,1
    1026:	fee78fa3          	sb	a4,-1(a5)
    102a:	fed79ae3          	bne	a5,a3,101e <memmove+0x54>
    102e:	40b2                	lw	ra,12(sp)
    1030:	4422                	lw	s0,8(sp)
    1032:	0141                	addi	sp,sp,16
    1034:	4301                	li	t1,0
    1036:	4581                	li	a1,0
    1038:	4601                	li	a2,0
    103a:	4681                	li	a3,0
    103c:	4701                	li	a4,0
    103e:	4781                	li	a5,0
    1040:	4801                	li	a6,0
    1042:	4881                	li	a7,0
    1044:	4e01                	li	t3,0
    1046:	8082                	ret
    1048:	00b567b3          	or	a5,a0,a1
    104c:	8b8d                	andi	a5,a5,3
    104e:	88ae                	mv	a7,a1
    1050:	efbd                	bnez	a5,10ce <memmove+0x104>
    1052:	00465793          	srli	a5,a2,0x4
    1056:	00479813          	slli	a6,a5,0x4
    105a:	982a                	add	a6,a6,a0
    105c:	17fd                	addi	a5,a5,-1
    105e:	872a                	mv	a4,a0
    1060:	4194                	lw	a3,0(a1)
    1062:	05c1                	addi	a1,a1,16
    1064:	0741                	addi	a4,a4,16
    1066:	fed72823          	sw	a3,-16(a4)
    106a:	ff45a683          	lw	a3,-12(a1)
    106e:	fed72a23          	sw	a3,-12(a4)
    1072:	ff85a683          	lw	a3,-8(a1)
    1076:	fed72c23          	sw	a3,-8(a4)
    107a:	ffc5a683          	lw	a3,-4(a1)
    107e:	fed72e23          	sw	a3,-4(a4)
    1082:	fd071fe3          	bne	a4,a6,1060 <memmove+0x96>
    1086:	0792                	slli	a5,a5,0x4
    1088:	01178733          	add	a4,a5,a7
    108c:	01070593          	addi	a1,a4,16
    1090:	97aa                	add	a5,a5,a0
    1092:	00c67813          	andi	a6,a2,12
    1096:	07c1                	addi	a5,a5,16
    1098:	8e2e                	mv	t3,a1
    109a:	00f67693          	andi	a3,a2,15
    109e:	02080c63          	beqz	a6,10d6 <memmove+0x10c>
    10a2:	16f1                	addi	a3,a3,-4
    10a4:	9af1                	andi	a3,a3,-4
    10a6:	9736                	add	a4,a4,a3
    10a8:	0751                	addi	a4,a4,20
    10aa:	41150833          	sub	a6,a0,a7
    10ae:	0005a303          	lw	t1,0(a1)
    10b2:	010588b3          	add	a7,a1,a6
    10b6:	0591                	addi	a1,a1,4
    10b8:	0068a023          	sw	t1,0(a7)
    10bc:	fee599e3          	bne	a1,a4,10ae <memmove+0xe4>
    10c0:	00468713          	addi	a4,a3,4
    10c4:	01c705b3          	add	a1,a4,t3
    10c8:	97ba                	add	a5,a5,a4
    10ca:	8a0d                	andi	a2,a2,3
    10cc:	b7a1                	j	1014 <memmove+0x4a>
    10ce:	fff60693          	addi	a3,a2,-1
    10d2:	87aa                	mv	a5,a0
    10d4:	b799                	j	101a <memmove+0x50>
    10d6:	8636                	mv	a2,a3
    10d8:	bf35                	j	1014 <memmove+0x4a>

000010da <memset>:
    10da:	433d                	li	t1,15
    10dc:	872a                	mv	a4,a0
    10de:	02c37363          	bgeu	t1,a2,1104 <memset+0x2a>
    10e2:	00f77793          	andi	a5,a4,15
    10e6:	efbd                	bnez	a5,1164 <memset+0x8a>
    10e8:	e5ad                	bnez	a1,1152 <memset+0x78>
    10ea:	ff067693          	andi	a3,a2,-16
    10ee:	8a3d                	andi	a2,a2,15
    10f0:	96ba                	add	a3,a3,a4
    10f2:	c30c                	sw	a1,0(a4)
    10f4:	c34c                	sw	a1,4(a4)
    10f6:	c70c                	sw	a1,8(a4)
    10f8:	c74c                	sw	a1,12(a4)
    10fa:	0741                	addi	a4,a4,16
    10fc:	fed76be3          	bltu	a4,a3,10f2 <memset+0x18>
    1100:	e211                	bnez	a2,1104 <memset+0x2a>
    1102:	8082                	ret
    1104:	40c306b3          	sub	a3,t1,a2
    1108:	068a                	slli	a3,a3,0x2
    110a:	00000297          	auipc	t0,0x0
    110e:	9696                	add	a3,a3,t0
    1110:	00a68067          	jr	10(a3)
    1114:	00b70723          	sb	a1,14(a4)
    1118:	00b706a3          	sb	a1,13(a4)
    111c:	00b70623          	sb	a1,12(a4)
    1120:	00b705a3          	sb	a1,11(a4)
    1124:	00b70523          	sb	a1,10(a4)
    1128:	00b704a3          	sb	a1,9(a4)
    112c:	00b70423          	sb	a1,8(a4)
    1130:	00b703a3          	sb	a1,7(a4)
    1134:	00b70323          	sb	a1,6(a4)
    1138:	00b702a3          	sb	a1,5(a4)
    113c:	00b70223          	sb	a1,4(a4)
    1140:	00b701a3          	sb	a1,3(a4)
    1144:	00b70123          	sb	a1,2(a4)
    1148:	00b700a3          	sb	a1,1(a4)
    114c:	00b70023          	sb	a1,0(a4)
    1150:	8082                	ret
    1152:	0ff5f593          	zext.b	a1,a1
    1156:	00859693          	slli	a3,a1,0x8
    115a:	8dd5                	or	a1,a1,a3
    115c:	01059693          	slli	a3,a1,0x10
    1160:	8dd5                	or	a1,a1,a3
    1162:	b761                	j	10ea <memset+0x10>
    1164:	00279693          	slli	a3,a5,0x2
    1168:	00000297          	auipc	t0,0x0
    116c:	9696                	add	a3,a3,t0
    116e:	8286                	mv	t0,ra
    1170:	fa8680e7          	jalr	-88(a3)
    1174:	8096                	mv	ra,t0
    1176:	17c1                	addi	a5,a5,-16
    1178:	8f1d                	sub	a4,a4,a5
    117a:	963e                	add	a2,a2,a5
    117c:	f8c374e3          	bgeu	t1,a2,1104 <memset+0x2a>
    1180:	b7a5                	j	10e8 <memset+0xe>

00001182 <memcpy>:
    1182:	1141                	addi	sp,sp,-16
    1184:	c422                	sw	s0,8(sp)
    1186:	c606                	sw	ra,12(sp)
    1188:	0800                	addi	s0,sp,16
    118a:	00a5c7b3          	xor	a5,a1,a0
    118e:	8b8d                	andi	a5,a5,3
    1190:	00c508b3          	add	a7,a0,a2
    1194:	e7bd                	bnez	a5,1202 <memcpy+0x80>
    1196:	00463613          	sltiu	a2,a2,4
    119a:	e625                	bnez	a2,1202 <memcpy+0x80>
    119c:	00357793          	andi	a5,a0,3
    11a0:	872a                	mv	a4,a0
    11a2:	e3e5                	bnez	a5,1282 <memcpy+0x100>
    11a4:	ffc8f613          	andi	a2,a7,-4
    11a8:	40e606b3          	sub	a3,a2,a4
    11ac:	02000793          	li	a5,32
    11b0:	06d7cd63          	blt	a5,a3,122a <memcpy+0xa8>
    11b4:	86ae                	mv	a3,a1
    11b6:	87ba                	mv	a5,a4
    11b8:	02c77163          	bgeu	a4,a2,11da <memcpy+0x58>
    11bc:	0006a803          	lw	a6,0(a3)
    11c0:	0791                	addi	a5,a5,4
    11c2:	0691                	addi	a3,a3,4
    11c4:	ff07ae23          	sw	a6,-4(a5)
    11c8:	fec7eae3          	bltu	a5,a2,11bc <memcpy+0x3a>
    11cc:	167d                	addi	a2,a2,-1
    11ce:	8e19                	sub	a2,a2,a4
    11d0:	9a71                	andi	a2,a2,-4
    11d2:	0591                	addi	a1,a1,4
    11d4:	0711                	addi	a4,a4,4
    11d6:	95b2                	add	a1,a1,a2
    11d8:	9732                	add	a4,a4,a2
    11da:	03176763          	bltu	a4,a7,1208 <memcpy+0x86>
    11de:	40b2                	lw	ra,12(sp)
    11e0:	4422                	lw	s0,8(sp)
    11e2:	0141                	addi	sp,sp,16
    11e4:	4281                	li	t0,0
    11e6:	4301                	li	t1,0
    11e8:	4381                	li	t2,0
    11ea:	4581                	li	a1,0
    11ec:	4601                	li	a2,0
    11ee:	4681                	li	a3,0
    11f0:	4701                	li	a4,0
    11f2:	4781                	li	a5,0
    11f4:	4801                	li	a6,0
    11f6:	4881                	li	a7,0
    11f8:	4e01                	li	t3,0
    11fa:	4e81                	li	t4,0
    11fc:	4f01                	li	t5,0
    11fe:	4f81                	li	t6,0
    1200:	8082                	ret
    1202:	872a                	mv	a4,a0
    1204:	fd157de3          	bgeu	a0,a7,11de <memcpy+0x5c>
    1208:	0005c783          	lbu	a5,0(a1)
    120c:	0705                	addi	a4,a4,1
    120e:	0585                	addi	a1,a1,1
    1210:	fef70fa3          	sb	a5,-1(a4)
    1214:	fce885e3          	beq	a7,a4,11de <memcpy+0x5c>
    1218:	0005c783          	lbu	a5,0(a1)
    121c:	0705                	addi	a4,a4,1
    121e:	0585                	addi	a1,a1,1
    1220:	fef70fa3          	sb	a5,-1(a4)
    1224:	fee892e3          	bne	a7,a4,1208 <memcpy+0x86>
    1228:	bf5d                	j	11de <memcpy+0x5c>
    122a:	5194                	lw	a3,32(a1)
    122c:	0005a383          	lw	t2,0(a1)
    1230:	0045a283          	lw	t0,4(a1)
    1234:	0085af83          	lw	t6,8(a1)
    1238:	00c5af03          	lw	t5,12(a1)
    123c:	0105ae83          	lw	t4,16(a1)
    1240:	0145ae03          	lw	t3,20(a1)
    1244:	0185a303          	lw	t1,24(a1)
    1248:	01c5a803          	lw	a6,28(a1)
    124c:	02470713          	addi	a4,a4,36
    1250:	fed72e23          	sw	a3,-4(a4)
    1254:	fc772e23          	sw	t2,-36(a4)
    1258:	40e606b3          	sub	a3,a2,a4
    125c:	fe572023          	sw	t0,-32(a4)
    1260:	fff72223          	sw	t6,-28(a4)
    1264:	ffe72423          	sw	t5,-24(a4)
    1268:	ffd72623          	sw	t4,-20(a4)
    126c:	ffc72823          	sw	t3,-16(a4)
    1270:	fe672a23          	sw	t1,-12(a4)
    1274:	ff072c23          	sw	a6,-8(a4)
    1278:	02458593          	addi	a1,a1,36
    127c:	fad7c7e3          	blt	a5,a3,122a <memcpy+0xa8>
    1280:	bf15                	j	11b4 <memcpy+0x32>
    1282:	0005c683          	lbu	a3,0(a1)
    1286:	0705                	addi	a4,a4,1
    1288:	00377793          	andi	a5,a4,3
    128c:	fed70fa3          	sb	a3,-1(a4)
    1290:	0585                	addi	a1,a1,1
    1292:	db89                	beqz	a5,11a4 <memcpy+0x22>
    1294:	0005c683          	lbu	a3,0(a1)
    1298:	0705                	addi	a4,a4,1
    129a:	00377793          	andi	a5,a4,3
    129e:	fed70fa3          	sb	a3,-1(a4)
    12a2:	0585                	addi	a1,a1,1
    12a4:	fff9                	bnez	a5,1282 <memcpy+0x100>
    12a6:	bdfd                	j	11a4 <memcpy+0x22>

000012a8 <_malloc_trim_r>:
    12a8:	1101                	addi	sp,sp,-32
    12aa:	cc22                	sw	s0,24(sp)
    12ac:	ca26                	sw	s1,20(sp)
    12ae:	c84a                	sw	s2,16(sp)
    12b0:	c64e                	sw	s3,12(sp)
    12b2:	c452                	sw	s4,8(sp)
    12b4:	ce06                	sw	ra,28(sp)
    12b6:	1000                	addi	s0,sp,32
    12b8:	200009b7          	lui	s3,0x20000
    12bc:	84ae                	mv	s1,a1
    12be:	8a2a                	mv	s4,a0
    12c0:	14c98993          	addi	s3,s3,332 # 2000014c <__malloc_av_>
    12c4:	21f000ef          	jal	1ce2 <__malloc_lock>
    12c8:	0089a783          	lw	a5,8(s3)
    12cc:	6705                	lui	a4,0x1
    12ce:	0047a903          	lw	s2,4(a5)
    12d2:	ffc97913          	andi	s2,s2,-4
    12d6:	7ff90793          	addi	a5,s2,2047
    12da:	7f078793          	addi	a5,a5,2032
    12de:	409784b3          	sub	s1,a5,s1
    12e2:	80b1                	srli	s1,s1,0xc
    12e4:	14fd                	addi	s1,s1,-1
    12e6:	04b2                	slli	s1,s1,0xc
    12e8:	00e4cb63          	blt	s1,a4,12fe <_malloc_trim_r+0x56>
    12ec:	4581                	li	a1,0
    12ee:	8552                	mv	a0,s4
    12f0:	5dc010ef          	jal	28cc <_sbrk_r>
    12f4:	0089a783          	lw	a5,8(s3)
    12f8:	97ca                	add	a5,a5,s2
    12fa:	02f50363          	beq	a0,a5,1320 <_malloc_trim_r+0x78>
    12fe:	8552                	mv	a0,s4
    1300:	1f9000ef          	jal	1cf8 <__malloc_unlock>
    1304:	40f2                	lw	ra,28(sp)
    1306:	4462                	lw	s0,24(sp)
    1308:	44d2                	lw	s1,20(sp)
    130a:	4942                	lw	s2,16(sp)
    130c:	49b2                	lw	s3,12(sp)
    130e:	4a22                	lw	s4,8(sp)
    1310:	4501                	li	a0,0
    1312:	6105                	addi	sp,sp,32
    1314:	4581                	li	a1,0
    1316:	4601                	li	a2,0
    1318:	4681                	li	a3,0
    131a:	4701                	li	a4,0
    131c:	4781                	li	a5,0
    131e:	8082                	ret
    1320:	409005b3          	neg	a1,s1
    1324:	8552                	mv	a0,s4
    1326:	5a6010ef          	jal	28cc <_sbrk_r>
    132a:	57fd                	li	a5,-1
    132c:	04f50063          	beq	a0,a5,136c <_malloc_trim_r+0xc4>
    1330:	0089a683          	lw	a3,8(s3)
    1334:	9741a783          	lw	a5,-1676(gp) # 200006e4 <__malloc_current_mallinfo>
    1338:	40990933          	sub	s2,s2,s1
    133c:	00196913          	ori	s2,s2,1
    1340:	8552                	mv	a0,s4
    1342:	8f85                	sub	a5,a5,s1
    1344:	0126a223          	sw	s2,4(a3)
    1348:	96f1aa23          	sw	a5,-1676(gp) # 200006e4 <__malloc_current_mallinfo>
    134c:	1ad000ef          	jal	1cf8 <__malloc_unlock>
    1350:	40f2                	lw	ra,28(sp)
    1352:	4462                	lw	s0,24(sp)
    1354:	44d2                	lw	s1,20(sp)
    1356:	4942                	lw	s2,16(sp)
    1358:	49b2                	lw	s3,12(sp)
    135a:	4a22                	lw	s4,8(sp)
    135c:	4505                	li	a0,1
    135e:	6105                	addi	sp,sp,32
    1360:	4581                	li	a1,0
    1362:	4601                	li	a2,0
    1364:	4681                	li	a3,0
    1366:	4701                	li	a4,0
    1368:	4781                	li	a5,0
    136a:	8082                	ret
    136c:	4581                	li	a1,0
    136e:	8552                	mv	a0,s4
    1370:	55c010ef          	jal	28cc <_sbrk_r>
    1374:	0089a703          	lw	a4,8(s3)
    1378:	46bd                	li	a3,15
    137a:	40e507b3          	sub	a5,a0,a4
    137e:	f8f6d0e3          	bge	a3,a5,12fe <_malloc_trim_r+0x56>
    1382:	200006b7          	lui	a3,0x20000
    1386:	5686a603          	lw	a2,1384(a3) # 20000568 <__malloc_sbrk_base>
    138a:	0017e793          	ori	a5,a5,1
    138e:	8d11                	sub	a0,a0,a2
    1390:	c35c                	sw	a5,4(a4)
    1392:	96a1aa23          	sw	a0,-1676(gp) # 200006e4 <__malloc_current_mallinfo>
    1396:	b7a5                	j	12fe <_malloc_trim_r+0x56>

00001398 <_free_r>:
    1398:	c5fd                	beqz	a1,1486 <_free_r+0xee>
    139a:	1101                	addi	sp,sp,-32
    139c:	cc22                	sw	s0,24(sp)
    139e:	ca26                	sw	s1,20(sp)
    13a0:	1000                	addi	s0,sp,32
    13a2:	ce06                	sw	ra,28(sp)
    13a4:	84aa                	mv	s1,a0
    13a6:	feb42623          	sw	a1,-20(s0)
    13aa:	139000ef          	jal	1ce2 <__malloc_lock>
    13ae:	fec42583          	lw	a1,-20(s0)
    13b2:	20000537          	lui	a0,0x20000
    13b6:	14c50513          	addi	a0,a0,332 # 2000014c <__malloc_av_>
    13ba:	ffc5a803          	lw	a6,-4(a1)
    13be:	ff858713          	addi	a4,a1,-8
    13c2:	00852883          	lw	a7,8(a0)
    13c6:	ffe87793          	andi	a5,a6,-2
    13ca:	00f70633          	add	a2,a4,a5
    13ce:	4254                	lw	a3,4(a2)
    13d0:	00187313          	andi	t1,a6,1
    13d4:	9af1                	andi	a3,a3,-4
    13d6:	12c88d63          	beq	a7,a2,1510 <_free_r+0x178>
    13da:	c254                	sw	a3,4(a2)
    13dc:	00d608b3          	add	a7,a2,a3
    13e0:	0048a883          	lw	a7,4(a7)
    13e4:	0018f893          	andi	a7,a7,1
    13e8:	06031963          	bnez	t1,145a <_free_r+0xc2>
    13ec:	ff85a303          	lw	t1,-8(a1)
    13f0:	200005b7          	lui	a1,0x20000
    13f4:	15458593          	addi	a1,a1,340 # 20000154 <__malloc_av_+0x8>
    13f8:	40670733          	sub	a4,a4,t1
    13fc:	00872803          	lw	a6,8(a4) # 1008 <memmove+0x3e>
    1400:	979a                	add	a5,a5,t1
    1402:	0eb80a63          	beq	a6,a1,14f6 <_free_r+0x15e>
    1406:	00c72303          	lw	t1,12(a4)
    140a:	00682623          	sw	t1,12(a6)
    140e:	01032423          	sw	a6,8(t1)
    1412:	12088963          	beqz	a7,1544 <_free_r+0x1ac>
    1416:	0017e693          	ori	a3,a5,1
    141a:	c354                	sw	a3,4(a4)
    141c:	c21c                	sw	a5,0(a2)
    141e:	1ff00693          	li	a3,511
    1422:	08f6e563          	bltu	a3,a5,14ac <_free_r+0x114>
    1426:	ff87f693          	andi	a3,a5,-8
    142a:	06a1                	addi	a3,a3,8
    142c:	414c                	lw	a1,4(a0)
    142e:	96aa                	add	a3,a3,a0
    1430:	4290                	lw	a2,0(a3)
    1432:	0057d813          	srli	a6,a5,0x5
    1436:	4785                	li	a5,1
    1438:	010797b3          	sll	a5,a5,a6
    143c:	8fcd                	or	a5,a5,a1
    143e:	ff868593          	addi	a1,a3,-8
    1442:	c710                	sw	a2,8(a4)
    1444:	c74c                	sw	a1,12(a4)
    1446:	c15c                	sw	a5,4(a0)
    1448:	c298                	sw	a4,0(a3)
    144a:	c658                	sw	a4,12(a2)
    144c:	4462                	lw	s0,24(sp)
    144e:	40f2                	lw	ra,28(sp)
    1450:	8526                	mv	a0,s1
    1452:	44d2                	lw	s1,20(sp)
    1454:	6105                	addi	sp,sp,32
    1456:	0a30006f          	j	1cf8 <__malloc_unlock>
    145a:	04089063          	bnez	a7,149a <_free_r+0x102>
    145e:	200005b7          	lui	a1,0x20000
    1462:	97b6                	add	a5,a5,a3
    1464:	15458593          	addi	a1,a1,340 # 20000154 <__malloc_av_+0x8>
    1468:	4614                	lw	a3,8(a2)
    146a:	0017e893          	ori	a7,a5,1
    146e:	00f70833          	add	a6,a4,a5
    1472:	10b68563          	beq	a3,a1,157c <_free_r+0x1e4>
    1476:	4650                	lw	a2,12(a2)
    1478:	c6d0                	sw	a2,12(a3)
    147a:	c614                	sw	a3,8(a2)
    147c:	01172223          	sw	a7,4(a4)
    1480:	00f82023          	sw	a5,0(a6)
    1484:	bf69                	j	141e <_free_r+0x86>
    1486:	4301                	li	t1,0
    1488:	4501                	li	a0,0
    148a:	4581                	li	a1,0
    148c:	4601                	li	a2,0
    148e:	4681                	li	a3,0
    1490:	4701                	li	a4,0
    1492:	4781                	li	a5,0
    1494:	4801                	li	a6,0
    1496:	4881                	li	a7,0
    1498:	8082                	ret
    149a:	00186813          	ori	a6,a6,1
    149e:	ff05ae23          	sw	a6,-4(a1)
    14a2:	c21c                	sw	a5,0(a2)
    14a4:	1ff00693          	li	a3,511
    14a8:	f6f6ffe3          	bgeu	a3,a5,1426 <_free_r+0x8e>
    14ac:	0097d693          	srli	a3,a5,0x9
    14b0:	4611                	li	a2,4
    14b2:	08d66b63          	bltu	a2,a3,1548 <_free_r+0x1b0>
    14b6:	0067d693          	srli	a3,a5,0x6
    14ba:	03968593          	addi	a1,a3,57
    14be:	058e                	slli	a1,a1,0x3
    14c0:	03868613          	addi	a2,a3,56
    14c4:	95aa                	add	a1,a1,a0
    14c6:	4194                	lw	a3,0(a1)
    14c8:	15e1                	addi	a1,a1,-8
    14ca:	00d59663          	bne	a1,a3,14d6 <_free_r+0x13e>
    14ce:	a0c1                	j	158e <_free_r+0x1f6>
    14d0:	4694                	lw	a3,8(a3)
    14d2:	00d58663          	beq	a1,a3,14de <_free_r+0x146>
    14d6:	42d0                	lw	a2,4(a3)
    14d8:	9a71                	andi	a2,a2,-4
    14da:	fec7ebe3          	bltu	a5,a2,14d0 <_free_r+0x138>
    14de:	46cc                	lw	a1,12(a3)
    14e0:	c74c                	sw	a1,12(a4)
    14e2:	c714                	sw	a3,8(a4)
    14e4:	4462                	lw	s0,24(sp)
    14e6:	40f2                	lw	ra,28(sp)
    14e8:	c598                	sw	a4,8(a1)
    14ea:	8526                	mv	a0,s1
    14ec:	44d2                	lw	s1,20(sp)
    14ee:	c6d8                	sw	a4,12(a3)
    14f0:	6105                	addi	sp,sp,32
    14f2:	0070006f          	j	1cf8 <__malloc_unlock>
    14f6:	06089863          	bnez	a7,1566 <_free_r+0x1ce>
    14fa:	464c                	lw	a1,12(a2)
    14fc:	4610                	lw	a2,8(a2)
    14fe:	96be                	add	a3,a3,a5
    1500:	0016e793          	ori	a5,a3,1
    1504:	c64c                	sw	a1,12(a2)
    1506:	c590                	sw	a2,8(a1)
    1508:	c35c                	sw	a5,4(a4)
    150a:	9736                	add	a4,a4,a3
    150c:	c314                	sw	a3,0(a4)
    150e:	bf3d                	j	144c <_free_r+0xb4>
    1510:	96be                	add	a3,a3,a5
    1512:	00031a63          	bnez	t1,1526 <_free_r+0x18e>
    1516:	ff85a783          	lw	a5,-8(a1)
    151a:	8f1d                	sub	a4,a4,a5
    151c:	4710                	lw	a2,8(a4)
    151e:	96be                	add	a3,a3,a5
    1520:	475c                	lw	a5,12(a4)
    1522:	c65c                	sw	a5,12(a2)
    1524:	c790                	sw	a2,8(a5)
    1526:	200007b7          	lui	a5,0x20000
    152a:	0016e613          	ori	a2,a3,1
    152e:	56c7a783          	lw	a5,1388(a5) # 2000056c <__malloc_trim_threshold>
    1532:	c350                	sw	a2,4(a4)
    1534:	c518                	sw	a4,8(a0)
    1536:	f0f6ebe3          	bltu	a3,a5,144c <_free_r+0xb4>
    153a:	8381a583          	lw	a1,-1992(gp) # 200005a8 <__malloc_top_pad>
    153e:	8526                	mv	a0,s1
    1540:	33a5                	jal	12a8 <_malloc_trim_r>
    1542:	b729                	j	144c <_free_r+0xb4>
    1544:	97b6                	add	a5,a5,a3
    1546:	b70d                	j	1468 <_free_r+0xd0>
    1548:	4651                	li	a2,20
    154a:	02d67363          	bgeu	a2,a3,1570 <_free_r+0x1d8>
    154e:	05400613          	li	a2,84
    1552:	04d66863          	bltu	a2,a3,15a2 <_free_r+0x20a>
    1556:	00c7d693          	srli	a3,a5,0xc
    155a:	06f68593          	addi	a1,a3,111
    155e:	058e                	slli	a1,a1,0x3
    1560:	06e68613          	addi	a2,a3,110
    1564:	b785                	j	14c4 <_free_r+0x12c>
    1566:	0017e693          	ori	a3,a5,1
    156a:	c354                	sw	a3,4(a4)
    156c:	c21c                	sw	a5,0(a2)
    156e:	bdf9                	j	144c <_free_r+0xb4>
    1570:	05c68593          	addi	a1,a3,92
    1574:	058e                	slli	a1,a1,0x3
    1576:	05b68613          	addi	a2,a3,91
    157a:	b7a9                	j	14c4 <_free_r+0x12c>
    157c:	c958                	sw	a4,20(a0)
    157e:	c918                	sw	a4,16(a0)
    1580:	c74c                	sw	a1,12(a4)
    1582:	c70c                	sw	a1,8(a4)
    1584:	01172223          	sw	a7,4(a4)
    1588:	00f82023          	sw	a5,0(a6)
    158c:	b5c1                	j	144c <_free_r+0xb4>
    158e:	00452803          	lw	a6,4(a0)
    1592:	8609                	srai	a2,a2,0x2
    1594:	4785                	li	a5,1
    1596:	00c797b3          	sll	a5,a5,a2
    159a:	0107e7b3          	or	a5,a5,a6
    159e:	c15c                	sw	a5,4(a0)
    15a0:	b781                	j	14e0 <_free_r+0x148>
    15a2:	15400613          	li	a2,340
    15a6:	00d66a63          	bltu	a2,a3,15ba <_free_r+0x222>
    15aa:	00f7d693          	srli	a3,a5,0xf
    15ae:	07868593          	addi	a1,a3,120
    15b2:	058e                	slli	a1,a1,0x3
    15b4:	07768613          	addi	a2,a3,119
    15b8:	b731                	j	14c4 <_free_r+0x12c>
    15ba:	55400613          	li	a2,1364
    15be:	00d66a63          	bltu	a2,a3,15d2 <_free_r+0x23a>
    15c2:	0127d693          	srli	a3,a5,0x12
    15c6:	07d68593          	addi	a1,a3,125
    15ca:	058e                	slli	a1,a1,0x3
    15cc:	07c68613          	addi	a2,a3,124
    15d0:	bdd5                	j	14c4 <_free_r+0x12c>
    15d2:	3f800593          	li	a1,1016
    15d6:	07e00613          	li	a2,126
    15da:	b5ed                	j	14c4 <_free_r+0x12c>

000015dc <_malloc_r>:
    15dc:	7139                	addi	sp,sp,-64
    15de:	dc22                	sw	s0,56(sp)
    15e0:	da26                	sw	s1,52(sp)
    15e2:	de06                	sw	ra,60(sp)
    15e4:	0080                	addi	s0,sp,64
    15e6:	00b58793          	addi	a5,a1,11
    15ea:	4759                	li	a4,22
    15ec:	84aa                	mv	s1,a0
    15ee:	08f76b63          	bltu	a4,a5,1684 <_malloc_r+0xa8>
    15f2:	46c1                	li	a3,16
    15f4:	06b6e463          	bltu	a3,a1,165c <_malloc_r+0x80>
    15f8:	25ed                	jal	1ce2 <__malloc_lock>
    15fa:	46c1                	li	a3,16
    15fc:	4761                	li	a4,24
    15fe:	4889                	li	a7,2
    1600:	20000837          	lui	a6,0x20000
    1604:	14c80813          	addi	a6,a6,332 # 2000014c <__malloc_av_>
    1608:	9742                	add	a4,a4,a6
    160a:	435c                	lw	a5,4(a4)
    160c:	ff870613          	addi	a2,a4,-8
    1610:	3cc78363          	beq	a5,a2,19d6 <_malloc_r+0x3fa>
    1614:	43d8                	lw	a4,4(a5)
    1616:	47d0                	lw	a2,12(a5)
    1618:	478c                	lw	a1,8(a5)
    161a:	9b71                	andi	a4,a4,-4
    161c:	973e                	add	a4,a4,a5
    161e:	4354                	lw	a3,4(a4)
    1620:	c5d0                	sw	a2,12(a1)
    1622:	fef42623          	sw	a5,-20(s0)
    1626:	c60c                	sw	a1,8(a2)
    1628:	0016e693          	ori	a3,a3,1
    162c:	8526                	mv	a0,s1
    162e:	c354                	sw	a3,4(a4)
    1630:	25e1                	jal	1cf8 <__malloc_unlock>
    1632:	fec42783          	lw	a5,-20(s0)
    1636:	50f2                	lw	ra,60(sp)
    1638:	5462                	lw	s0,56(sp)
    163a:	54d2                	lw	s1,52(sp)
    163c:	00878513          	addi	a0,a5,8
    1640:	6121                	addi	sp,sp,64
    1642:	4301                	li	t1,0
    1644:	4581                	li	a1,0
    1646:	4601                	li	a2,0
    1648:	4681                	li	a3,0
    164a:	4701                	li	a4,0
    164c:	4781                	li	a5,0
    164e:	4801                	li	a6,0
    1650:	4881                	li	a7,0
    1652:	4e01                	li	t3,0
    1654:	4e81                	li	t4,0
    1656:	4f01                	li	t5,0
    1658:	4f81                	li	t6,0
    165a:	8082                	ret
    165c:	47b1                	li	a5,12
    165e:	c09c                	sw	a5,0(s1)
    1660:	4501                	li	a0,0
    1662:	50f2                	lw	ra,60(sp)
    1664:	5462                	lw	s0,56(sp)
    1666:	54d2                	lw	s1,52(sp)
    1668:	6121                	addi	sp,sp,64
    166a:	4301                	li	t1,0
    166c:	4581                	li	a1,0
    166e:	4601                	li	a2,0
    1670:	4681                	li	a3,0
    1672:	4701                	li	a4,0
    1674:	4781                	li	a5,0
    1676:	4801                	li	a6,0
    1678:	4881                	li	a7,0
    167a:	4e01                	li	t3,0
    167c:	4e81                	li	t4,0
    167e:	4f01                	li	t5,0
    1680:	4f81                	li	t6,0
    1682:	8082                	ret
    1684:	ff87f693          	andi	a3,a5,-8
    1688:	fc07cae3          	bltz	a5,165c <_malloc_r+0x80>
    168c:	fcb6e8e3          	bltu	a3,a1,165c <_malloc_r+0x80>
    1690:	fed42623          	sw	a3,-20(s0)
    1694:	25b9                	jal	1ce2 <__malloc_lock>
    1696:	fec42683          	lw	a3,-20(s0)
    169a:	1f700793          	li	a5,503
    169e:	3ed7f863          	bgeu	a5,a3,1a8e <_malloc_r+0x4b2>
    16a2:	0096d793          	srli	a5,a3,0x9
    16a6:	10078d63          	beqz	a5,17c0 <_malloc_r+0x1e4>
    16aa:	4711                	li	a4,4
    16ac:	36f76a63          	bltu	a4,a5,1a20 <_malloc_r+0x444>
    16b0:	0066d793          	srli	a5,a3,0x6
    16b4:	03978893          	addi	a7,a5,57
    16b8:	03878e13          	addi	t3,a5,56
    16bc:	00389513          	slli	a0,a7,0x3
    16c0:	20000837          	lui	a6,0x20000
    16c4:	14c80813          	addi	a6,a6,332 # 2000014c <__malloc_av_>
    16c8:	9542                	add	a0,a0,a6
    16ca:	415c                	lw	a5,4(a0)
    16cc:	1561                	addi	a0,a0,-8
    16ce:	02f50163          	beq	a0,a5,16f0 <_malloc_r+0x114>
    16d2:	433d                	li	t1,15
    16d4:	a039                	j	16e2 <_malloc_r+0x106>
    16d6:	47cc                	lw	a1,12(a5)
    16d8:	2a065e63          	bgez	a2,1994 <_malloc_r+0x3b8>
    16dc:	00b50a63          	beq	a0,a1,16f0 <_malloc_r+0x114>
    16e0:	87ae                	mv	a5,a1
    16e2:	43d8                	lw	a4,4(a5)
    16e4:	9b71                	andi	a4,a4,-4
    16e6:	40d70633          	sub	a2,a4,a3
    16ea:	fec356e3          	bge	t1,a2,16d6 <_malloc_r+0xfa>
    16ee:	88f2                	mv	a7,t3
    16f0:	01082783          	lw	a5,16(a6)
    16f4:	00880e93          	addi	t4,a6,8
    16f8:	25d78963          	beq	a5,t4,194a <_malloc_r+0x36e>
    16fc:	43d8                	lw	a4,4(a5)
    16fe:	45bd                	li	a1,15
    1700:	9b71                	andi	a4,a4,-4
    1702:	40d70633          	sub	a2,a4,a3
    1706:	3ac5c763          	blt	a1,a2,1ab4 <_malloc_r+0x4d8>
    170a:	01d82a23          	sw	t4,20(a6)
    170e:	01d82823          	sw	t4,16(a6)
    1712:	38065363          	bgez	a2,1a98 <_malloc_r+0x4bc>
    1716:	1ff00613          	li	a2,511
    171a:	00482303          	lw	t1,4(a6)
    171e:	2ce66163          	bltu	a2,a4,19e0 <_malloc_r+0x404>
    1722:	ff877613          	andi	a2,a4,-8
    1726:	0621                	addi	a2,a2,8
    1728:	9642                	add	a2,a2,a6
    172a:	420c                	lw	a1,0(a2)
    172c:	00575513          	srli	a0,a4,0x5
    1730:	4705                	li	a4,1
    1732:	00a71733          	sll	a4,a4,a0
    1736:	00e36333          	or	t1,t1,a4
    173a:	ff860713          	addi	a4,a2,-8
    173e:	c78c                	sw	a1,8(a5)
    1740:	c7d8                	sw	a4,12(a5)
    1742:	00682223          	sw	t1,4(a6)
    1746:	c21c                	sw	a5,0(a2)
    1748:	c5dc                	sw	a5,12(a1)
    174a:	4028d793          	srai	a5,a7,0x2
    174e:	4505                	li	a0,1
    1750:	00f51533          	sll	a0,a0,a5
    1754:	06a36d63          	bltu	t1,a0,17ce <_malloc_r+0x1f2>
    1758:	006577b3          	and	a5,a0,t1
    175c:	ef89                	bnez	a5,1776 <_malloc_r+0x19a>
    175e:	0506                	slli	a0,a0,0x1
    1760:	ffc8f893          	andi	a7,a7,-4
    1764:	006577b3          	and	a5,a0,t1
    1768:	0891                	addi	a7,a7,4
    176a:	e791                	bnez	a5,1776 <_malloc_r+0x19a>
    176c:	0506                	slli	a0,a0,0x1
    176e:	006577b3          	and	a5,a0,t1
    1772:	0891                	addi	a7,a7,4
    1774:	dfe5                	beqz	a5,176c <_malloc_r+0x190>
    1776:	4e3d                	li	t3,15
    1778:	00389f13          	slli	t5,a7,0x3
    177c:	9f42                	add	t5,t5,a6
    177e:	837a                	mv	t1,t5
    1780:	00c32703          	lw	a4,12(t1)
    1784:	8fc6                	mv	t6,a7
    1786:	2ae30d63          	beq	t1,a4,1a40 <_malloc_r+0x464>
    178a:	4350                	lw	a2,4(a4)
    178c:	87ba                	mv	a5,a4
    178e:	4758                	lw	a4,12(a4)
    1790:	9a71                	andi	a2,a2,-4
    1792:	40d605b3          	sub	a1,a2,a3
    1796:	2abe4e63          	blt	t3,a1,1a52 <_malloc_r+0x476>
    179a:	fe05c6e3          	bltz	a1,1786 <_malloc_r+0x1aa>
    179e:	963e                	add	a2,a2,a5
    17a0:	4254                	lw	a3,4(a2)
    17a2:	478c                	lw	a1,8(a5)
    17a4:	8526                	mv	a0,s1
    17a6:	0016e693          	ori	a3,a3,1
    17aa:	c254                	sw	a3,4(a2)
    17ac:	c5d8                	sw	a4,12(a1)
    17ae:	c70c                	sw	a1,8(a4)
    17b0:	fef42623          	sw	a5,-20(s0)
    17b4:	2391                	jal	1cf8 <__malloc_unlock>
    17b6:	fec42783          	lw	a5,-20(s0)
    17ba:	00878513          	addi	a0,a5,8
    17be:	b555                	j	1662 <_malloc_r+0x86>
    17c0:	20000513          	li	a0,512
    17c4:	04000893          	li	a7,64
    17c8:	03f00e13          	li	t3,63
    17cc:	bdd5                	j	16c0 <_malloc_r+0xe4>
    17ce:	00882783          	lw	a5,8(a6)
    17d2:	43d8                	lw	a4,4(a5)
    17d4:	ffc77313          	andi	t1,a4,-4
    17d8:	40d30633          	sub	a2,t1,a3
    17dc:	00d36663          	bltu	t1,a3,17e8 <_malloc_r+0x20c>
    17e0:	01062713          	slti	a4,a2,16
    17e4:	16070663          	beqz	a4,1950 <_malloc_r+0x374>
    17e8:	200008b7          	lui	a7,0x20000
    17ec:	8381a583          	lw	a1,-1992(gp) # 200005a8 <__malloc_top_pad>
    17f0:	5688a603          	lw	a2,1384(a7) # 20000568 <__malloc_sbrk_base>
    17f4:	577d                	li	a4,-1
    17f6:	95b6                	add	a1,a1,a3
    17f8:	36e60763          	beq	a2,a4,1b66 <_malloc_r+0x58a>
    17fc:	6705                	lui	a4,0x1
    17fe:	073d                	addi	a4,a4,15 # 100f <memmove+0x45>
    1800:	95ba                	add	a1,a1,a4
    1802:	777d                	lui	a4,0xfffff
    1804:	8df9                	and	a1,a1,a4
    1806:	8526                	mv	a0,s1
    1808:	fd042e23          	sw	a6,-36(s0)
    180c:	fef42023          	sw	a5,-32(s0)
    1810:	fed42223          	sw	a3,-28(s0)
    1814:	fe642423          	sw	t1,-24(s0)
    1818:	feb42623          	sw	a1,-20(s0)
    181c:	0b0010ef          	jal	28cc <_sbrk_r>
    1820:	577d                	li	a4,-1
    1822:	fec42583          	lw	a1,-20(s0)
    1826:	fe842303          	lw	t1,-24(s0)
    182a:	fe442683          	lw	a3,-28(s0)
    182e:	fe042783          	lw	a5,-32(s0)
    1832:	fdc42803          	lw	a6,-36(s0)
    1836:	8e2a                	mv	t3,a0
    1838:	200008b7          	lui	a7,0x20000
    183c:	2ce50063          	beq	a0,a4,1afc <_malloc_r+0x520>
    1840:	00678733          	add	a4,a5,t1
    1844:	2ae56a63          	bltu	a0,a4,1af8 <_malloc_r+0x51c>
    1848:	97418e93          	addi	t4,gp,-1676 # 200006e4 <__malloc_current_mallinfo>
    184c:	000ea603          	lw	a2,0(t4)
    1850:	962e                	add	a2,a2,a1
    1852:	00cea023          	sw	a2,0(t4)
    1856:	3ca70363          	beq	a4,a0,1c1c <_malloc_r+0x640>
    185a:	5688af03          	lw	t5,1384(a7) # 20000568 <__malloc_sbrk_base>
    185e:	557d                	li	a0,-1
    1860:	3caf0963          	beq	t5,a0,1c32 <_malloc_r+0x656>
    1864:	40ee0733          	sub	a4,t3,a4
    1868:	9732                	add	a4,a4,a2
    186a:	00eea023          	sw	a4,0(t4)
    186e:	007e7f13          	andi	t5,t3,7
    1872:	300f0563          	beqz	t5,1b7c <_malloc_r+0x5a0>
    1876:	ff8e7e13          	andi	t3,t3,-8
    187a:	6885                	lui	a7,0x1
    187c:	0e21                	addi	t3,t3,8
    187e:	08a1                	addi	a7,a7,8 # 1008 <memmove+0x3e>
    1880:	00be0633          	add	a2,t3,a1
    1884:	41e885b3          	sub	a1,a7,t5
    1888:	8d91                	sub	a1,a1,a2
    188a:	05d2                	slli	a1,a1,0x14
    188c:	81d1                	srli	a1,a1,0x14
    188e:	8526                	mv	a0,s1
    1890:	fdd42623          	sw	t4,-52(s0)
    1894:	fd042823          	sw	a6,-48(s0)
    1898:	fcf42a23          	sw	a5,-44(s0)
    189c:	fcd42c23          	sw	a3,-40(s0)
    18a0:	fc642e23          	sw	t1,-36(s0)
    18a4:	ffc42023          	sw	t3,-32(s0)
    18a8:	ffe42223          	sw	t5,-28(s0)
    18ac:	fec42423          	sw	a2,-24(s0)
    18b0:	feb42623          	sw	a1,-20(s0)
    18b4:	018010ef          	jal	28cc <_sbrk_r>
    18b8:	872a                	mv	a4,a0
    18ba:	557d                	li	a0,-1
    18bc:	fec42583          	lw	a1,-20(s0)
    18c0:	fe842603          	lw	a2,-24(s0)
    18c4:	fe442f03          	lw	t5,-28(s0)
    18c8:	fe042e03          	lw	t3,-32(s0)
    18cc:	fdc42303          	lw	t1,-36(s0)
    18d0:	fd842683          	lw	a3,-40(s0)
    18d4:	fd442783          	lw	a5,-44(s0)
    18d8:	fd042803          	lw	a6,-48(s0)
    18dc:	fcc42e83          	lw	t4,-52(s0)
    18e0:	38a70963          	beq	a4,a0,1c72 <_malloc_r+0x696>
    18e4:	000ea603          	lw	a2,0(t4)
    18e8:	41c70733          	sub	a4,a4,t3
    18ec:	972e                	add	a4,a4,a1
    18ee:	00176713          	ori	a4,a4,1
    18f2:	01c82423          	sw	t3,8(a6)
    18f6:	962e                	add	a2,a2,a1
    18f8:	00ee2223          	sw	a4,4(t3)
    18fc:	00cea023          	sw	a2,0(t4)
    1900:	03078763          	beq	a5,a6,192e <_malloc_r+0x352>
    1904:	453d                	li	a0,15
    1906:	32657963          	bgeu	a0,t1,1c38 <_malloc_r+0x65c>
    190a:	43cc                	lw	a1,4(a5)
    190c:	ff430713          	addi	a4,t1,-12
    1910:	9b61                	andi	a4,a4,-8
    1912:	8985                	andi	a1,a1,1
    1914:	8dd9                	or	a1,a1,a4
    1916:	c3cc                	sw	a1,4(a5)
    1918:	4895                	li	a7,5
    191a:	00e785b3          	add	a1,a5,a4
    191e:	0115a223          	sw	a7,4(a1)
    1922:	0115a423          	sw	a7,8(a1)
    1926:	34e56b63          	bltu	a0,a4,1c7c <_malloc_r+0x6a0>
    192a:	004e2703          	lw	a4,4(t3)
    192e:	8341a583          	lw	a1,-1996(gp) # 200005a4 <__malloc_max_sbrked_mem>
    1932:	00c5f463          	bgeu	a1,a2,193a <_malloc_r+0x35e>
    1936:	82c1aa23          	sw	a2,-1996(gp) # 200005a4 <__malloc_max_sbrked_mem>
    193a:	8301a583          	lw	a1,-2000(gp) # 200005a0 <__malloc_max_total_mem>
    193e:	00c5f463          	bgeu	a1,a2,1946 <_malloc_r+0x36a>
    1942:	82c1a823          	sw	a2,-2000(gp) # 200005a0 <__malloc_max_total_mem>
    1946:	87f2                	mv	a5,t3
    1948:	aa6d                	j	1b02 <_malloc_r+0x526>
    194a:	00482303          	lw	t1,4(a6)
    194e:	bbf5                	j	174a <_malloc_r+0x16e>
    1950:	0016e713          	ori	a4,a3,1
    1954:	c3d8                	sw	a4,4(a5)
    1956:	96be                	add	a3,a3,a5
    1958:	00166613          	ori	a2,a2,1
    195c:	00d82423          	sw	a3,8(a6)
    1960:	8526                	mv	a0,s1
    1962:	c2d0                	sw	a2,4(a3)
    1964:	fef42623          	sw	a5,-20(s0)
    1968:	2e41                	jal	1cf8 <__malloc_unlock>
    196a:	fec42783          	lw	a5,-20(s0)
    196e:	50f2                	lw	ra,60(sp)
    1970:	5462                	lw	s0,56(sp)
    1972:	54d2                	lw	s1,52(sp)
    1974:	00878513          	addi	a0,a5,8
    1978:	6121                	addi	sp,sp,64
    197a:	4301                	li	t1,0
    197c:	4581                	li	a1,0
    197e:	4601                	li	a2,0
    1980:	4681                	li	a3,0
    1982:	4701                	li	a4,0
    1984:	4781                	li	a5,0
    1986:	4801                	li	a6,0
    1988:	4881                	li	a7,0
    198a:	4e01                	li	t3,0
    198c:	4e81                	li	t4,0
    198e:	4f01                	li	t5,0
    1990:	4f81                	li	t6,0
    1992:	8082                	ret
    1994:	4790                	lw	a2,8(a5)
    1996:	973e                	add	a4,a4,a5
    1998:	4354                	lw	a3,4(a4)
    199a:	c64c                	sw	a1,12(a2)
    199c:	fef42623          	sw	a5,-20(s0)
    19a0:	0016e693          	ori	a3,a3,1
    19a4:	c590                	sw	a2,8(a1)
    19a6:	8526                	mv	a0,s1
    19a8:	c354                	sw	a3,4(a4)
    19aa:	26b9                	jal	1cf8 <__malloc_unlock>
    19ac:	fec42783          	lw	a5,-20(s0)
    19b0:	50f2                	lw	ra,60(sp)
    19b2:	5462                	lw	s0,56(sp)
    19b4:	54d2                	lw	s1,52(sp)
    19b6:	00878513          	addi	a0,a5,8
    19ba:	6121                	addi	sp,sp,64
    19bc:	4301                	li	t1,0
    19be:	4581                	li	a1,0
    19c0:	4601                	li	a2,0
    19c2:	4681                	li	a3,0
    19c4:	4701                	li	a4,0
    19c6:	4781                	li	a5,0
    19c8:	4801                	li	a6,0
    19ca:	4881                	li	a7,0
    19cc:	4e01                	li	t3,0
    19ce:	4e81                	li	t4,0
    19d0:	4f01                	li	t5,0
    19d2:	4f81                	li	t6,0
    19d4:	8082                	ret
    19d6:	475c                	lw	a5,12(a4)
    19d8:	0889                	addi	a7,a7,2
    19da:	d0f70be3          	beq	a4,a5,16f0 <_malloc_r+0x114>
    19de:	b91d                	j	1614 <_malloc_r+0x38>
    19e0:	00975613          	srli	a2,a4,0x9
    19e4:	4591                	li	a1,4
    19e6:	10c5f163          	bgeu	a1,a2,1ae8 <_malloc_r+0x50c>
    19ea:	45d1                	li	a1,20
    19ec:	1ec5e763          	bltu	a1,a2,1bda <_malloc_r+0x5fe>
    19f0:	05c60513          	addi	a0,a2,92
    19f4:	050e                	slli	a0,a0,0x3
    19f6:	05b60593          	addi	a1,a2,91
    19fa:	9542                	add	a0,a0,a6
    19fc:	4110                	lw	a2,0(a0)
    19fe:	1561                	addi	a0,a0,-8
    1a00:	00c51663          	bne	a0,a2,1a0c <_malloc_r+0x430>
    1a04:	a29d                	j	1b6a <_malloc_r+0x58e>
    1a06:	4610                	lw	a2,8(a2)
    1a08:	00c50663          	beq	a0,a2,1a14 <_malloc_r+0x438>
    1a0c:	424c                	lw	a1,4(a2)
    1a0e:	99f1                	andi	a1,a1,-4
    1a10:	feb76be3          	bltu	a4,a1,1a06 <_malloc_r+0x42a>
    1a14:	4648                	lw	a0,12(a2)
    1a16:	c7c8                	sw	a0,12(a5)
    1a18:	c790                	sw	a2,8(a5)
    1a1a:	c51c                	sw	a5,8(a0)
    1a1c:	c65c                	sw	a5,12(a2)
    1a1e:	b335                	j	174a <_malloc_r+0x16e>
    1a20:	4751                	li	a4,20
    1a22:	0ef77c63          	bgeu	a4,a5,1b1a <_malloc_r+0x53e>
    1a26:	05400713          	li	a4,84
    1a2a:	1cf76463          	bltu	a4,a5,1bf2 <_malloc_r+0x616>
    1a2e:	00c6d793          	srli	a5,a3,0xc
    1a32:	06f78893          	addi	a7,a5,111
    1a36:	06e78e13          	addi	t3,a5,110
    1a3a:	00389513          	slli	a0,a7,0x3
    1a3e:	b149                	j	16c0 <_malloc_r+0xe4>
    1a40:	0f85                	addi	t6,t6,1
    1a42:	003ff793          	andi	a5,t6,3
    1a46:	0321                	addi	t1,t1,8
    1a48:	0e078563          	beqz	a5,1b32 <_malloc_r+0x556>
    1a4c:	00c32703          	lw	a4,12(t1)
    1a50:	bb1d                	j	1786 <_malloc_r+0x1aa>
    1a52:	4788                	lw	a0,8(a5)
    1a54:	0016e893          	ori	a7,a3,1
    1a58:	0117a223          	sw	a7,4(a5)
    1a5c:	c558                	sw	a4,12(a0)
    1a5e:	c708                	sw	a0,8(a4)
    1a60:	96be                	add	a3,a3,a5
    1a62:	00d82a23          	sw	a3,20(a6)
    1a66:	00d82823          	sw	a3,16(a6)
    1a6a:	0015e713          	ori	a4,a1,1
    1a6e:	963e                	add	a2,a2,a5
    1a70:	01d6a623          	sw	t4,12(a3)
    1a74:	01d6a423          	sw	t4,8(a3)
    1a78:	c2d8                	sw	a4,4(a3)
    1a7a:	8526                	mv	a0,s1
    1a7c:	c20c                	sw	a1,0(a2)
    1a7e:	fef42623          	sw	a5,-20(s0)
    1a82:	2c9d                	jal	1cf8 <__malloc_unlock>
    1a84:	fec42783          	lw	a5,-20(s0)
    1a88:	00878513          	addi	a0,a5,8
    1a8c:	bed9                	j	1662 <_malloc_r+0x86>
    1a8e:	0036d893          	srli	a7,a3,0x3
    1a92:	00868713          	addi	a4,a3,8
    1a96:	b6ad                	j	1600 <_malloc_r+0x24>
    1a98:	973e                	add	a4,a4,a5
    1a9a:	4354                	lw	a3,4(a4)
    1a9c:	fef42623          	sw	a5,-20(s0)
    1aa0:	8526                	mv	a0,s1
    1aa2:	0016e693          	ori	a3,a3,1
    1aa6:	c354                	sw	a3,4(a4)
    1aa8:	2c81                	jal	1cf8 <__malloc_unlock>
    1aaa:	fec42783          	lw	a5,-20(s0)
    1aae:	00878513          	addi	a0,a5,8
    1ab2:	be45                	j	1662 <_malloc_r+0x86>
    1ab4:	0016e593          	ori	a1,a3,1
    1ab8:	c3cc                	sw	a1,4(a5)
    1aba:	96be                	add	a3,a3,a5
    1abc:	00d82a23          	sw	a3,20(a6)
    1ac0:	00d82823          	sw	a3,16(a6)
    1ac4:	00166593          	ori	a1,a2,1
    1ac8:	973e                	add	a4,a4,a5
    1aca:	01d6a623          	sw	t4,12(a3)
    1ace:	01d6a423          	sw	t4,8(a3)
    1ad2:	c2cc                	sw	a1,4(a3)
    1ad4:	8526                	mv	a0,s1
    1ad6:	c310                	sw	a2,0(a4)
    1ad8:	fef42623          	sw	a5,-20(s0)
    1adc:	2c31                	jal	1cf8 <__malloc_unlock>
    1ade:	fec42783          	lw	a5,-20(s0)
    1ae2:	00878513          	addi	a0,a5,8
    1ae6:	beb5                	j	1662 <_malloc_r+0x86>
    1ae8:	00675613          	srli	a2,a4,0x6
    1aec:	03960513          	addi	a0,a2,57
    1af0:	050e                	slli	a0,a0,0x3
    1af2:	03860593          	addi	a1,a2,56
    1af6:	b711                	j	19fa <_malloc_r+0x41e>
    1af8:	11078a63          	beq	a5,a6,1c0c <_malloc_r+0x630>
    1afc:	00882783          	lw	a5,8(a6)
    1b00:	43d8                	lw	a4,4(a5)
    1b02:	9b71                	andi	a4,a4,-4
    1b04:	40d70633          	sub	a2,a4,a3
    1b08:	00d76663          	bltu	a4,a3,1b14 <_malloc_r+0x538>
    1b0c:	01062713          	slti	a4,a2,16
    1b10:	e40700e3          	beqz	a4,1950 <_malloc_r+0x374>
    1b14:	8526                	mv	a0,s1
    1b16:	22cd                	jal	1cf8 <__malloc_unlock>
    1b18:	b6a1                	j	1660 <_malloc_r+0x84>
    1b1a:	05c78893          	addi	a7,a5,92
    1b1e:	05b78e13          	addi	t3,a5,91
    1b22:	00389513          	slli	a0,a7,0x3
    1b26:	be69                	j	16c0 <_malloc_r+0xe4>
    1b28:	008f2783          	lw	a5,8(t5)
    1b2c:	18fd                	addi	a7,a7,-1
    1b2e:	1be79763          	bne	a5,t5,1cdc <_malloc_r+0x700>
    1b32:	0038f793          	andi	a5,a7,3
    1b36:	1f61                	addi	t5,t5,-8
    1b38:	fbe5                	bnez	a5,1b28 <_malloc_r+0x54c>
    1b3a:	00482703          	lw	a4,4(a6)
    1b3e:	fff54793          	not	a5,a0
    1b42:	8ff9                	and	a5,a5,a4
    1b44:	00f82223          	sw	a5,4(a6)
    1b48:	0506                	slli	a0,a0,0x1
    1b4a:	fff50713          	addi	a4,a0,-1
    1b4e:	c8f770e3          	bgeu	a4,a5,17ce <_malloc_r+0x1f2>
    1b52:	00f57733          	and	a4,a0,a5
    1b56:	e711                	bnez	a4,1b62 <_malloc_r+0x586>
    1b58:	0506                	slli	a0,a0,0x1
    1b5a:	00f57733          	and	a4,a0,a5
    1b5e:	0f91                	addi	t6,t6,4
    1b60:	df65                	beqz	a4,1b58 <_malloc_r+0x57c>
    1b62:	88fe                	mv	a7,t6
    1b64:	b911                	j	1778 <_malloc_r+0x19c>
    1b66:	05c1                	addi	a1,a1,16
    1b68:	b979                	j	1806 <_malloc_r+0x22a>
    1b6a:	8589                	srai	a1,a1,0x2
    1b6c:	4705                	li	a4,1
    1b6e:	00b71733          	sll	a4,a4,a1
    1b72:	00e36333          	or	t1,t1,a4
    1b76:	00682223          	sw	t1,4(a6)
    1b7a:	bd71                	j	1a16 <_malloc_r+0x43a>
    1b7c:	00be0633          	add	a2,t3,a1
    1b80:	40c005b3          	neg	a1,a2
    1b84:	05d2                	slli	a1,a1,0x14
    1b86:	81d1                	srli	a1,a1,0x14
    1b88:	8526                	mv	a0,s1
    1b8a:	fdd42823          	sw	t4,-48(s0)
    1b8e:	fd042a23          	sw	a6,-44(s0)
    1b92:	fcf42c23          	sw	a5,-40(s0)
    1b96:	fcd42e23          	sw	a3,-36(s0)
    1b9a:	fe642023          	sw	t1,-32(s0)
    1b9e:	ffc42223          	sw	t3,-28(s0)
    1ba2:	feb42623          	sw	a1,-20(s0)
    1ba6:	fec42423          	sw	a2,-24(s0)
    1baa:	523000ef          	jal	28cc <_sbrk_r>
    1bae:	872a                	mv	a4,a0
    1bb0:	557d                	li	a0,-1
    1bb2:	fec42583          	lw	a1,-20(s0)
    1bb6:	fe442e03          	lw	t3,-28(s0)
    1bba:	fe042303          	lw	t1,-32(s0)
    1bbe:	fdc42683          	lw	a3,-36(s0)
    1bc2:	fd842783          	lw	a5,-40(s0)
    1bc6:	fd442803          	lw	a6,-44(s0)
    1bca:	fd042e83          	lw	t4,-48(s0)
    1bce:	d0a71be3          	bne	a4,a0,18e4 <_malloc_r+0x308>
    1bd2:	fe842703          	lw	a4,-24(s0)
    1bd6:	4581                	li	a1,0
    1bd8:	b331                	j	18e4 <_malloc_r+0x308>
    1bda:	05400593          	li	a1,84
    1bde:	06c5e163          	bltu	a1,a2,1c40 <_malloc_r+0x664>
    1be2:	00c75613          	srli	a2,a4,0xc
    1be6:	06f60513          	addi	a0,a2,111
    1bea:	050e                	slli	a0,a0,0x3
    1bec:	06e60593          	addi	a1,a2,110
    1bf0:	b529                	j	19fa <_malloc_r+0x41e>
    1bf2:	15400713          	li	a4,340
    1bf6:	06f76163          	bltu	a4,a5,1c58 <_malloc_r+0x67c>
    1bfa:	00f6d793          	srli	a5,a3,0xf
    1bfe:	07878893          	addi	a7,a5,120
    1c02:	07778e13          	addi	t3,a5,119
    1c06:	00389513          	slli	a0,a7,0x3
    1c0a:	bc5d                	j	16c0 <_malloc_r+0xe4>
    1c0c:	97418e93          	addi	t4,gp,-1676 # 200006e4 <__malloc_current_mallinfo>
    1c10:	000ea603          	lw	a2,0(t4)
    1c14:	962e                	add	a2,a2,a1
    1c16:	00cea023          	sw	a2,0(t4)
    1c1a:	b181                	j	185a <_malloc_r+0x27e>
    1c1c:	0552                	slli	a0,a0,0x14
    1c1e:	c2051ee3          	bnez	a0,185a <_malloc_r+0x27e>
    1c22:	00882e03          	lw	t3,8(a6)
    1c26:	959a                	add	a1,a1,t1
    1c28:	0015e713          	ori	a4,a1,1
    1c2c:	00ee2223          	sw	a4,4(t3)
    1c30:	b9fd                	j	192e <_malloc_r+0x352>
    1c32:	57c8a423          	sw	t3,1384(a7)
    1c36:	b925                	j	186e <_malloc_r+0x292>
    1c38:	4785                	li	a5,1
    1c3a:	00fe2223          	sw	a5,4(t3)
    1c3e:	bdd9                	j	1b14 <_malloc_r+0x538>
    1c40:	15400593          	li	a1,340
    1c44:	06c5e463          	bltu	a1,a2,1cac <_malloc_r+0x6d0>
    1c48:	00f75613          	srli	a2,a4,0xf
    1c4c:	07860513          	addi	a0,a2,120
    1c50:	050e                	slli	a0,a0,0x3
    1c52:	07760593          	addi	a1,a2,119
    1c56:	b355                	j	19fa <_malloc_r+0x41e>
    1c58:	55400713          	li	a4,1364
    1c5c:	06f76463          	bltu	a4,a5,1cc4 <_malloc_r+0x6e8>
    1c60:	0126d793          	srli	a5,a3,0x12
    1c64:	07d78893          	addi	a7,a5,125
    1c68:	07c78e13          	addi	t3,a5,124
    1c6c:	00389513          	slli	a0,a7,0x3
    1c70:	bc81                	j	16c0 <_malloc_r+0xe4>
    1c72:	1f61                	addi	t5,t5,-8
    1c74:	01e60733          	add	a4,a2,t5
    1c78:	4581                	li	a1,0
    1c7a:	b1ad                	j	18e4 <_malloc_r+0x308>
    1c7c:	00878593          	addi	a1,a5,8
    1c80:	8526                	mv	a0,s1
    1c82:	ffd42223          	sw	t4,-28(s0)
    1c86:	ff042423          	sw	a6,-24(s0)
    1c8a:	fed42623          	sw	a3,-20(s0)
    1c8e:	f0aff0ef          	jal	1398 <_free_r>
    1c92:	fe842803          	lw	a6,-24(s0)
    1c96:	fe442e83          	lw	t4,-28(s0)
    1c9a:	fec42683          	lw	a3,-20(s0)
    1c9e:	00882e03          	lw	t3,8(a6)
    1ca2:	000ea603          	lw	a2,0(t4)
    1ca6:	004e2703          	lw	a4,4(t3)
    1caa:	b151                	j	192e <_malloc_r+0x352>
    1cac:	55400593          	li	a1,1364
    1cb0:	02c5e163          	bltu	a1,a2,1cd2 <_malloc_r+0x6f6>
    1cb4:	01275613          	srli	a2,a4,0x12
    1cb8:	07d60513          	addi	a0,a2,125
    1cbc:	050e                	slli	a0,a0,0x3
    1cbe:	07c60593          	addi	a1,a2,124
    1cc2:	bb25                	j	19fa <_malloc_r+0x41e>
    1cc4:	3f800513          	li	a0,1016
    1cc8:	07f00893          	li	a7,127
    1ccc:	07e00e13          	li	t3,126
    1cd0:	bac5                	j	16c0 <_malloc_r+0xe4>
    1cd2:	3f800513          	li	a0,1016
    1cd6:	07e00593          	li	a1,126
    1cda:	b305                	j	19fa <_malloc_r+0x41e>
    1cdc:	00482783          	lw	a5,4(a6)
    1ce0:	b5a5                	j	1b48 <_malloc_r+0x56c>

00001ce2 <__malloc_lock>:
    1ce2:	1141                	addi	sp,sp,-16
    1ce4:	c422                	sw	s0,8(sp)
    1ce6:	c606                	sw	ra,12(sp)
    1ce8:	0800                	addi	s0,sp,16
    1cea:	4422                	lw	s0,8(sp)
    1cec:	40b2                	lw	ra,12(sp)
    1cee:	81818513          	addi	a0,gp,-2024 # 20000588 <__lock___malloc_recursive_mutex>
    1cf2:	0141                	addi	sp,sp,16
    1cf4:	e10fe06f          	j	304 <__retarget_lock_acquire_recursive>

00001cf8 <__malloc_unlock>:
    1cf8:	1141                	addi	sp,sp,-16
    1cfa:	c422                	sw	s0,8(sp)
    1cfc:	c606                	sw	ra,12(sp)
    1cfe:	0800                	addi	s0,sp,16
    1d00:	4422                	lw	s0,8(sp)
    1d02:	40b2                	lw	ra,12(sp)
    1d04:	81818513          	addi	a0,gp,-2024 # 20000588 <__lock___malloc_recursive_mutex>
    1d08:	0141                	addi	sp,sp,16
    1d0a:	e3efe06f          	j	348 <__retarget_lock_release_recursive>

00001d0e <_realloc_r>:
    1d0e:	1a058163          	beqz	a1,1eb0 <_realloc_r+0x1a2>
    1d12:	1101                	addi	sp,sp,-32
    1d14:	cc22                	sw	s0,24(sp)
    1d16:	ca26                	sw	s1,20(sp)
    1d18:	1000                	addi	s0,sp,32
    1d1a:	c84a                	sw	s2,16(sp)
    1d1c:	ce06                	sw	ra,28(sp)
    1d1e:	84ae                	mv	s1,a1
    1d20:	892a                	mv	s2,a0
    1d22:	fec42623          	sw	a2,-20(s0)
    1d26:	3f75                	jal	1ce2 <__malloc_lock>
    1d28:	fec42583          	lw	a1,-20(s0)
    1d2c:	4759                	li	a4,22
    1d2e:	00b58793          	addi	a5,a1,11
    1d32:	10f77463          	bgeu	a4,a5,1e3a <_realloc_r+0x12c>
    1d36:	9be1                	andi	a5,a5,-8
    1d38:	86be                	mv	a3,a5
    1d3a:	01f7d713          	srli	a4,a5,0x1f
    1d3e:	18b7ed63          	bltu	a5,a1,1ed8 <_realloc_r+0x1ca>
    1d42:	18071b63          	bnez	a4,1ed8 <_realloc_r+0x1ca>
    1d46:	ffc4a603          	lw	a2,-4(s1)
    1d4a:	ff848813          	addi	a6,s1,-8
    1d4e:	ffc67713          	andi	a4,a2,-4
    1d52:	0ed75f63          	bge	a4,a3,1e50 <_realloc_r+0x142>
    1d56:	20000337          	lui	t1,0x20000
    1d5a:	14c30313          	addi	t1,t1,332 # 2000014c <__malloc_av_>
    1d5e:	00832883          	lw	a7,8(t1)
    1d62:	00e80e33          	add	t3,a6,a4
    1d66:	004e2503          	lw	a0,4(t3)
    1d6a:	19c88c63          	beq	a7,t3,1f02 <_realloc_r+0x1f4>
    1d6e:	ffe57893          	andi	a7,a0,-2
    1d72:	98f2                	add	a7,a7,t3
    1d74:	0048a883          	lw	a7,4(a7)
    1d78:	0018f893          	andi	a7,a7,1
    1d7c:	10089f63          	bnez	a7,1e9a <_realloc_r+0x18c>
    1d80:	9971                	andi	a0,a0,-4
    1d82:	00a708b3          	add	a7,a4,a0
    1d86:	0ad8de63          	bge	a7,a3,1e42 <_realloc_r+0x134>
    1d8a:	8a05                	andi	a2,a2,1
    1d8c:	e20d                	bnez	a2,1dae <_realloc_r+0xa0>
    1d8e:	ff84ae83          	lw	t4,-8(s1)
    1d92:	41d80eb3          	sub	t4,a6,t4
    1d96:	004ea603          	lw	a2,4(t4)
    1d9a:	9a71                	andi	a2,a2,-4
    1d9c:	9532                	add	a0,a0,a2
    1d9e:	00e508b3          	add	a7,a0,a4
    1da2:	28d8d163          	bge	a7,a3,2024 <_realloc_r+0x316>
    1da6:	00c708b3          	add	a7,a4,a2
    1daa:	20d8dd63          	bge	a7,a3,1fc4 <_realloc_r+0x2b6>
    1dae:	854a                	mv	a0,s2
    1db0:	fee42223          	sw	a4,-28(s0)
    1db4:	ff042423          	sw	a6,-24(s0)
    1db8:	fef42623          	sw	a5,-20(s0)
    1dbc:	821ff0ef          	jal	15dc <_malloc_r>
    1dc0:	fec42783          	lw	a5,-20(s0)
    1dc4:	fe842803          	lw	a6,-24(s0)
    1dc8:	fe442703          	lw	a4,-28(s0)
    1dcc:	86aa                	mv	a3,a0
    1dce:	34050d63          	beqz	a0,2128 <_realloc_r+0x41a>
    1dd2:	ffc4a603          	lw	a2,-4(s1)
    1dd6:	ff850593          	addi	a1,a0,-8
    1dda:	9a79                	andi	a2,a2,-2
    1ddc:	9642                	add	a2,a2,a6
    1dde:	1cb60263          	beq	a2,a1,1fa2 <_realloc_r+0x294>
    1de2:	ffc70613          	addi	a2,a4,-4 # ffffeffc <_eusrstack+0xdfff9ffc>
    1de6:	02400793          	li	a5,36
    1dea:	22c7e563          	bltu	a5,a2,2014 <_realloc_r+0x306>
    1dee:	474d                	li	a4,19
    1df0:	1ac76e63          	bltu	a4,a2,1fac <_realloc_r+0x29e>
    1df4:	87aa                	mv	a5,a0
    1df6:	8726                	mv	a4,s1
    1df8:	4310                	lw	a2,0(a4)
    1dfa:	c390                	sw	a2,0(a5)
    1dfc:	4350                	lw	a2,4(a4)
    1dfe:	c3d0                	sw	a2,4(a5)
    1e00:	4718                	lw	a4,8(a4)
    1e02:	c798                	sw	a4,8(a5)
    1e04:	85a6                	mv	a1,s1
    1e06:	854a                	mv	a0,s2
    1e08:	fed42623          	sw	a3,-20(s0)
    1e0c:	d8cff0ef          	jal	1398 <_free_r>
    1e10:	854a                	mv	a0,s2
    1e12:	35dd                	jal	1cf8 <__malloc_unlock>
    1e14:	fec42683          	lw	a3,-20(s0)
    1e18:	40f2                	lw	ra,28(sp)
    1e1a:	4462                	lw	s0,24(sp)
    1e1c:	44d2                	lw	s1,20(sp)
    1e1e:	4942                	lw	s2,16(sp)
    1e20:	8536                	mv	a0,a3
    1e22:	6105                	addi	sp,sp,32
    1e24:	4301                	li	t1,0
    1e26:	4581                	li	a1,0
    1e28:	4601                	li	a2,0
    1e2a:	4681                	li	a3,0
    1e2c:	4701                	li	a4,0
    1e2e:	4781                	li	a5,0
    1e30:	4801                	li	a6,0
    1e32:	4881                	li	a7,0
    1e34:	4e01                	li	t3,0
    1e36:	4e81                	li	t4,0
    1e38:	8082                	ret
    1e3a:	46c1                	li	a3,16
    1e3c:	87b6                	mv	a5,a3
    1e3e:	4701                	li	a4,0
    1e40:	bdfd                	j	1d3e <_realloc_r+0x30>
    1e42:	00ce2683          	lw	a3,12(t3)
    1e46:	008e2603          	lw	a2,8(t3)
    1e4a:	8746                	mv	a4,a7
    1e4c:	c654                	sw	a3,12(a2)
    1e4e:	c690                	sw	a2,8(a3)
    1e50:	00482683          	lw	a3,4(a6)
    1e54:	40f70533          	sub	a0,a4,a5
    1e58:	45bd                	li	a1,15
    1e5a:	8a85                	andi	a3,a3,1
    1e5c:	00e80633          	add	a2,a6,a4
    1e60:	04a5eb63          	bltu	a1,a0,1eb6 <_realloc_r+0x1a8>
    1e64:	8ed9                	or	a3,a3,a4
    1e66:	00d82223          	sw	a3,4(a6)
    1e6a:	425c                	lw	a5,4(a2)
    1e6c:	0017e793          	ori	a5,a5,1
    1e70:	c25c                	sw	a5,4(a2)
    1e72:	854a                	mv	a0,s2
    1e74:	3551                	jal	1cf8 <__malloc_unlock>
    1e76:	86a6                	mv	a3,s1
    1e78:	40f2                	lw	ra,28(sp)
    1e7a:	4462                	lw	s0,24(sp)
    1e7c:	44d2                	lw	s1,20(sp)
    1e7e:	4942                	lw	s2,16(sp)
    1e80:	8536                	mv	a0,a3
    1e82:	6105                	addi	sp,sp,32
    1e84:	4301                	li	t1,0
    1e86:	4581                	li	a1,0
    1e88:	4601                	li	a2,0
    1e8a:	4681                	li	a3,0
    1e8c:	4701                	li	a4,0
    1e8e:	4781                	li	a5,0
    1e90:	4801                	li	a6,0
    1e92:	4881                	li	a7,0
    1e94:	4e01                	li	t3,0
    1e96:	4e81                	li	t4,0
    1e98:	8082                	ret
    1e9a:	8a05                	andi	a2,a2,1
    1e9c:	f00619e3          	bnez	a2,1dae <_realloc_r+0xa0>
    1ea0:	ff84ae83          	lw	t4,-8(s1)
    1ea4:	41d80eb3          	sub	t4,a6,t4
    1ea8:	004ea603          	lw	a2,4(t4)
    1eac:	9a71                	andi	a2,a2,-4
    1eae:	bde5                	j	1da6 <_realloc_r+0x98>
    1eb0:	85b2                	mv	a1,a2
    1eb2:	f2aff06f          	j	15dc <_malloc_r>
    1eb6:	8edd                	or	a3,a3,a5
    1eb8:	00d82223          	sw	a3,4(a6)
    1ebc:	00f805b3          	add	a1,a6,a5
    1ec0:	00156513          	ori	a0,a0,1
    1ec4:	c1c8                	sw	a0,4(a1)
    1ec6:	425c                	lw	a5,4(a2)
    1ec8:	05a1                	addi	a1,a1,8
    1eca:	854a                	mv	a0,s2
    1ecc:	0017e793          	ori	a5,a5,1
    1ed0:	c25c                	sw	a5,4(a2)
    1ed2:	cc6ff0ef          	jal	1398 <_free_r>
    1ed6:	bf71                	j	1e72 <_realloc_r+0x164>
    1ed8:	47b1                	li	a5,12
    1eda:	00f92023          	sw	a5,0(s2)
    1ede:	4681                	li	a3,0
    1ee0:	40f2                	lw	ra,28(sp)
    1ee2:	4462                	lw	s0,24(sp)
    1ee4:	44d2                	lw	s1,20(sp)
    1ee6:	4942                	lw	s2,16(sp)
    1ee8:	8536                	mv	a0,a3
    1eea:	6105                	addi	sp,sp,32
    1eec:	4301                	li	t1,0
    1eee:	4581                	li	a1,0
    1ef0:	4601                	li	a2,0
    1ef2:	4681                	li	a3,0
    1ef4:	4701                	li	a4,0
    1ef6:	4781                	li	a5,0
    1ef8:	4801                	li	a6,0
    1efa:	4881                	li	a7,0
    1efc:	4e01                	li	t3,0
    1efe:	4e81                	li	t4,0
    1f00:	8082                	ret
    1f02:	9971                	andi	a0,a0,-4
    1f04:	00e508b3          	add	a7,a0,a4
    1f08:	01078e13          	addi	t3,a5,16
    1f0c:	1bc8da63          	bge	a7,t3,20c0 <_realloc_r+0x3b2>
    1f10:	8a05                	andi	a2,a2,1
    1f12:	e8061ee3          	bnez	a2,1dae <_realloc_r+0xa0>
    1f16:	ff84ae83          	lw	t4,-8(s1)
    1f1a:	41d80eb3          	sub	t4,a6,t4
    1f1e:	004ea603          	lw	a2,4(t4)
    1f22:	9a71                	andi	a2,a2,-4
    1f24:	9532                	add	a0,a0,a2
    1f26:	00e508b3          	add	a7,a0,a4
    1f2a:	e7c8cee3          	blt	a7,t3,1da6 <_realloc_r+0x98>
    1f2e:	00cea683          	lw	a3,12(t4)
    1f32:	008ea583          	lw	a1,8(t4)
    1f36:	ffc70613          	addi	a2,a4,-4
    1f3a:	02400713          	li	a4,36
    1f3e:	c5d4                	sw	a3,12(a1)
    1f40:	c68c                	sw	a1,8(a3)
    1f42:	008e8693          	addi	a3,t4,8
    1f46:	20c76c63          	bltu	a4,a2,215e <_realloc_r+0x450>
    1f4a:	45cd                	li	a1,19
    1f4c:	8736                	mv	a4,a3
    1f4e:	00c5fe63          	bgeu	a1,a2,1f6a <_realloc_r+0x25c>
    1f52:	408c                	lw	a1,0(s1)
    1f54:	476d                	li	a4,27
    1f56:	00bea423          	sw	a1,8(t4)
    1f5a:	40cc                	lw	a1,4(s1)
    1f5c:	00bea623          	sw	a1,12(t4)
    1f60:	24c76363          	bltu	a4,a2,21a6 <_realloc_r+0x498>
    1f64:	04a1                	addi	s1,s1,8
    1f66:	010e8713          	addi	a4,t4,16
    1f6a:	4090                	lw	a2,0(s1)
    1f6c:	c310                	sw	a2,0(a4)
    1f6e:	40d0                	lw	a2,4(s1)
    1f70:	c350                	sw	a2,4(a4)
    1f72:	4490                	lw	a2,8(s1)
    1f74:	c710                	sw	a2,8(a4)
    1f76:	00fe8633          	add	a2,t4,a5
    1f7a:	40f88733          	sub	a4,a7,a5
    1f7e:	00c32423          	sw	a2,8(t1)
    1f82:	00176713          	ori	a4,a4,1
    1f86:	c258                	sw	a4,4(a2)
    1f88:	004ea703          	lw	a4,4(t4)
    1f8c:	854a                	mv	a0,s2
    1f8e:	fed42623          	sw	a3,-20(s0)
    1f92:	8b05                	andi	a4,a4,1
    1f94:	8fd9                	or	a5,a5,a4
    1f96:	00fea223          	sw	a5,4(t4)
    1f9a:	3bb9                	jal	1cf8 <__malloc_unlock>
    1f9c:	fec42683          	lw	a3,-20(s0)
    1fa0:	bde1                	j	1e78 <_realloc_r+0x16a>
    1fa2:	ffc52683          	lw	a3,-4(a0)
    1fa6:	9af1                	andi	a3,a3,-4
    1fa8:	9736                	add	a4,a4,a3
    1faa:	b55d                	j	1e50 <_realloc_r+0x142>
    1fac:	408c                	lw	a1,0(s1)
    1fae:	476d                	li	a4,27
    1fb0:	c10c                	sw	a1,0(a0)
    1fb2:	40cc                	lw	a1,4(s1)
    1fb4:	c14c                	sw	a1,4(a0)
    1fb6:	0cc76563          	bltu	a4,a2,2080 <_realloc_r+0x372>
    1fba:	00848713          	addi	a4,s1,8
    1fbe:	00850793          	addi	a5,a0,8
    1fc2:	bd1d                	j	1df8 <_realloc_r+0xea>
    1fc4:	00cea683          	lw	a3,12(t4)
    1fc8:	008ea583          	lw	a1,8(t4)
    1fcc:	ffc70613          	addi	a2,a4,-4
    1fd0:	02400513          	li	a0,36
    1fd4:	c5d4                	sw	a3,12(a1)
    1fd6:	c68c                	sw	a1,8(a3)
    1fd8:	008e8693          	addi	a3,t4,8
    1fdc:	0ac56d63          	bltu	a0,a2,2096 <_realloc_r+0x388>
    1fe0:	45cd                	li	a1,19
    1fe2:	8736                	mv	a4,a3
    1fe4:	00c5fe63          	bgeu	a1,a2,2000 <_realloc_r+0x2f2>
    1fe8:	408c                	lw	a1,0(s1)
    1fea:	476d                	li	a4,27
    1fec:	00bea423          	sw	a1,8(t4)
    1ff0:	40cc                	lw	a1,4(s1)
    1ff2:	00bea623          	sw	a1,12(t4)
    1ff6:	10c76d63          	bltu	a4,a2,2110 <_realloc_r+0x402>
    1ffa:	04a1                	addi	s1,s1,8
    1ffc:	010e8713          	addi	a4,t4,16
    2000:	4090                	lw	a2,0(s1)
    2002:	c310                	sw	a2,0(a4)
    2004:	40d0                	lw	a2,4(s1)
    2006:	c350                	sw	a2,4(a4)
    2008:	4490                	lw	a2,8(s1)
    200a:	c710                	sw	a2,8(a4)
    200c:	84b6                	mv	s1,a3
    200e:	8746                	mv	a4,a7
    2010:	8876                	mv	a6,t4
    2012:	bd3d                	j	1e50 <_realloc_r+0x142>
    2014:	85a6                	mv	a1,s1
    2016:	fea42623          	sw	a0,-20(s0)
    201a:	fb1fe0ef          	jal	fca <memmove>
    201e:	fec42683          	lw	a3,-20(s0)
    2022:	b3cd                	j	1e04 <_realloc_r+0xf6>
    2024:	00ce2683          	lw	a3,12(t3)
    2028:	008e2583          	lw	a1,8(t3)
    202c:	ffc70613          	addi	a2,a4,-4
    2030:	02400513          	li	a0,36
    2034:	c5d4                	sw	a3,12(a1)
    2036:	c68c                	sw	a1,8(a3)
    2038:	00cea703          	lw	a4,12(t4)
    203c:	008ea683          	lw	a3,8(t4)
    2040:	008e8813          	addi	a6,t4,8
    2044:	c6d8                	sw	a4,12(a3)
    2046:	c714                	sw	a3,8(a4)
    2048:	08c56f63          	bltu	a0,a2,20e6 <_realloc_r+0x3d8>
    204c:	46cd                	li	a3,19
    204e:	8742                	mv	a4,a6
    2050:	00c6fe63          	bgeu	a3,a2,206c <_realloc_r+0x35e>
    2054:	4094                	lw	a3,0(s1)
    2056:	476d                	li	a4,27
    2058:	00dea423          	sw	a3,8(t4)
    205c:	40d4                	lw	a3,4(s1)
    205e:	00dea623          	sw	a3,12(t4)
    2062:	0ec76063          	bltu	a4,a2,2142 <_realloc_r+0x434>
    2066:	04a1                	addi	s1,s1,8
    2068:	010e8713          	addi	a4,t4,16
    206c:	4094                	lw	a3,0(s1)
    206e:	c314                	sw	a3,0(a4)
    2070:	40d4                	lw	a3,4(s1)
    2072:	c354                	sw	a3,4(a4)
    2074:	4494                	lw	a3,8(s1)
    2076:	c714                	sw	a3,8(a4)
    2078:	84c2                	mv	s1,a6
    207a:	8746                	mv	a4,a7
    207c:	8876                	mv	a6,t4
    207e:	bbc9                	j	1e50 <_realloc_r+0x142>
    2080:	4498                	lw	a4,8(s1)
    2082:	c518                	sw	a4,8(a0)
    2084:	44d8                	lw	a4,12(s1)
    2086:	c558                	sw	a4,12(a0)
    2088:	0af60463          	beq	a2,a5,2130 <_realloc_r+0x422>
    208c:	01048713          	addi	a4,s1,16
    2090:	01050793          	addi	a5,a0,16
    2094:	b395                	j	1df8 <_realloc_r+0xea>
    2096:	8536                	mv	a0,a3
    2098:	85a6                	mv	a1,s1
    209a:	ffd42023          	sw	t4,-32(s0)
    209e:	fef42223          	sw	a5,-28(s0)
    20a2:	ff142423          	sw	a7,-24(s0)
    20a6:	fed42623          	sw	a3,-20(s0)
    20aa:	f21fe0ef          	jal	fca <memmove>
    20ae:	fe042e83          	lw	t4,-32(s0)
    20b2:	fe442783          	lw	a5,-28(s0)
    20b6:	fe842883          	lw	a7,-24(s0)
    20ba:	fec42683          	lw	a3,-20(s0)
    20be:	b7b9                	j	200c <_realloc_r+0x2fe>
    20c0:	983e                	add	a6,a6,a5
    20c2:	40f88733          	sub	a4,a7,a5
    20c6:	01032423          	sw	a6,8(t1)
    20ca:	00176713          	ori	a4,a4,1
    20ce:	00e82223          	sw	a4,4(a6)
    20d2:	ffc4a703          	lw	a4,-4(s1)
    20d6:	854a                	mv	a0,s2
    20d8:	8b05                	andi	a4,a4,1
    20da:	8fd9                	or	a5,a5,a4
    20dc:	fef4ae23          	sw	a5,-4(s1)
    20e0:	3921                	jal	1cf8 <__malloc_unlock>
    20e2:	86a6                	mv	a3,s1
    20e4:	bb51                	j	1e78 <_realloc_r+0x16a>
    20e6:	8542                	mv	a0,a6
    20e8:	85a6                	mv	a1,s1
    20ea:	ffd42023          	sw	t4,-32(s0)
    20ee:	fef42223          	sw	a5,-28(s0)
    20f2:	ff142423          	sw	a7,-24(s0)
    20f6:	ff042623          	sw	a6,-20(s0)
    20fa:	ed1fe0ef          	jal	fca <memmove>
    20fe:	fec42803          	lw	a6,-20(s0)
    2102:	fe842883          	lw	a7,-24(s0)
    2106:	fe442783          	lw	a5,-28(s0)
    210a:	fe042e83          	lw	t4,-32(s0)
    210e:	b7ad                	j	2078 <_realloc_r+0x36a>
    2110:	4498                	lw	a4,8(s1)
    2112:	00eea823          	sw	a4,16(t4)
    2116:	44d8                	lw	a4,12(s1)
    2118:	00eeaa23          	sw	a4,20(t4)
    211c:	06a60a63          	beq	a2,a0,2190 <_realloc_r+0x482>
    2120:	04c1                	addi	s1,s1,16
    2122:	018e8713          	addi	a4,t4,24
    2126:	bde9                	j	2000 <_realloc_r+0x2f2>
    2128:	854a                	mv	a0,s2
    212a:	36f9                	jal	1cf8 <__malloc_unlock>
    212c:	4681                	li	a3,0
    212e:	bb4d                	j	1ee0 <_realloc_r+0x1d2>
    2130:	4890                	lw	a2,16(s1)
    2132:	01848713          	addi	a4,s1,24
    2136:	01850793          	addi	a5,a0,24
    213a:	c910                	sw	a2,16(a0)
    213c:	48d0                	lw	a2,20(s1)
    213e:	c950                	sw	a2,20(a0)
    2140:	b965                	j	1df8 <_realloc_r+0xea>
    2142:	4494                	lw	a3,8(s1)
    2144:	02400713          	li	a4,36
    2148:	00dea823          	sw	a3,16(t4)
    214c:	44d4                	lw	a3,12(s1)
    214e:	00deaa23          	sw	a3,20(t4)
    2152:	06e60863          	beq	a2,a4,21c2 <_realloc_r+0x4b4>
    2156:	04c1                	addi	s1,s1,16
    2158:	018e8713          	addi	a4,t4,24
    215c:	bf01                	j	206c <_realloc_r+0x35e>
    215e:	8536                	mv	a0,a3
    2160:	85a6                	mv	a1,s1
    2162:	ffd42023          	sw	t4,-32(s0)
    2166:	fef42223          	sw	a5,-28(s0)
    216a:	ff142423          	sw	a7,-24(s0)
    216e:	fed42623          	sw	a3,-20(s0)
    2172:	e59fe0ef          	jal	fca <memmove>
    2176:	200007b7          	lui	a5,0x20000
    217a:	14c78313          	addi	t1,a5,332 # 2000014c <__malloc_av_>
    217e:	fe042e83          	lw	t4,-32(s0)
    2182:	fe442783          	lw	a5,-28(s0)
    2186:	fe842883          	lw	a7,-24(s0)
    218a:	fec42683          	lw	a3,-20(s0)
    218e:	b3e5                	j	1f76 <_realloc_r+0x268>
    2190:	4890                	lw	a2,16(s1)
    2192:	020e8713          	addi	a4,t4,32
    2196:	04e1                	addi	s1,s1,24
    2198:	00ceac23          	sw	a2,24(t4)
    219c:	ffc4a603          	lw	a2,-4(s1)
    21a0:	00ceae23          	sw	a2,28(t4)
    21a4:	bdb1                	j	2000 <_realloc_r+0x2f2>
    21a6:	448c                	lw	a1,8(s1)
    21a8:	02400713          	li	a4,36
    21ac:	00bea823          	sw	a1,16(t4)
    21b0:	44cc                	lw	a1,12(s1)
    21b2:	00beaa23          	sw	a1,20(t4)
    21b6:	02e60163          	beq	a2,a4,21d8 <_realloc_r+0x4ca>
    21ba:	04c1                	addi	s1,s1,16
    21bc:	018e8713          	addi	a4,t4,24
    21c0:	b36d                	j	1f6a <_realloc_r+0x25c>
    21c2:	4894                	lw	a3,16(s1)
    21c4:	020e8713          	addi	a4,t4,32
    21c8:	04e1                	addi	s1,s1,24
    21ca:	00deac23          	sw	a3,24(t4)
    21ce:	ffc4a683          	lw	a3,-4(s1)
    21d2:	00deae23          	sw	a3,28(t4)
    21d6:	bd59                	j	206c <_realloc_r+0x35e>
    21d8:	4890                	lw	a2,16(s1)
    21da:	020e8713          	addi	a4,t4,32
    21de:	00ceac23          	sw	a2,24(t4)
    21e2:	48d0                	lw	a2,20(s1)
    21e4:	04e1                	addi	s1,s1,24
    21e6:	00ceae23          	sw	a2,28(t4)
    21ea:	b341                	j	1f6a <_realloc_r+0x25c>

000021ec <_fclose_r>:
    21ec:	1101                	addi	sp,sp,-32
    21ee:	cc22                	sw	s0,24(sp)
    21f0:	ce06                	sw	ra,28(sp)
    21f2:	c64e                	sw	s3,12(sp)
    21f4:	1000                	addi	s0,sp,32
    21f6:	cdc1                	beqz	a1,228e <_fclose_r+0xa2>
    21f8:	ca26                	sw	s1,20(sp)
    21fa:	c84a                	sw	s2,16(sp)
    21fc:	84ae                	mv	s1,a1
    21fe:	892a                	mv	s2,a0
    2200:	c119                	beqz	a0,2206 <_fclose_r+0x1a>
    2202:	595c                	lw	a5,52(a0)
    2204:	cbd5                	beqz	a5,22b8 <_fclose_r+0xcc>
    2206:	50fc                	lw	a5,100(s1)
    2208:	00c49703          	lh	a4,12(s1)
    220c:	8b85                	andi	a5,a5,1
    220e:	efad                	bnez	a5,2288 <_fclose_r+0x9c>
    2210:	20077713          	andi	a4,a4,512
    2214:	c74d                	beqz	a4,22be <_fclose_r+0xd2>
    2216:	85a6                	mv	a1,s1
    2218:	854a                	mv	a0,s2
    221a:	20d5                	jal	22fe <__sflush_r>
    221c:	54dc                	lw	a5,44(s1)
    221e:	89aa                	mv	s3,a0
    2220:	c791                	beqz	a5,222c <_fclose_r+0x40>
    2222:	4ccc                	lw	a1,28(s1)
    2224:	854a                	mv	a0,s2
    2226:	9782                	jalr	a5
    2228:	06054d63          	bltz	a0,22a2 <_fclose_r+0xb6>
    222c:	00c4d783          	lhu	a5,12(s1)
    2230:	0807f793          	andi	a5,a5,128
    2234:	efad                	bnez	a5,22ae <_fclose_r+0xc2>
    2236:	588c                	lw	a1,48(s1)
    2238:	c991                	beqz	a1,224c <_fclose_r+0x60>
    223a:	04048793          	addi	a5,s1,64
    223e:	00f58563          	beq	a1,a5,2248 <_fclose_r+0x5c>
    2242:	854a                	mv	a0,s2
    2244:	954ff0ef          	jal	1398 <_free_r>
    2248:	0204a823          	sw	zero,48(s1)
    224c:	40ec                	lw	a1,68(s1)
    224e:	c591                	beqz	a1,225a <_fclose_r+0x6e>
    2250:	854a                	mv	a0,s2
    2252:	946ff0ef          	jal	1398 <_free_r>
    2256:	0404a223          	sw	zero,68(s1)
    225a:	cd8fe0ef          	jal	732 <__sfp_lock_acquire>
    225e:	50fc                	lw	a5,100(s1)
    2260:	00049623          	sh	zero,12(s1)
    2264:	8b85                	andi	a5,a5,1
    2266:	cbbd                	beqz	a5,22dc <_fclose_r+0xf0>
    2268:	4ca8                	lw	a0,88(s1)
    226a:	87afe0ef          	jal	2e4 <__retarget_lock_close_recursive>
    226e:	cd8fe0ef          	jal	746 <__sfp_lock_release>
    2272:	40f2                	lw	ra,28(sp)
    2274:	4462                	lw	s0,24(sp)
    2276:	44d2                	lw	s1,20(sp)
    2278:	4942                	lw	s2,16(sp)
    227a:	854e                	mv	a0,s3
    227c:	49b2                	lw	s3,12(sp)
    227e:	6105                	addi	sp,sp,32
    2280:	4581                	li	a1,0
    2282:	4701                	li	a4,0
    2284:	4781                	li	a5,0
    2286:	8082                	ret
    2288:	f759                	bnez	a4,2216 <_fclose_r+0x2a>
    228a:	44d2                	lw	s1,20(sp)
    228c:	4942                	lw	s2,16(sp)
    228e:	40f2                	lw	ra,28(sp)
    2290:	4462                	lw	s0,24(sp)
    2292:	4981                	li	s3,0
    2294:	854e                	mv	a0,s3
    2296:	49b2                	lw	s3,12(sp)
    2298:	6105                	addi	sp,sp,32
    229a:	4581                	li	a1,0
    229c:	4701                	li	a4,0
    229e:	4781                	li	a5,0
    22a0:	8082                	ret
    22a2:	00c4d783          	lhu	a5,12(s1)
    22a6:	59fd                	li	s3,-1
    22a8:	0807f793          	andi	a5,a5,128
    22ac:	d7c9                	beqz	a5,2236 <_fclose_r+0x4a>
    22ae:	488c                	lw	a1,16(s1)
    22b0:	854a                	mv	a0,s2
    22b2:	8e6ff0ef          	jal	1398 <_free_r>
    22b6:	b741                	j	2236 <_fclose_r+0x4a>
    22b8:	c30fe0ef          	jal	6e8 <__sinit>
    22bc:	b7a9                	j	2206 <_fclose_r+0x1a>
    22be:	4ca8                	lw	a0,88(s1)
    22c0:	844fe0ef          	jal	304 <__retarget_lock_acquire_recursive>
    22c4:	00c49783          	lh	a5,12(s1)
    22c8:	f7b9                	bnez	a5,2216 <_fclose_r+0x2a>
    22ca:	50fc                	lw	a5,100(s1)
    22cc:	8b85                	andi	a5,a5,1
    22ce:	ffd5                	bnez	a5,228a <_fclose_r+0x9e>
    22d0:	4ca8                	lw	a0,88(s1)
    22d2:	876fe0ef          	jal	348 <__retarget_lock_release_recursive>
    22d6:	44d2                	lw	s1,20(sp)
    22d8:	4942                	lw	s2,16(sp)
    22da:	bf55                	j	228e <_fclose_r+0xa2>
    22dc:	4ca8                	lw	a0,88(s1)
    22de:	86afe0ef          	jal	348 <__retarget_lock_release_recursive>
    22e2:	b759                	j	2268 <_fclose_r+0x7c>

000022e4 <fclose>:
    22e4:	1141                	addi	sp,sp,-16
    22e6:	c422                	sw	s0,8(sp)
    22e8:	c606                	sw	ra,12(sp)
    22ea:	0800                	addi	s0,sp,16
    22ec:	200007b7          	lui	a5,0x20000
    22f0:	4422                	lw	s0,8(sp)
    22f2:	40b2                	lw	ra,12(sp)
    22f4:	85aa                	mv	a1,a0
    22f6:	5647a503          	lw	a0,1380(a5) # 20000564 <_impure_ptr>
    22fa:	0141                	addi	sp,sp,16
    22fc:	bdc5                	j	21ec <_fclose_r>

000022fe <__sflush_r>:
    22fe:	1101                	addi	sp,sp,-32
    2300:	cc22                	sw	s0,24(sp)
    2302:	ca26                	sw	s1,20(sp)
    2304:	c452                	sw	s4,8(sp)
    2306:	ce06                	sw	ra,28(sp)
    2308:	1000                	addi	s0,sp,32
    230a:	00c59703          	lh	a4,12(a1)
    230e:	84ae                	mv	s1,a1
    2310:	8a2a                	mv	s4,a0
    2312:	00877793          	andi	a5,a4,8
    2316:	eff1                	bnez	a5,23f2 <__sflush_r+0xf4>
    2318:	6785                	lui	a5,0x1
    231a:	80078793          	addi	a5,a5,-2048 # 800 <__sfvwrite_r+0x5e>
    231e:	41d4                	lw	a3,4(a1)
    2320:	8fd9                	or	a5,a5,a4
    2322:	00f59623          	sh	a5,12(a1)
    2326:	12d05c63          	blez	a3,245e <__sflush_r+0x160>
    232a:	0284a803          	lw	a6,40(s1)
    232e:	0a080563          	beqz	a6,23d8 <__sflush_r+0xda>
    2332:	c84a                	sw	s2,16(sp)
    2334:	01371693          	slli	a3,a4,0x13
    2338:	000a2903          	lw	s2,0(s4)
    233c:	000a2023          	sw	zero,0(s4)
    2340:	1206c663          	bltz	a3,246c <__sflush_r+0x16e>
    2344:	4ccc                	lw	a1,28(s1)
    2346:	4601                	li	a2,0
    2348:	4685                	li	a3,1
    234a:	8552                	mv	a0,s4
    234c:	9802                	jalr	a6
    234e:	57fd                	li	a5,-1
    2350:	862a                	mv	a2,a0
    2352:	14f50463          	beq	a0,a5,249a <__sflush_r+0x19c>
    2356:	00c49783          	lh	a5,12(s1)
    235a:	0284a803          	lw	a6,40(s1)
    235e:	8b91                	andi	a5,a5,4
    2360:	c799                	beqz	a5,236e <__sflush_r+0x70>
    2362:	40d8                	lw	a4,4(s1)
    2364:	589c                	lw	a5,48(s1)
    2366:	8e19                	sub	a2,a2,a4
    2368:	c399                	beqz	a5,236e <__sflush_r+0x70>
    236a:	5cdc                	lw	a5,60(s1)
    236c:	8e1d                	sub	a2,a2,a5
    236e:	4ccc                	lw	a1,28(s1)
    2370:	4681                	li	a3,0
    2372:	8552                	mv	a0,s4
    2374:	9802                	jalr	a6
    2376:	577d                	li	a4,-1
    2378:	00c49783          	lh	a5,12(s1)
    237c:	0ee51a63          	bne	a0,a4,2470 <__sflush_r+0x172>
    2380:	000a2683          	lw	a3,0(s4)
    2384:	4775                	li	a4,29
    2386:	12d76563          	bltu	a4,a3,24b0 <__sflush_r+0x1b2>
    238a:	20400737          	lui	a4,0x20400
    238e:	0705                	addi	a4,a4,1 # 20400001 <_eusrstack+0x3fb001>
    2390:	00d75733          	srl	a4,a4,a3
    2394:	8b05                	andi	a4,a4,1
    2396:	10070d63          	beqz	a4,24b0 <__sflush_r+0x1b2>
    239a:	4894                	lw	a3,16(s1)
    239c:	777d                	lui	a4,0xfffff
    239e:	7ff70713          	addi	a4,a4,2047 # fffff7ff <_eusrstack+0xdfffa7ff>
    23a2:	8f7d                	and	a4,a4,a5
    23a4:	00e49623          	sh	a4,12(s1)
    23a8:	0004a223          	sw	zero,4(s1)
    23ac:	c094                	sw	a3,0(s1)
    23ae:	01379713          	slli	a4,a5,0x13
    23b2:	00075563          	bgez	a4,23bc <__sflush_r+0xbe>
    23b6:	000a2783          	lw	a5,0(s4)
    23ba:	cbe9                	beqz	a5,248c <__sflush_r+0x18e>
    23bc:	588c                	lw	a1,48(s1)
    23be:	012a2023          	sw	s2,0(s4)
    23c2:	c9f1                	beqz	a1,2496 <__sflush_r+0x198>
    23c4:	04048793          	addi	a5,s1,64
    23c8:	00f58563          	beq	a1,a5,23d2 <__sflush_r+0xd4>
    23cc:	8552                	mv	a0,s4
    23ce:	fcbfe0ef          	jal	1398 <_free_r>
    23d2:	4942                	lw	s2,16(sp)
    23d4:	0204a823          	sw	zero,48(s1)
    23d8:	40f2                	lw	ra,28(sp)
    23da:	4462                	lw	s0,24(sp)
    23dc:	44d2                	lw	s1,20(sp)
    23de:	4a22                	lw	s4,8(sp)
    23e0:	4501                	li	a0,0
    23e2:	6105                	addi	sp,sp,32
    23e4:	4581                	li	a1,0
    23e6:	4601                	li	a2,0
    23e8:	4681                	li	a3,0
    23ea:	4701                	li	a4,0
    23ec:	4781                	li	a5,0
    23ee:	4801                	li	a6,0
    23f0:	8082                	ret
    23f2:	c64e                	sw	s3,12(sp)
    23f4:	0105a983          	lw	s3,16(a1)
    23f8:	06098863          	beqz	s3,2468 <__sflush_r+0x16a>
    23fc:	c84a                	sw	s2,16(sp)
    23fe:	0005a903          	lw	s2,0(a1)
    2402:	8b0d                	andi	a4,a4,3
    2404:	0135a023          	sw	s3,0(a1)
    2408:	41390933          	sub	s2,s2,s3
    240c:	4781                	li	a5,0
    240e:	e311                	bnez	a4,2412 <__sflush_r+0x114>
    2410:	49dc                	lw	a5,20(a1)
    2412:	c49c                	sw	a5,8(s1)
    2414:	01204663          	bgtz	s2,2420 <__sflush_r+0x122>
    2418:	a0b9                	j	2466 <__sflush_r+0x168>
    241a:	99aa                	add	s3,s3,a0
    241c:	05205563          	blez	s2,2466 <__sflush_r+0x168>
    2420:	50dc                	lw	a5,36(s1)
    2422:	4ccc                	lw	a1,28(s1)
    2424:	86ca                	mv	a3,s2
    2426:	864e                	mv	a2,s3
    2428:	8552                	mv	a0,s4
    242a:	9782                	jalr	a5
    242c:	40a90933          	sub	s2,s2,a0
    2430:	fea045e3          	bgtz	a0,241a <__sflush_r+0x11c>
    2434:	00c4d783          	lhu	a5,12(s1)
    2438:	49b2                	lw	s3,12(sp)
    243a:	0407e793          	ori	a5,a5,64
    243e:	40f2                	lw	ra,28(sp)
    2440:	4462                	lw	s0,24(sp)
    2442:	00f49623          	sh	a5,12(s1)
    2446:	4942                	lw	s2,16(sp)
    2448:	44d2                	lw	s1,20(sp)
    244a:	4a22                	lw	s4,8(sp)
    244c:	557d                	li	a0,-1
    244e:	6105                	addi	sp,sp,32
    2450:	4581                	li	a1,0
    2452:	4601                	li	a2,0
    2454:	4681                	li	a3,0
    2456:	4701                	li	a4,0
    2458:	4781                	li	a5,0
    245a:	4801                	li	a6,0
    245c:	8082                	ret
    245e:	5dd4                	lw	a3,60(a1)
    2460:	ecd045e3          	bgtz	a3,232a <__sflush_r+0x2c>
    2464:	bf95                	j	23d8 <__sflush_r+0xda>
    2466:	4942                	lw	s2,16(sp)
    2468:	49b2                	lw	s3,12(sp)
    246a:	b7bd                	j	23d8 <__sflush_r+0xda>
    246c:	48b0                	lw	a2,80(s1)
    246e:	bdc5                	j	235e <__sflush_r+0x60>
    2470:	4894                	lw	a3,16(s1)
    2472:	777d                	lui	a4,0xfffff
    2474:	7ff70713          	addi	a4,a4,2047 # fffff7ff <_eusrstack+0xdfffa7ff>
    2478:	8f7d                	and	a4,a4,a5
    247a:	00e49623          	sh	a4,12(s1)
    247e:	0004a223          	sw	zero,4(s1)
    2482:	c094                	sw	a3,0(s1)
    2484:	01379713          	slli	a4,a5,0x13
    2488:	f2075ae3          	bgez	a4,23bc <__sflush_r+0xbe>
    248c:	588c                	lw	a1,48(s1)
    248e:	c8a8                	sw	a0,80(s1)
    2490:	012a2023          	sw	s2,0(s4)
    2494:	f985                	bnez	a1,23c4 <__sflush_r+0xc6>
    2496:	4942                	lw	s2,16(sp)
    2498:	b781                	j	23d8 <__sflush_r+0xda>
    249a:	000a2783          	lw	a5,0(s4)
    249e:	ea078ce3          	beqz	a5,2356 <__sflush_r+0x58>
    24a2:	fe378713          	addi	a4,a5,-29
    24a6:	cb01                	beqz	a4,24b6 <__sflush_r+0x1b8>
    24a8:	17a9                	addi	a5,a5,-22
    24aa:	c791                	beqz	a5,24b6 <__sflush_r+0x1b8>
    24ac:	00c4d783          	lhu	a5,12(s1)
    24b0:	0407e793          	ori	a5,a5,64
    24b4:	b769                	j	243e <__sflush_r+0x140>
    24b6:	012a2023          	sw	s2,0(s4)
    24ba:	4942                	lw	s2,16(sp)
    24bc:	bf31                	j	23d8 <__sflush_r+0xda>

000024be <_fflush_r>:
    24be:	1101                	addi	sp,sp,-32
    24c0:	cc22                	sw	s0,24(sp)
    24c2:	ce06                	sw	ra,28(sp)
    24c4:	1000                	addi	s0,sp,32
    24c6:	872a                	mv	a4,a0
    24c8:	c119                	beqz	a0,24ce <_fflush_r+0x10>
    24ca:	595c                	lw	a5,52(a0)
    24cc:	cfbd                	beqz	a5,254a <_fflush_r+0x8c>
    24ce:	00c59683          	lh	a3,12(a1)
    24d2:	4781                	li	a5,0
    24d4:	c695                	beqz	a3,2500 <_fflush_r+0x42>
    24d6:	51fc                	lw	a5,100(a1)
    24d8:	8b85                	andi	a5,a5,1
    24da:	e781                	bnez	a5,24e2 <_fflush_r+0x24>
    24dc:	2006f693          	andi	a3,a3,512
    24e0:	ca8d                	beqz	a3,2512 <_fflush_r+0x54>
    24e2:	853a                	mv	a0,a4
    24e4:	feb42623          	sw	a1,-20(s0)
    24e8:	3d19                	jal	22fe <__sflush_r>
    24ea:	fec42583          	lw	a1,-20(s0)
    24ee:	87aa                	mv	a5,a0
    24f0:	51f8                	lw	a4,100(a1)
    24f2:	8b05                	andi	a4,a4,1
    24f4:	e711                	bnez	a4,2500 <_fflush_r+0x42>
    24f6:	00c5d703          	lhu	a4,12(a1)
    24fa:	20077713          	andi	a4,a4,512
    24fe:	c715                	beqz	a4,252a <_fflush_r+0x6c>
    2500:	40f2                	lw	ra,28(sp)
    2502:	4462                	lw	s0,24(sp)
    2504:	853e                	mv	a0,a5
    2506:	6105                	addi	sp,sp,32
    2508:	4581                	li	a1,0
    250a:	4681                	li	a3,0
    250c:	4701                	li	a4,0
    250e:	4781                	li	a5,0
    2510:	8082                	ret
    2512:	4da8                	lw	a0,88(a1)
    2514:	fee42423          	sw	a4,-24(s0)
    2518:	feb42623          	sw	a1,-20(s0)
    251c:	de9fd0ef          	jal	304 <__retarget_lock_acquire_recursive>
    2520:	fe842703          	lw	a4,-24(s0)
    2524:	fec42583          	lw	a1,-20(s0)
    2528:	bf6d                	j	24e2 <_fflush_r+0x24>
    252a:	fea42623          	sw	a0,-20(s0)
    252e:	4da8                	lw	a0,88(a1)
    2530:	e19fd0ef          	jal	348 <__retarget_lock_release_recursive>
    2534:	fec42783          	lw	a5,-20(s0)
    2538:	40f2                	lw	ra,28(sp)
    253a:	4462                	lw	s0,24(sp)
    253c:	853e                	mv	a0,a5
    253e:	6105                	addi	sp,sp,32
    2540:	4581                	li	a1,0
    2542:	4681                	li	a3,0
    2544:	4701                	li	a4,0
    2546:	4781                	li	a5,0
    2548:	8082                	ret
    254a:	feb42423          	sw	a1,-24(s0)
    254e:	fea42623          	sw	a0,-20(s0)
    2552:	996fe0ef          	jal	6e8 <__sinit>
    2556:	fe842583          	lw	a1,-24(s0)
    255a:	fec42703          	lw	a4,-20(s0)
    255e:	bf85                	j	24ce <_fflush_r+0x10>

00002560 <fflush>:
    2560:	c145                	beqz	a0,2600 <fflush+0xa0>
    2562:	1101                	addi	sp,sp,-32
    2564:	cc22                	sw	s0,24(sp)
    2566:	ce06                	sw	ra,28(sp)
    2568:	1000                	addi	s0,sp,32
    256a:	200007b7          	lui	a5,0x20000
    256e:	5647a703          	lw	a4,1380(a5) # 20000564 <_impure_ptr>
    2572:	85aa                	mv	a1,a0
    2574:	c319                	beqz	a4,257a <fflush+0x1a>
    2576:	5b5c                	lw	a5,52(a4)
    2578:	c7a1                	beqz	a5,25c0 <fflush+0x60>
    257a:	00c59683          	lh	a3,12(a1)
    257e:	4781                	li	a5,0
    2580:	c695                	beqz	a3,25ac <fflush+0x4c>
    2582:	51fc                	lw	a5,100(a1)
    2584:	8b85                	andi	a5,a5,1
    2586:	e781                	bnez	a5,258e <fflush+0x2e>
    2588:	2006f693          	andi	a3,a3,512
    258c:	c6b1                	beqz	a3,25d8 <fflush+0x78>
    258e:	853a                	mv	a0,a4
    2590:	feb42623          	sw	a1,-20(s0)
    2594:	33ad                	jal	22fe <__sflush_r>
    2596:	fec42583          	lw	a1,-20(s0)
    259a:	87aa                	mv	a5,a0
    259c:	51f8                	lw	a4,100(a1)
    259e:	8b05                	andi	a4,a4,1
    25a0:	e711                	bnez	a4,25ac <fflush+0x4c>
    25a2:	00c5d703          	lhu	a4,12(a1)
    25a6:	20077713          	andi	a4,a4,512
    25aa:	c339                	beqz	a4,25f0 <fflush+0x90>
    25ac:	40f2                	lw	ra,28(sp)
    25ae:	4462                	lw	s0,24(sp)
    25b0:	853e                	mv	a0,a5
    25b2:	6105                	addi	sp,sp,32
    25b4:	4581                	li	a1,0
    25b6:	4601                	li	a2,0
    25b8:	4681                	li	a3,0
    25ba:	4701                	li	a4,0
    25bc:	4781                	li	a5,0
    25be:	8082                	ret
    25c0:	fea42423          	sw	a0,-24(s0)
    25c4:	853a                	mv	a0,a4
    25c6:	fee42623          	sw	a4,-20(s0)
    25ca:	91efe0ef          	jal	6e8 <__sinit>
    25ce:	fe842583          	lw	a1,-24(s0)
    25d2:	fec42703          	lw	a4,-20(s0)
    25d6:	b755                	j	257a <fflush+0x1a>
    25d8:	4da8                	lw	a0,88(a1)
    25da:	fee42423          	sw	a4,-24(s0)
    25de:	feb42623          	sw	a1,-20(s0)
    25e2:	d23fd0ef          	jal	304 <__retarget_lock_acquire_recursive>
    25e6:	fe842703          	lw	a4,-24(s0)
    25ea:	fec42583          	lw	a1,-20(s0)
    25ee:	b745                	j	258e <fflush+0x2e>
    25f0:	fea42623          	sw	a0,-20(s0)
    25f4:	4da8                	lw	a0,88(a1)
    25f6:	d53fd0ef          	jal	348 <__retarget_lock_release_recursive>
    25fa:	fec42783          	lw	a5,-20(s0)
    25fe:	b77d                	j	25ac <fflush+0x4c>
    2600:	20000637          	lui	a2,0x20000
    2604:	6589                	lui	a1,0x2
    2606:	20000537          	lui	a0,0x20000
    260a:	14060613          	addi	a2,a2,320 # 20000140 <__sglue>
    260e:	4be58593          	addi	a1,a1,1214 # 24be <_fflush_r>
    2612:	00050513          	mv	a0,a0
    2616:	cdefe06f          	j	af4 <_fwalk_sglue>

0000261a <__smakebuf_r>:
    261a:	00c59783          	lh	a5,12(a1)
    261e:	0027f713          	andi	a4,a5,2
    2622:	cf11                	beqz	a4,263e <__smakebuf_r+0x24>
    2624:	04358793          	addi	a5,a1,67
    2628:	4705                	li	a4,1
    262a:	c19c                	sw	a5,0(a1)
    262c:	c99c                	sw	a5,16(a1)
    262e:	c9d8                	sw	a4,20(a1)
    2630:	4501                	li	a0,0
    2632:	4581                	li	a1,0
    2634:	4601                	li	a2,0
    2636:	4681                	li	a3,0
    2638:	4701                	li	a4,0
    263a:	4781                	li	a5,0
    263c:	8082                	ret
    263e:	7119                	addi	sp,sp,-128
    2640:	dca2                	sw	s0,120(sp)
    2642:	daa6                	sw	s1,116(sp)
    2644:	de86                	sw	ra,124(sp)
    2646:	0100                	addi	s0,sp,128
    2648:	872e                	mv	a4,a1
    264a:	00e59583          	lh	a1,14(a1)
    264e:	84aa                	mv	s1,a0
    2650:	0605ce63          	bltz	a1,26cc <__smakebuf_r+0xb2>
    2654:	f9840613          	addi	a2,s0,-104
    2658:	f8e42623          	sw	a4,-116(s0)
    265c:	2ad1                	jal	2830 <_fstat_r>
    265e:	f8c42703          	lw	a4,-116(s0)
    2662:	06054363          	bltz	a0,26c8 <__smakebuf_r+0xae>
    2666:	40000593          	li	a1,1024
    266a:	8526                	mv	a0,s1
    266c:	d8ca                	sw	s2,112(sp)
    266e:	f8e42623          	sw	a4,-116(s0)
    2672:	f9c42903          	lw	s2,-100(s0)
    2676:	f67fe0ef          	jal	15dc <_malloc_r>
    267a:	f8c42703          	lw	a4,-116(s0)
    267e:	00c71783          	lh	a5,12(a4)
    2682:	c14d                	beqz	a0,2724 <__smakebuf_r+0x10a>
    2684:	40000693          	li	a3,1024
    2688:	0807e793          	ori	a5,a5,128
    268c:	cb54                	sw	a3,20(a4)
    268e:	40c95693          	srai	a3,s2,0xc
    2692:	00f71623          	sh	a5,12(a4)
    2696:	c308                	sw	a0,0(a4)
    2698:	cb08                	sw	a0,16(a4)
    269a:	8abd                	andi	a3,a3,15
    269c:	4609                	li	a2,2
    269e:	0ac69363          	bne	a3,a2,2744 <__smakebuf_r+0x12a>
    26a2:	00e71583          	lh	a1,14(a4)
    26a6:	8526                	mv	a0,s1
    26a8:	f8e42623          	sw	a4,-116(s0)
    26ac:	2ad9                	jal	2882 <_isatty_r>
    26ae:	f8c42703          	lw	a4,-116(s0)
    26b2:	00c71783          	lh	a5,12(a4)
    26b6:	c559                	beqz	a0,2744 <__smakebuf_r+0x12a>
    26b8:	9bf1                	andi	a5,a5,-4
    26ba:	6685                	lui	a3,0x1
    26bc:	5946                	lw	s2,112(sp)
    26be:	0017e793          	ori	a5,a5,1
    26c2:	80068693          	addi	a3,a3,-2048 # 800 <__sfvwrite_r+0x5e>
    26c6:	a089                	j	2708 <__smakebuf_r+0xee>
    26c8:	00c71783          	lh	a5,12(a4)
    26cc:	0807f793          	andi	a5,a5,128
    26d0:	0017b793          	seqz	a5,a5
    26d4:	40f007b3          	neg	a5,a5
    26d8:	3c07f593          	andi	a1,a5,960
    26dc:	04058593          	addi	a1,a1,64
    26e0:	8526                	mv	a0,s1
    26e2:	f8e42423          	sw	a4,-120(s0)
    26e6:	f8b42623          	sw	a1,-116(s0)
    26ea:	ef3fe0ef          	jal	15dc <_malloc_r>
    26ee:	f8842703          	lw	a4,-120(s0)
    26f2:	f8c42583          	lw	a1,-116(s0)
    26f6:	00c71783          	lh	a5,12(a4)
    26fa:	c515                	beqz	a0,2726 <__smakebuf_r+0x10c>
    26fc:	0807e793          	ori	a5,a5,128
    2700:	c308                	sw	a0,0(a4)
    2702:	cb08                	sw	a0,16(a4)
    2704:	cb4c                	sw	a1,20(a4)
    2706:	4681                	li	a3,0
    2708:	8fd5                	or	a5,a5,a3
    270a:	00f71623          	sh	a5,12(a4)
    270e:	50f6                	lw	ra,124(sp)
    2710:	5466                	lw	s0,120(sp)
    2712:	54d6                	lw	s1,116(sp)
    2714:	6109                	addi	sp,sp,128
    2716:	4501                	li	a0,0
    2718:	4581                	li	a1,0
    271a:	4601                	li	a2,0
    271c:	4681                	li	a3,0
    271e:	4701                	li	a4,0
    2720:	4781                	li	a5,0
    2722:	8082                	ret
    2724:	5946                	lw	s2,112(sp)
    2726:	2007f693          	andi	a3,a5,512
    272a:	f2f5                	bnez	a3,270e <__smakebuf_r+0xf4>
    272c:	9bf1                	andi	a5,a5,-4
    272e:	04370693          	addi	a3,a4,67
    2732:	0027e793          	ori	a5,a5,2
    2736:	4605                	li	a2,1
    2738:	00f71623          	sh	a5,12(a4)
    273c:	c314                	sw	a3,0(a4)
    273e:	cb14                	sw	a3,16(a4)
    2740:	cb50                	sw	a2,20(a4)
    2742:	b7f1                	j	270e <__smakebuf_r+0xf4>
    2744:	6685                	lui	a3,0x1
    2746:	5946                	lw	s2,112(sp)
    2748:	80068693          	addi	a3,a3,-2048 # 800 <__sfvwrite_r+0x5e>
    274c:	bf75                	j	2708 <__smakebuf_r+0xee>

0000274e <__swhatbuf_r>:
    274e:	87ae                	mv	a5,a1
    2750:	00e59583          	lh	a1,14(a1)
    2754:	8732                	mv	a4,a2
    2756:	0805c363          	bltz	a1,27dc <__swhatbuf_r+0x8e>
    275a:	7119                	addi	sp,sp,-128
    275c:	dca2                	sw	s0,120(sp)
    275e:	de86                	sw	ra,124(sp)
    2760:	0100                	addi	s0,sp,128
    2762:	f8c42423          	sw	a2,-120(s0)
    2766:	f9840613          	addi	a2,s0,-104
    276a:	f8d42223          	sw	a3,-124(s0)
    276e:	f8f42623          	sw	a5,-116(s0)
    2772:	287d                	jal	2830 <_fstat_r>
    2774:	f8c42783          	lw	a5,-116(s0)
    2778:	f8842703          	lw	a4,-120(s0)
    277c:	f8442683          	lw	a3,-124(s0)
    2780:	02054a63          	bltz	a0,27b4 <__swhatbuf_r+0x66>
    2784:	f9c42783          	lw	a5,-100(s0)
    2788:	65bd                	lui	a1,0xf
    278a:	7679                	lui	a2,0xffffe
    278c:	8fed                	and	a5,a5,a1
    278e:	97b2                	add	a5,a5,a2
    2790:	50f6                	lw	ra,124(sp)
    2792:	5466                	lw	s0,120(sp)
    2794:	0017b793          	seqz	a5,a5
    2798:	c29c                	sw	a5,0(a3)
    279a:	40000613          	li	a2,1024
    279e:	6505                	lui	a0,0x1
    27a0:	c310                	sw	a2,0(a4)
    27a2:	80050513          	addi	a0,a0,-2048 # 800 <__sfvwrite_r+0x5e>
    27a6:	6109                	addi	sp,sp,128
    27a8:	4581                	li	a1,0
    27aa:	4601                	li	a2,0
    27ac:	4681                	li	a3,0
    27ae:	4701                	li	a4,0
    27b0:	4781                	li	a5,0
    27b2:	8082                	ret
    27b4:	00c7d783          	lhu	a5,12(a5)
    27b8:	0807f793          	andi	a5,a5,128
    27bc:	c3a1                	beqz	a5,27fc <__swhatbuf_r+0xae>
    27be:	50f6                	lw	ra,124(sp)
    27c0:	5466                	lw	s0,120(sp)
    27c2:	4781                	li	a5,0
    27c4:	c29c                	sw	a5,0(a3)
    27c6:	04000613          	li	a2,64
    27ca:	c310                	sw	a2,0(a4)
    27cc:	4501                	li	a0,0
    27ce:	6109                	addi	sp,sp,128
    27d0:	4581                	li	a1,0
    27d2:	4601                	li	a2,0
    27d4:	4681                	li	a3,0
    27d6:	4701                	li	a4,0
    27d8:	4781                	li	a5,0
    27da:	8082                	ret
    27dc:	00c7d783          	lhu	a5,12(a5)
    27e0:	0807f793          	andi	a5,a5,128
    27e4:	eb95                	bnez	a5,2818 <__swhatbuf_r+0xca>
    27e6:	40000613          	li	a2,1024
    27ea:	c29c                	sw	a5,0(a3)
    27ec:	4501                	li	a0,0
    27ee:	c310                	sw	a2,0(a4)
    27f0:	4581                	li	a1,0
    27f2:	4601                	li	a2,0
    27f4:	4681                	li	a3,0
    27f6:	4701                	li	a4,0
    27f8:	4781                	li	a5,0
    27fa:	8082                	ret
    27fc:	50f6                	lw	ra,124(sp)
    27fe:	5466                	lw	s0,120(sp)
    2800:	c29c                	sw	a5,0(a3)
    2802:	40000613          	li	a2,1024
    2806:	c310                	sw	a2,0(a4)
    2808:	4501                	li	a0,0
    280a:	6109                	addi	sp,sp,128
    280c:	4581                	li	a1,0
    280e:	4601                	li	a2,0
    2810:	4681                	li	a3,0
    2812:	4701                	li	a4,0
    2814:	4781                	li	a5,0
    2816:	8082                	ret
    2818:	4781                	li	a5,0
    281a:	04000613          	li	a2,64
    281e:	c29c                	sw	a5,0(a3)
    2820:	4501                	li	a0,0
    2822:	c310                	sw	a2,0(a4)
    2824:	4581                	li	a1,0
    2826:	4601                	li	a2,0
    2828:	4681                	li	a3,0
    282a:	4701                	li	a4,0
    282c:	4781                	li	a5,0
    282e:	8082                	ret

00002830 <_fstat_r>:
    2830:	1141                	addi	sp,sp,-16
    2832:	87ae                	mv	a5,a1
    2834:	c422                	sw	s0,8(sp)
    2836:	c226                	sw	s1,4(sp)
    2838:	c04a                	sw	s2,0(sp)
    283a:	c606                	sw	ra,12(sp)
    283c:	0800                	addi	s0,sp,16
    283e:	85b2                	mv	a1,a2
    2840:	892a                	mv	s2,a0
    2842:	853e                	mv	a0,a5
    2844:	8201a623          	sw	zero,-2004(gp) # 2000059c <errno>
    2848:	2229                	jal	2952 <_fstat>
    284a:	57fd                	li	a5,-1
    284c:	00f50c63          	beq	a0,a5,2864 <_fstat_r+0x34>
    2850:	40b2                	lw	ra,12(sp)
    2852:	4422                	lw	s0,8(sp)
    2854:	4492                	lw	s1,4(sp)
    2856:	4902                	lw	s2,0(sp)
    2858:	0141                	addi	sp,sp,16
    285a:	4581                	li	a1,0
    285c:	4601                	li	a2,0
    285e:	4701                	li	a4,0
    2860:	4781                	li	a5,0
    2862:	8082                	ret
    2864:	82c1a783          	lw	a5,-2004(gp) # 2000059c <errno>
    2868:	d7e5                	beqz	a5,2850 <_fstat_r+0x20>
    286a:	40b2                	lw	ra,12(sp)
    286c:	4422                	lw	s0,8(sp)
    286e:	00f92023          	sw	a5,0(s2)
    2872:	4492                	lw	s1,4(sp)
    2874:	4902                	lw	s2,0(sp)
    2876:	0141                	addi	sp,sp,16
    2878:	4581                	li	a1,0
    287a:	4601                	li	a2,0
    287c:	4701                	li	a4,0
    287e:	4781                	li	a5,0
    2880:	8082                	ret

00002882 <_isatty_r>:
    2882:	1141                	addi	sp,sp,-16
    2884:	c422                	sw	s0,8(sp)
    2886:	c226                	sw	s1,4(sp)
    2888:	c04a                	sw	s2,0(sp)
    288a:	c606                	sw	ra,12(sp)
    288c:	0800                	addi	s0,sp,16
    288e:	892a                	mv	s2,a0
    2890:	852e                	mv	a0,a1
    2892:	8201a623          	sw	zero,-2004(gp) # 2000059c <errno>
    2896:	2221                	jal	299e <_isatty>
    2898:	57fd                	li	a5,-1
    289a:	00f50b63          	beq	a0,a5,28b0 <_isatty_r+0x2e>
    289e:	40b2                	lw	ra,12(sp)
    28a0:	4422                	lw	s0,8(sp)
    28a2:	4492                	lw	s1,4(sp)
    28a4:	4902                	lw	s2,0(sp)
    28a6:	0141                	addi	sp,sp,16
    28a8:	4581                	li	a1,0
    28aa:	4701                	li	a4,0
    28ac:	4781                	li	a5,0
    28ae:	8082                	ret
    28b0:	82c1a783          	lw	a5,-2004(gp) # 2000059c <errno>
    28b4:	d7ed                	beqz	a5,289e <_isatty_r+0x1c>
    28b6:	40b2                	lw	ra,12(sp)
    28b8:	4422                	lw	s0,8(sp)
    28ba:	00f92023          	sw	a5,0(s2)
    28be:	4492                	lw	s1,4(sp)
    28c0:	4902                	lw	s2,0(sp)
    28c2:	0141                	addi	sp,sp,16
    28c4:	4581                	li	a1,0
    28c6:	4701                	li	a4,0
    28c8:	4781                	li	a5,0
    28ca:	8082                	ret

000028cc <_sbrk_r>:
    28cc:	1141                	addi	sp,sp,-16
    28ce:	c422                	sw	s0,8(sp)
    28d0:	c226                	sw	s1,4(sp)
    28d2:	c04a                	sw	s2,0(sp)
    28d4:	c606                	sw	ra,12(sp)
    28d6:	0800                	addi	s0,sp,16
    28d8:	892a                	mv	s2,a0
    28da:	852e                	mv	a0,a1
    28dc:	8201a623          	sw	zero,-2004(gp) # 2000059c <errno>
    28e0:	489000ef          	jal	3568 <_sbrk>
    28e4:	57fd                	li	a5,-1
    28e6:	00f50b63          	beq	a0,a5,28fc <_sbrk_r+0x30>
    28ea:	40b2                	lw	ra,12(sp)
    28ec:	4422                	lw	s0,8(sp)
    28ee:	4492                	lw	s1,4(sp)
    28f0:	4902                	lw	s2,0(sp)
    28f2:	0141                	addi	sp,sp,16
    28f4:	4581                	li	a1,0
    28f6:	4701                	li	a4,0
    28f8:	4781                	li	a5,0
    28fa:	8082                	ret
    28fc:	82c1a783          	lw	a5,-2004(gp) # 2000059c <errno>
    2900:	d7ed                	beqz	a5,28ea <_sbrk_r+0x1e>
    2902:	40b2                	lw	ra,12(sp)
    2904:	4422                	lw	s0,8(sp)
    2906:	00f92023          	sw	a5,0(s2)
    290a:	4492                	lw	s1,4(sp)
    290c:	4902                	lw	s2,0(sp)
    290e:	0141                	addi	sp,sp,16
    2910:	4581                	li	a1,0
    2912:	4701                	li	a4,0
    2914:	4781                	li	a5,0
    2916:	8082                	ret

00002918 <_close>:
    2918:	03900893          	li	a7,57
    291c:	00000073          	ecall
    2920:	00054563          	bltz	a0,292a <_close+0x12>
    2924:	4781                	li	a5,0
    2926:	4881                	li	a7,0
    2928:	8082                	ret
    292a:	1101                	addi	sp,sp,-32
    292c:	cc22                	sw	s0,24(sp)
    292e:	ce06                	sw	ra,28(sp)
    2930:	1000                	addi	s0,sp,32
    2932:	fea42623          	sw	a0,-20(s0)
    2936:	2a75                	jal	2af2 <__errno>
    2938:	fec42783          	lw	a5,-20(s0)
    293c:	40f2                	lw	ra,28(sp)
    293e:	4462                	lw	s0,24(sp)
    2940:	40f007b3          	neg	a5,a5
    2944:	c11c                	sw	a5,0(a0)
    2946:	57fd                	li	a5,-1
    2948:	853e                	mv	a0,a5
    294a:	6105                	addi	sp,sp,32
    294c:	4781                	li	a5,0
    294e:	4881                	li	a7,0
    2950:	8082                	ret

00002952 <_fstat>:
    2952:	7135                	addi	sp,sp,-160
    2954:	cd22                	sw	s0,152(sp)
    2956:	cf06                	sw	ra,156(sp)
    2958:	1100                	addi	s0,sp,160
    295a:	cb26                	sw	s1,148(sp)
    295c:	87ae                	mv	a5,a1
    295e:	05000893          	li	a7,80
    2962:	f7040593          	addi	a1,s0,-144
    2966:	00000073          	ecall
    296a:	84aa                	mv	s1,a0
    296c:	00054f63          	bltz	a0,298a <_fstat+0x38>
    2970:	f7040593          	addi	a1,s0,-144
    2974:	853e                	mv	a0,a5
    2976:	20cd                	jal	2a58 <_conv_stat>
    2978:	40fa                	lw	ra,156(sp)
    297a:	446a                	lw	s0,152(sp)
    297c:	8526                	mv	a0,s1
    297e:	44da                	lw	s1,148(sp)
    2980:	610d                	addi	sp,sp,160
    2982:	4581                	li	a1,0
    2984:	4781                	li	a5,0
    2986:	4881                	li	a7,0
    2988:	8082                	ret
    298a:	f6f42623          	sw	a5,-148(s0)
    298e:	409004b3          	neg	s1,s1
    2992:	2285                	jal	2af2 <__errno>
    2994:	c104                	sw	s1,0(a0)
    2996:	f6c42783          	lw	a5,-148(s0)
    299a:	54fd                	li	s1,-1
    299c:	bfd1                	j	2970 <_fstat+0x1e>

0000299e <_isatty>:
    299e:	7159                	addi	sp,sp,-112
    29a0:	d4a2                	sw	s0,104(sp)
    29a2:	1880                	addi	s0,sp,112
    29a4:	d686                	sw	ra,108(sp)
    29a6:	f9840593          	addi	a1,s0,-104
    29aa:	3765                	jal	2952 <_fstat>
    29ac:	57fd                	li	a5,-1
    29ae:	00f50c63          	beq	a0,a5,29c6 <_isatty+0x28>
    29b2:	f9c42503          	lw	a0,-100(s0)
    29b6:	50b6                	lw	ra,108(sp)
    29b8:	5426                	lw	s0,104(sp)
    29ba:	8135                	srli	a0,a0,0xd
    29bc:	8905                	andi	a0,a0,1
    29be:	6165                	addi	sp,sp,112
    29c0:	4581                	li	a1,0
    29c2:	4781                	li	a5,0
    29c4:	8082                	ret
    29c6:	50b6                	lw	ra,108(sp)
    29c8:	5426                	lw	s0,104(sp)
    29ca:	4501                	li	a0,0
    29cc:	6165                	addi	sp,sp,112
    29ce:	4581                	li	a1,0
    29d0:	4781                	li	a5,0
    29d2:	8082                	ret

000029d4 <_lseek>:
    29d4:	03e00893          	li	a7,62
    29d8:	00000073          	ecall
    29dc:	00054763          	bltz	a0,29ea <_lseek+0x16>
    29e0:	4581                	li	a1,0
    29e2:	4601                	li	a2,0
    29e4:	4781                	li	a5,0
    29e6:	4881                	li	a7,0
    29e8:	8082                	ret
    29ea:	1101                	addi	sp,sp,-32
    29ec:	cc22                	sw	s0,24(sp)
    29ee:	ce06                	sw	ra,28(sp)
    29f0:	1000                	addi	s0,sp,32
    29f2:	fea42623          	sw	a0,-20(s0)
    29f6:	28f5                	jal	2af2 <__errno>
    29f8:	fec42783          	lw	a5,-20(s0)
    29fc:	40f2                	lw	ra,28(sp)
    29fe:	4462                	lw	s0,24(sp)
    2a00:	40f007b3          	neg	a5,a5
    2a04:	c11c                	sw	a5,0(a0)
    2a06:	57fd                	li	a5,-1
    2a08:	853e                	mv	a0,a5
    2a0a:	6105                	addi	sp,sp,32
    2a0c:	4581                	li	a1,0
    2a0e:	4601                	li	a2,0
    2a10:	4781                	li	a5,0
    2a12:	4881                	li	a7,0
    2a14:	8082                	ret

00002a16 <_read>:
    2a16:	03f00893          	li	a7,63
    2a1a:	00000073          	ecall
    2a1e:	00054763          	bltz	a0,2a2c <_read+0x16>
    2a22:	4581                	li	a1,0
    2a24:	4601                	li	a2,0
    2a26:	4781                	li	a5,0
    2a28:	4881                	li	a7,0
    2a2a:	8082                	ret
    2a2c:	1101                	addi	sp,sp,-32
    2a2e:	cc22                	sw	s0,24(sp)
    2a30:	ce06                	sw	ra,28(sp)
    2a32:	1000                	addi	s0,sp,32
    2a34:	fea42623          	sw	a0,-20(s0)
    2a38:	286d                	jal	2af2 <__errno>
    2a3a:	fec42783          	lw	a5,-20(s0)
    2a3e:	40f2                	lw	ra,28(sp)
    2a40:	4462                	lw	s0,24(sp)
    2a42:	40f007b3          	neg	a5,a5
    2a46:	c11c                	sw	a5,0(a0)
    2a48:	57fd                	li	a5,-1
    2a4a:	853e                	mv	a0,a5
    2a4c:	6105                	addi	sp,sp,32
    2a4e:	4581                	li	a1,0
    2a50:	4601                	li	a2,0
    2a52:	4781                	li	a5,0
    2a54:	4881                	li	a7,0
    2a56:	8082                	ret

00002a58 <_conv_stat>:
    2a58:	1141                	addi	sp,sp,-16
    2a5a:	c422                	sw	s0,8(sp)
    2a5c:	c226                	sw	s1,4(sp)
    2a5e:	c606                	sw	ra,12(sp)
    2a60:	0800                	addi	s0,sp,16
    2a62:	4198                	lw	a4,0(a1)
    2a64:	459c                	lw	a5,8(a1)
    2a66:	4984                	lw	s1,16(a1)
    2a68:	0145a383          	lw	t2,20(a1) # f014 <_data_lma+0xb7bc>
    2a6c:	0185a283          	lw	t0,24(a1)
    2a70:	01c5af83          	lw	t6,28(a1)
    2a74:	0205af03          	lw	t5,32(a1)
    2a78:	0305ae83          	lw	t4,48(a1)
    2a7c:	0405ae03          	lw	t3,64(a1)
    2a80:	0385a303          	lw	t1,56(a1)
    2a84:	0485a803          	lw	a6,72(a1)
    2a88:	04c5a883          	lw	a7,76(a1)
    2a8c:	4db0                	lw	a2,88(a1)
    2a8e:	4df4                	lw	a3,92(a1)
    2a90:	00e51023          	sh	a4,0(a0)
    2a94:	00f51123          	sh	a5,2(a0)
    2a98:	55b8                	lw	a4,104(a1)
    2a9a:	55fc                	lw	a5,108(a1)
    2a9c:	c144                	sw	s1,4(a0)
    2a9e:	00751423          	sh	t2,8(a0)
    2aa2:	00551523          	sh	t0,10(a0)
    2aa6:	01f51623          	sh	t6,12(a0)
    2aaa:	01e51723          	sh	t5,14(a0)
    2aae:	01d52823          	sw	t4,16(a0)
    2ab2:	05c52623          	sw	t3,76(a0)
    2ab6:	04652423          	sw	t1,72(a0)
    2aba:	01052c23          	sw	a6,24(a0)
    2abe:	01152e23          	sw	a7,28(a0)
    2ac2:	40b2                	lw	ra,12(sp)
    2ac4:	4422                	lw	s0,8(sp)
    2ac6:	d510                	sw	a2,40(a0)
    2ac8:	d554                	sw	a3,44(a0)
    2aca:	dd18                	sw	a4,56(a0)
    2acc:	dd5c                	sw	a5,60(a0)
    2ace:	4492                	lw	s1,4(sp)
    2ad0:	0141                	addi	sp,sp,16
    2ad2:	4281                	li	t0,0
    2ad4:	4301                	li	t1,0
    2ad6:	4381                	li	t2,0
    2ad8:	4501                	li	a0,0
    2ada:	4581                	li	a1,0
    2adc:	4601                	li	a2,0
    2ade:	4681                	li	a3,0
    2ae0:	4701                	li	a4,0
    2ae2:	4781                	li	a5,0
    2ae4:	4801                	li	a6,0
    2ae6:	4881                	li	a7,0
    2ae8:	4e01                	li	t3,0
    2aea:	4e81                	li	t4,0
    2aec:	4f01                	li	t5,0
    2aee:	4f81                	li	t6,0
    2af0:	8082                	ret

00002af2 <__errno>:
    2af2:	1141                	addi	sp,sp,-16
    2af4:	c422                	sw	s0,8(sp)
    2af6:	c606                	sw	ra,12(sp)
    2af8:	0800                	addi	s0,sp,16
    2afa:	40b2                	lw	ra,12(sp)
    2afc:	4422                	lw	s0,8(sp)
    2afe:	200007b7          	lui	a5,0x20000
    2b02:	5647a503          	lw	a0,1380(a5) # 20000564 <_impure_ptr>
    2b06:	0141                	addi	sp,sp,16
    2b08:	4781                	li	a5,0
    2b0a:	8082                	ret

00002b0c <IIC_Init>:
    2b0c:	7139                	addi	sp,sp,-64
    2b0e:	de06                	sw	ra,60(sp)
    2b10:	dc22                	sw	s0,56(sp)
    2b12:	da26                	sw	s1,52(sp)
    2b14:	0080                	addi	s0,sp,64
    2b16:	d84a                	sw	s2,48(sp)
    2b18:	d64e                	sw	s3,44(sp)
    2b1a:	d452                	sw	s4,40(sp)
    2b1c:	89aa                	mv	s3,a0
    2b1e:	8a2e                	mv	s4,a1
    2b20:	4525                	li	a0,9
    2b22:	4585                	li	a1,1
    2b24:	fc042223          	sw	zero,-60(s0)
    2b28:	fc042423          	sw	zero,-56(s0)
    2b2c:	fc042623          	sw	zero,-52(s0)
    2b30:	fc042823          	sw	zero,-48(s0)
    2b34:	fc042a23          	sw	zero,-44(s0)
    2b38:	fc042c23          	sw	zero,-40(s0)
    2b3c:	fc042e23          	sw	zero,-36(s0)
    2b40:	25f1                	jal	320c <RCC_APB2PeriphClockCmd>
    2b42:	4585                	li	a1,1
    2b44:	4509                	li	a0,2
    2b46:	2c65                	jal	2dfe <GPIO_PinRemapConfig>
    2b48:	4585                	li	a1,1
    2b4a:	00200537          	lui	a0,0x200
    2b4e:	25f5                	jal	323a <RCC_APB1PeriphClockCmd>
    2b50:	40011537          	lui	a0,0x40011
    2b54:	10000793          	li	a5,256
    2b58:	4971                	li	s2,28
    2b5a:	448d                	li	s1,3
    2b5c:	fc440593          	addi	a1,s0,-60
    2b60:	c0050513          	addi	a0,a0,-1024 # 40010c00 <_eusrstack+0x2000bc00>
    2b64:	fcf41223          	sh	a5,-60(s0)
    2b68:	fd242623          	sw	s2,-52(s0)
    2b6c:	fc942423          	sw	s1,-56(s0)
    2b70:	22a5                	jal	2cd8 <GPIO_Init>
    2b72:	40011537          	lui	a0,0x40011
    2b76:	20000793          	li	a5,512
    2b7a:	fc440593          	addi	a1,s0,-60
    2b7e:	c0050513          	addi	a0,a0,-1024 # 40010c00 <_eusrstack+0x2000bc00>
    2b82:	fcf41223          	sh	a5,-60(s0)
    2b86:	fd242623          	sw	s2,-52(s0)
    2b8a:	fc942423          	sw	s1,-56(s0)
    2b8e:	22a9                	jal	2cd8 <GPIO_Init>
    2b90:	400007b7          	lui	a5,0x40000
    2b94:	fcf42a23          	sw	a5,-44(s0)
    2b98:	40005537          	lui	a0,0x40005
    2b9c:	40000793          	li	a5,1024
    2ba0:	fcf41d23          	sh	a5,-38(s0)
    2ba4:	fd040593          	addi	a1,s0,-48
    2ba8:	6791                	lui	a5,0x4
    2baa:	40050513          	addi	a0,a0,1024 # 40005400 <_eusrstack+0x20000400>
    2bae:	fd342823          	sw	s3,-48(s0)
    2bb2:	fd441c23          	sh	s4,-40(s0)
    2bb6:	fcf41e23          	sh	a5,-36(s0)
    2bba:	2615                	jal	2ede <I2C_Init>
    2bbc:	40005537          	lui	a0,0x40005
    2bc0:	4585                	li	a1,1
    2bc2:	40050513          	addi	a0,a0,1024 # 40005400 <_eusrstack+0x20000400>
    2bc6:	211d                	jal	2fec <I2C_Cmd>
    2bc8:	50f2                	lw	ra,60(sp)
    2bca:	5462                	lw	s0,56(sp)
    2bcc:	54d2                	lw	s1,52(sp)
    2bce:	5942                	lw	s2,48(sp)
    2bd0:	59b2                	lw	s3,44(sp)
    2bd2:	5a22                	lw	s4,40(sp)
    2bd4:	6121                	addi	sp,sp,64
    2bd6:	4501                	li	a0,0
    2bd8:	4581                	li	a1,0
    2bda:	4781                	li	a5,0
    2bdc:	8082                	ret

00002bde <main>:
    2bde:	1101                	addi	sp,sp,-32
    2be0:	ce06                	sw	ra,28(sp)
    2be2:	cc22                	sw	s0,24(sp)
    2be4:	c84a                	sw	s2,16(sp)
    2be6:	1000                	addi	s0,sp,32
    2be8:	c64e                	sw	s3,12(sp)
    2bea:	ca26                	sw	s1,20(sp)
    2bec:	c452                	sw	s4,8(sp)
    2bee:	2741                	jal	336e <SystemCoreClockUpdate>
    2bf0:	019000ef          	jal	3408 <Delay_Init>
    2bf4:	00071537          	lui	a0,0x71
    2bf8:	80050513          	addi	a0,a0,-2048 # 70800 <_data_lma+0x6cfa8>
    2bfc:	0a3000ef          	jal	349e <USART_Printf_Init>
    2c00:	00001517          	auipc	a0,0x1
    2c04:	c2050513          	addi	a0,a0,-992 # 3820 <USART_GetFlagStatus+0x1c>
    2c08:	e92fd0ef          	jal	29a <puts>
    2c0c:	6551                	lui	a0,0x14
    2c0e:	4589                	li	a1,2
    2c10:	88050513          	addi	a0,a0,-1920 # 13880 <_data_lma+0x10028>
    2c14:	3de5                	jal	2b0c <IIC_Init>
    2c16:	4915                	li	s2,5
    2c18:	1fffe997          	auipc	s3,0x1fffe
    2c1c:	93c98993          	addi	s3,s3,-1732 # 20000554 <TxData>
    2c20:	40005537          	lui	a0,0x40005
    2c24:	000205b7          	lui	a1,0x20
    2c28:	40050513          	addi	a0,a0,1024 # 40005400 <_eusrstack+0x20000400>
    2c2c:	2965                	jal	30e4 <I2C_GetFlagStatus>
    2c2e:	84aa                	mv	s1,a0
    2c30:	f965                	bnez	a0,2c20 <main+0x42>
    2c32:	40005537          	lui	a0,0x40005
    2c36:	4585                	li	a1,1
    2c38:	40050513          	addi	a0,a0,1024 # 40005400 <_eusrstack+0x20000400>
    2c3c:	2ef9                	jal	301a <I2C_GenerateSTART>
    2c3e:	000305b7          	lui	a1,0x30
    2c42:	40005537          	lui	a0,0x40005
    2c46:	0585                	addi	a1,a1,1 # 30001 <_data_lma+0x2c7a9>
    2c48:	40050513          	addi	a0,a0,1024 # 40005400 <_eusrstack+0x20000400>
    2c4c:	21b5                	jal	30b8 <I2C_CheckEvent>
    2c4e:	d965                	beqz	a0,2c3e <main+0x60>
    2c50:	40005537          	lui	a0,0x40005
    2c54:	4601                	li	a2,0
    2c56:	4589                	li	a1,2
    2c58:	40050513          	addi	a0,a0,1024 # 40005400 <_eusrstack+0x20000400>
    2c5c:	291d                	jal	3092 <I2C_Send7bitAddress>
    2c5e:	000705b7          	lui	a1,0x70
    2c62:	40005537          	lui	a0,0x40005
    2c66:	08258593          	addi	a1,a1,130 # 70082 <_data_lma+0x6c82a>
    2c6a:	40050513          	addi	a0,a0,1024 # 40005400 <_eusrstack+0x20000400>
    2c6e:	21a9                	jal	30b8 <I2C_CheckEvent>
    2c70:	d57d                	beqz	a0,2c5e <main+0x80>
    2c72:	4a19                	li	s4,6
    2c74:	100005b7          	lui	a1,0x10000
    2c78:	40005537          	lui	a0,0x40005
    2c7c:	08058593          	addi	a1,a1,128 # 10000080 <_data_lma+0xfffc828>
    2c80:	40050513          	addi	a0,a0,1024 # 40005400 <_eusrstack+0x20000400>
    2c84:	2185                	jal	30e4 <I2C_GetFlagStatus>
    2c86:	cd09                	beqz	a0,2ca0 <main+0xc2>
    2c88:	06400513          	li	a0,100
    2c8c:	27c1                	jal	344c <Delay_Ms>
    2c8e:	013487b3          	add	a5,s1,s3
    2c92:	0007c583          	lbu	a1,0(a5) # 4000 <_data_lma+0x7a8>
    2c96:	40005537          	lui	a0,0x40005
    2c9a:	40050513          	addi	a0,a0,1024 # 40005400 <_eusrstack+0x20000400>
    2c9e:	2ef1                	jal	307a <I2C_SendData>
    2ca0:	0485                	addi	s1,s1,1
    2ca2:	fd4499e3          	bne	s1,s4,2c74 <main+0x96>
    2ca6:	000705b7          	lui	a1,0x70
    2caa:	40005537          	lui	a0,0x40005
    2cae:	08458593          	addi	a1,a1,132 # 70084 <_data_lma+0x6c82c>
    2cb2:	40050513          	addi	a0,a0,1024 # 40005400 <_eusrstack+0x20000400>
    2cb6:	2109                	jal	30b8 <I2C_CheckEvent>
    2cb8:	d57d                	beqz	a0,2ca6 <main+0xc8>
    2cba:	40005537          	lui	a0,0x40005
    2cbe:	4585                	li	a1,1
    2cc0:	40050513          	addi	a0,a0,1024 # 40005400 <_eusrstack+0x20000400>
    2cc4:	2659                	jal	304a <I2C_GenerateSTOP>
    2cc6:	197d                	addi	s2,s2,-1
    2cc8:	3e800513          	li	a0,1000
    2ccc:	0ff97913          	zext.b	s2,s2
    2cd0:	2fb5                	jal	344c <Delay_Ms>
    2cd2:	f40917e3          	bnez	s2,2c20 <main+0x42>
    2cd6:	a001                	j	2cd6 <main+0xf8>

00002cd8 <GPIO_Init>:
    2cd8:	1141                	addi	sp,sp,-16
    2cda:	c422                	sw	s0,8(sp)
    2cdc:	c606                	sw	ra,12(sp)
    2cde:	0800                	addi	s0,sp,16
    2ce0:	459c                	lw	a5,8(a1)
    2ce2:	0107f713          	andi	a4,a5,16
    2ce6:	00f7f813          	andi	a6,a5,15
    2cea:	c701                	beqz	a4,2cf2 <GPIO_Init+0x1a>
    2cec:	41d8                	lw	a4,4(a1)
    2cee:	00e86833          	or	a6,a6,a4
    2cf2:	40022737          	lui	a4,0x40022
    2cf6:	5b14                	lw	a3,48(a4)
    2cf8:	40011737          	lui	a4,0x40011
    2cfc:	0186d613          	srli	a2,a3,0x18
    2d00:	8a3d                	andi	a2,a2,15
    2d02:	ee71                	bnez	a2,2dde <GPIO_Init+0x106>
    2d04:	4685                	li	a3,1
    2d06:	1fffe617          	auipc	a2,0x1fffe
    2d0a:	86d60523          	sb	a3,-1942(a2) # 20000570 <MCU_Version>
    2d0e:	00e51763          	bne	a0,a4,2d1c <GPIO_Init+0x44>
    2d12:	0005d703          	lhu	a4,0(a1)
    2d16:	8335                	srli	a4,a4,0xd
    2d18:	00e59023          	sh	a4,0(a1)
    2d1c:	0005d583          	lhu	a1,0(a1)
    2d20:	0ff5f713          	zext.b	a4,a1
    2d24:	c339                	beqz	a4,2d6a <GPIO_Init+0x92>
    2d26:	4118                	lw	a4,0(a0)
    2d28:	4681                	li	a3,0
    2d2a:	4e85                	li	t4,1
    2d2c:	4f3d                	li	t5,15
    2d2e:	02800f93          	li	t6,40
    2d32:	04800293          	li	t0,72
    2d36:	4e21                	li	t3,8
    2d38:	00de9633          	sll	a2,t4,a3
    2d3c:	00c5f8b3          	and	a7,a1,a2
    2d40:	03161163          	bne	a2,a7,2d62 <GPIO_Init+0x8a>
    2d44:	00269893          	slli	a7,a3,0x2
    2d48:	011f1333          	sll	t1,t5,a7
    2d4c:	fff34313          	not	t1,t1
    2d50:	00e37733          	and	a4,t1,a4
    2d54:	011818b3          	sll	a7,a6,a7
    2d58:	00e8e733          	or	a4,a7,a4
    2d5c:	09f79963          	bne	a5,t6,2dee <GPIO_Init+0x116>
    2d60:	c950                	sw	a2,20(a0)
    2d62:	0685                	addi	a3,a3,1
    2d64:	fdc69ae3          	bne	a3,t3,2d38 <GPIO_Init+0x60>
    2d68:	c118                	sw	a4,0(a0)
    2d6a:	0ff00713          	li	a4,255
    2d6e:	04b77663          	bgeu	a4,a1,2dba <GPIO_Init+0xe2>
    2d72:	4154                	lw	a3,4(a0)
    2d74:	4601                	li	a2,0
    2d76:	4e85                	li	t4,1
    2d78:	4f3d                	li	t5,15
    2d7a:	02800f93          	li	t6,40
    2d7e:	04800293          	li	t0,72
    2d82:	4e21                	li	t3,8
    2d84:	00860713          	addi	a4,a2,8
    2d88:	00ee9733          	sll	a4,t4,a4
    2d8c:	00e5f8b3          	and	a7,a1,a4
    2d90:	03171163          	bne	a4,a7,2db2 <GPIO_Init+0xda>
    2d94:	00261893          	slli	a7,a2,0x2
    2d98:	011f1333          	sll	t1,t5,a7
    2d9c:	fff34313          	not	t1,t1
    2da0:	00d376b3          	and	a3,t1,a3
    2da4:	011818b3          	sll	a7,a6,a7
    2da8:	00d8e6b3          	or	a3,a7,a3
    2dac:	05f79563          	bne	a5,t6,2df6 <GPIO_Init+0x11e>
    2db0:	c958                	sw	a4,20(a0)
    2db2:	0605                	addi	a2,a2,1
    2db4:	fdc618e3          	bne	a2,t3,2d84 <GPIO_Init+0xac>
    2db8:	c154                	sw	a3,4(a0)
    2dba:	40b2                	lw	ra,12(sp)
    2dbc:	4422                	lw	s0,8(sp)
    2dbe:	0141                	addi	sp,sp,16
    2dc0:	4281                	li	t0,0
    2dc2:	4301                	li	t1,0
    2dc4:	4501                	li	a0,0
    2dc6:	4581                	li	a1,0
    2dc8:	4601                	li	a2,0
    2dca:	4681                	li	a3,0
    2dcc:	4701                	li	a4,0
    2dce:	4781                	li	a5,0
    2dd0:	4801                	li	a6,0
    2dd2:	4881                	li	a7,0
    2dd4:	4e01                	li	t3,0
    2dd6:	4e81                	li	t4,0
    2dd8:	4f01                	li	t5,0
    2dda:	4f81                	li	t6,0
    2ddc:	8082                	ret
    2dde:	f2e51fe3          	bne	a0,a4,2d1c <GPIO_Init+0x44>
    2de2:	1fffd717          	auipc	a4,0x1fffd
    2de6:	78e74703          	lbu	a4,1934(a4) # 20000570 <MCU_Version>
    2dea:	db0d                	beqz	a4,2d1c <GPIO_Init+0x44>
    2dec:	b71d                	j	2d12 <GPIO_Init+0x3a>
    2dee:	f6579ae3          	bne	a5,t0,2d62 <GPIO_Init+0x8a>
    2df2:	c910                	sw	a2,16(a0)
    2df4:	b7bd                	j	2d62 <GPIO_Init+0x8a>
    2df6:	fa579ee3          	bne	a5,t0,2db2 <GPIO_Init+0xda>
    2dfa:	c918                	sw	a4,16(a0)
    2dfc:	bf5d                	j	2db2 <GPIO_Init+0xda>

00002dfe <GPIO_PinRemapConfig>:
    2dfe:	1141                	addi	sp,sp,-16
    2e00:	c422                	sw	s0,8(sp)
    2e02:	c606                	sw	ra,12(sp)
    2e04:	0800                	addi	s0,sp,16
    2e06:	400107b7          	lui	a5,0x40010
    2e0a:	02055963          	bgez	a0,2e3c <GPIO_PinRemapConfig+0x3e>
    2e0e:	4fdc                	lw	a5,28(a5)
    2e10:	01055693          	srli	a3,a0,0x10
    2e14:	01051613          	slli	a2,a0,0x10
    2e18:	00300737          	lui	a4,0x300
    2e1c:	8abd                	andi	a3,a3,15
    2e1e:	8241                	srli	a2,a2,0x10
    2e20:	00e57833          	and	a6,a0,a4
    2e24:	06055763          	bgez	a0,2e92 <GPIO_PinRemapConfig+0x94>
    2e28:	02e81a63          	bne	a6,a4,2e5c <GPIO_PinRemapConfig+0x5e>
    2e2c:	06c1                	addi	a3,a3,16
    2e2e:	470d                	li	a4,3
    2e30:	00d71733          	sll	a4,a4,a3
    2e34:	fff74713          	not	a4,a4
    2e38:	8ff9                	and	a5,a5,a4
    2e3a:	a02d                	j	2e64 <GPIO_PinRemapConfig+0x66>
    2e3c:	40022737          	lui	a4,0x40022
    2e40:	5b18                	lw	a4,48(a4)
    2e42:	43dc                	lw	a5,4(a5)
    2e44:	01875693          	srli	a3,a4,0x18
    2e48:	8abd                	andi	a3,a3,15
    2e4a:	f2f9                	bnez	a3,2e10 <GPIO_PinRemapConfig+0x12>
    2e4c:	0017d713          	srli	a4,a5,0x1
    2e50:	76f9                	lui	a3,0xffffe
    2e52:	07ce                	slli	a5,a5,0x13
    2e54:	8f75                	and	a4,a4,a3
    2e56:	83cd                	srli	a5,a5,0x13
    2e58:	8fd9                	or	a5,a5,a4
    2e5a:	bf5d                	j	2e10 <GPIO_PinRemapConfig+0x12>
    2e5c:	00b51713          	slli	a4,a0,0xb
    2e60:	fc0747e3          	bltz	a4,2e2e <GPIO_PinRemapConfig+0x30>
    2e64:	c989                	beqz	a1,2e76 <GPIO_PinRemapConfig+0x78>
    2e66:	01555713          	srli	a4,a0,0x15
    2e6a:	0712                	slli	a4,a4,0x4
    2e6c:	00e61733          	sll	a4,a2,a4
    2e70:	8fd9                	or	a5,a5,a4
    2e72:	02055e63          	bgez	a0,2eae <GPIO_PinRemapConfig+0xb0>
    2e76:	40010737          	lui	a4,0x40010
    2e7a:	cf5c                	sw	a5,28(a4)
    2e7c:	40b2                	lw	ra,12(sp)
    2e7e:	4422                	lw	s0,8(sp)
    2e80:	0141                	addi	sp,sp,16
    2e82:	4501                	li	a0,0
    2e84:	4581                	li	a1,0
    2e86:	4601                	li	a2,0
    2e88:	4681                	li	a3,0
    2e8a:	4701                	li	a4,0
    2e8c:	4781                	li	a5,0
    2e8e:	4801                	li	a6,0
    2e90:	8082                	ret
    2e92:	02e81263          	bne	a6,a4,2eb6 <GPIO_PinRemapConfig+0xb8>
    2e96:	40010837          	lui	a6,0x40010
    2e9a:	00482683          	lw	a3,4(a6) # 40010004 <_eusrstack+0x2000b004>
    2e9e:	f1000737          	lui	a4,0xf1000
    2ea2:	177d                	addi	a4,a4,-1 # f0ffffff <_eusrstack+0xd0ffafff>
    2ea4:	8ff9                	and	a5,a5,a4
    2ea6:	8f75                	and	a4,a4,a3
    2ea8:	00e82223          	sw	a4,4(a6)
    2eac:	fdcd                	bnez	a1,2e66 <GPIO_PinRemapConfig+0x68>
    2eae:	40010737          	lui	a4,0x40010
    2eb2:	c35c                	sw	a5,4(a4)
    2eb4:	b7e1                	j	2e7c <GPIO_PinRemapConfig+0x7e>
    2eb6:	00b51713          	slli	a4,a0,0xb
    2eba:	00075c63          	bgez	a4,2ed2 <GPIO_PinRemapConfig+0xd4>
    2ebe:	470d                	li	a4,3
    2ec0:	00d71733          	sll	a4,a4,a3
    2ec4:	fff74713          	not	a4,a4
    2ec8:	8f7d                	and	a4,a4,a5
    2eca:	0f0007b7          	lui	a5,0xf000
    2ece:	8fd9                	or	a5,a5,a4
    2ed0:	bff1                	j	2eac <GPIO_PinRemapConfig+0xae>
    2ed2:	01555713          	srli	a4,a0,0x15
    2ed6:	0712                	slli	a4,a4,0x4
    2ed8:	00e61733          	sll	a4,a2,a4
    2edc:	b7e5                	j	2ec4 <GPIO_PinRemapConfig+0xc6>

00002ede <I2C_Init>:
    2ede:	7139                	addi	sp,sp,-64
    2ee0:	dc22                	sw	s0,56(sp)
    2ee2:	da26                	sw	s1,52(sp)
    2ee4:	0080                	addi	s0,sp,64
    2ee6:	d84a                	sw	s2,48(sp)
    2ee8:	de06                	sw	ra,60(sp)
    2eea:	00455903          	lhu	s2,4(a0)
    2eee:	67c1                	lui	a5,0x10
    2ef0:	84aa                	mv	s1,a0
    2ef2:	fc078793          	addi	a5,a5,-64 # ffc0 <_data_lma+0xc768>
    2ef6:	fdc40513          	addi	a0,s0,-36
    2efa:	00f97933          	and	s2,s2,a5
    2efe:	fcb42623          	sw	a1,-52(s0)
    2f02:	2c15                	jal	3136 <RCC_GetClocksFreq>
    2f04:	fe442783          	lw	a5,-28(s0)
    2f08:	000f4737          	lui	a4,0xf4
    2f0c:	24070713          	addi	a4,a4,576 # f4240 <_data_lma+0xf09e8>
    2f10:	02e7d733          	divu	a4,a5,a4
    2f14:	fcc42583          	lw	a1,-52(s0)
    2f18:	6641                	lui	a2,0x10
    2f1a:	1679                	addi	a2,a2,-2 # fffe <_data_lma+0xc7a6>
    2f1c:	00e96933          	or	s2,s2,a4
    2f20:	01249223          	sh	s2,4(s1)
    2f24:	0004d683          	lhu	a3,0(s1)
    2f28:	8ef1                	and	a3,a3,a2
    2f2a:	00d49023          	sh	a3,0(s1)
    2f2e:	4194                	lw	a3,0(a1)
    2f30:	6661                	lui	a2,0x18
    2f32:	6a060613          	addi	a2,a2,1696 # 186a0 <_data_lma+0x14e48>
    2f36:	06d66863          	bltu	a2,a3,2fa6 <I2C_Init+0xc8>
    2f3a:	0686                	slli	a3,a3,0x1
    2f3c:	02d7d6b3          	divu	a3,a5,a3
    2f40:	4611                	li	a2,4
    2f42:	87b6                	mv	a5,a3
    2f44:	06c2                	slli	a3,a3,0x10
    2f46:	82c1                	srli	a3,a3,0x10
    2f48:	00c6f363          	bgeu	a3,a2,2f4e <I2C_Init+0x70>
    2f4c:	87b2                	mv	a5,a2
    2f4e:	0705                	addi	a4,a4,1
    2f50:	02e49023          	sh	a4,32(s1)
    2f54:	00f49e23          	sh	a5,28(s1)
    2f58:	0004d783          	lhu	a5,0(s1)
    2f5c:	6741                	lui	a4,0x10
    2f5e:	bf570713          	addi	a4,a4,-1035 # fbf5 <_data_lma+0xc39d>
    2f62:	0017e793          	ori	a5,a5,1
    2f66:	00f49023          	sh	a5,0(s1)
    2f6a:	0004d783          	lhu	a5,0(s1)
    2f6e:	00a5d683          	lhu	a3,10(a1)
    2f72:	50f2                	lw	ra,60(sp)
    2f74:	8ff9                	and	a5,a5,a4
    2f76:	0045d703          	lhu	a4,4(a1)
    2f7a:	5462                	lw	s0,56(sp)
    2f7c:	5942                	lw	s2,48(sp)
    2f7e:	8f55                	or	a4,a4,a3
    2f80:	8fd9                	or	a5,a5,a4
    2f82:	00f49023          	sh	a5,0(s1)
    2f86:	0085d703          	lhu	a4,8(a1)
    2f8a:	00c5d783          	lhu	a5,12(a1)
    2f8e:	8fd9                	or	a5,a5,a4
    2f90:	00f49423          	sh	a5,8(s1)
    2f94:	54d2                	lw	s1,52(sp)
    2f96:	6121                	addi	sp,sp,64
    2f98:	4501                	li	a0,0
    2f9a:	4581                	li	a1,0
    2f9c:	4601                	li	a2,0
    2f9e:	4681                	li	a3,0
    2fa0:	4701                	li	a4,0
    2fa2:	4781                	li	a5,0
    2fa4:	8082                	ret
    2fa6:	0065d503          	lhu	a0,6(a1)
    2faa:	6631                	lui	a2,0xc
    2fac:	167d                	addi	a2,a2,-1 # bfff <_data_lma+0x87a7>
    2fae:	02c51763          	bne	a0,a2,2fdc <I2C_Init+0xfe>
    2fb2:	460d                	li	a2,3
    2fb4:	02c686b3          	mul	a3,a3,a2
    2fb8:	02d7d7b3          	divu	a5,a5,a3
    2fbc:	01479693          	slli	a3,a5,0x14
    2fc0:	e299                	bnez	a3,2fc6 <I2C_Init+0xe8>
    2fc2:	0017e793          	ori	a5,a5,1
    2fc6:	76e1                	lui	a3,0xffff8
    2fc8:	8fd5                	or	a5,a5,a3
    2fca:	12c00693          	li	a3,300
    2fce:	02d70733          	mul	a4,a4,a3
    2fd2:	3e800693          	li	a3,1000
    2fd6:	02d74733          	div	a4,a4,a3
    2fda:	bf95                	j	2f4e <I2C_Init+0x70>
    2fdc:	4665                	li	a2,25
    2fde:	02c686b3          	mul	a3,a3,a2
    2fe2:	02d7d7b3          	divu	a5,a5,a3
    2fe6:	6691                	lui	a3,0x4
    2fe8:	8fd5                	or	a5,a5,a3
    2fea:	bfc9                	j	2fbc <I2C_Init+0xde>

00002fec <I2C_Cmd>:
    2fec:	1141                	addi	sp,sp,-16
    2fee:	c422                	sw	s0,8(sp)
    2ff0:	c606                	sw	ra,12(sp)
    2ff2:	0800                	addi	s0,sp,16
    2ff4:	00055783          	lhu	a5,0(a0)
    2ff8:	cd89                	beqz	a1,3012 <I2C_Cmd+0x26>
    2ffa:	0017e793          	ori	a5,a5,1
    2ffe:	40b2                	lw	ra,12(sp)
    3000:	4422                	lw	s0,8(sp)
    3002:	00f51023          	sh	a5,0(a0)
    3006:	0141                	addi	sp,sp,16
    3008:	4501                	li	a0,0
    300a:	4581                	li	a1,0
    300c:	4701                	li	a4,0
    300e:	4781                	li	a5,0
    3010:	8082                	ret
    3012:	6741                	lui	a4,0x10
    3014:	1779                	addi	a4,a4,-2 # fffe <_data_lma+0xc7a6>
    3016:	8ff9                	and	a5,a5,a4
    3018:	b7dd                	j	2ffe <I2C_Cmd+0x12>

0000301a <I2C_GenerateSTART>:
    301a:	1141                	addi	sp,sp,-16
    301c:	c422                	sw	s0,8(sp)
    301e:	c606                	sw	ra,12(sp)
    3020:	0800                	addi	s0,sp,16
    3022:	00055783          	lhu	a5,0(a0)
    3026:	cd89                	beqz	a1,3040 <I2C_GenerateSTART+0x26>
    3028:	1007e793          	ori	a5,a5,256
    302c:	40b2                	lw	ra,12(sp)
    302e:	4422                	lw	s0,8(sp)
    3030:	00f51023          	sh	a5,0(a0)
    3034:	0141                	addi	sp,sp,16
    3036:	4501                	li	a0,0
    3038:	4581                	li	a1,0
    303a:	4701                	li	a4,0
    303c:	4781                	li	a5,0
    303e:	8082                	ret
    3040:	6741                	lui	a4,0x10
    3042:	eff70713          	addi	a4,a4,-257 # feff <_data_lma+0xc6a7>
    3046:	8ff9                	and	a5,a5,a4
    3048:	b7d5                	j	302c <I2C_GenerateSTART+0x12>

0000304a <I2C_GenerateSTOP>:
    304a:	1141                	addi	sp,sp,-16
    304c:	c422                	sw	s0,8(sp)
    304e:	c606                	sw	ra,12(sp)
    3050:	0800                	addi	s0,sp,16
    3052:	00055783          	lhu	a5,0(a0)
    3056:	cd89                	beqz	a1,3070 <I2C_GenerateSTOP+0x26>
    3058:	2007e793          	ori	a5,a5,512
    305c:	40b2                	lw	ra,12(sp)
    305e:	4422                	lw	s0,8(sp)
    3060:	00f51023          	sh	a5,0(a0)
    3064:	0141                	addi	sp,sp,16
    3066:	4501                	li	a0,0
    3068:	4581                	li	a1,0
    306a:	4701                	li	a4,0
    306c:	4781                	li	a5,0
    306e:	8082                	ret
    3070:	6741                	lui	a4,0x10
    3072:	dff70713          	addi	a4,a4,-513 # fdff <_data_lma+0xc5a7>
    3076:	8ff9                	and	a5,a5,a4
    3078:	b7d5                	j	305c <I2C_GenerateSTOP+0x12>

0000307a <I2C_SendData>:
    307a:	1141                	addi	sp,sp,-16
    307c:	c422                	sw	s0,8(sp)
    307e:	c606                	sw	ra,12(sp)
    3080:	0800                	addi	s0,sp,16
    3082:	40b2                	lw	ra,12(sp)
    3084:	4422                	lw	s0,8(sp)
    3086:	00b51823          	sh	a1,16(a0)
    308a:	0141                	addi	sp,sp,16
    308c:	4501                	li	a0,0
    308e:	4581                	li	a1,0
    3090:	8082                	ret

00003092 <I2C_Send7bitAddress>:
    3092:	1141                	addi	sp,sp,-16
    3094:	c422                	sw	s0,8(sp)
    3096:	c606                	sw	ra,12(sp)
    3098:	0800                	addi	s0,sp,16
    309a:	0015e793          	ori	a5,a1,1
    309e:	e219                	bnez	a2,30a4 <I2C_Send7bitAddress+0x12>
    30a0:	0fe5f793          	andi	a5,a1,254
    30a4:	40b2                	lw	ra,12(sp)
    30a6:	4422                	lw	s0,8(sp)
    30a8:	00f51823          	sh	a5,16(a0)
    30ac:	0141                	addi	sp,sp,16
    30ae:	4501                	li	a0,0
    30b0:	4581                	li	a1,0
    30b2:	4601                	li	a2,0
    30b4:	4781                	li	a5,0
    30b6:	8082                	ret

000030b8 <I2C_CheckEvent>:
    30b8:	1141                	addi	sp,sp,-16
    30ba:	c422                	sw	s0,8(sp)
    30bc:	c606                	sw	ra,12(sp)
    30be:	0800                	addi	s0,sp,16
    30c0:	01455783          	lhu	a5,20(a0)
    30c4:	01855503          	lhu	a0,24(a0)
    30c8:	40b2                	lw	ra,12(sp)
    30ca:	4422                	lw	s0,8(sp)
    30cc:	0542                	slli	a0,a0,0x10
    30ce:	8d5d                	or	a0,a0,a5
    30d0:	8d6d                	and	a0,a0,a1
    30d2:	0522                	slli	a0,a0,0x8
    30d4:	8121                	srli	a0,a0,0x8
    30d6:	8d0d                	sub	a0,a0,a1
    30d8:	00153513          	seqz	a0,a0
    30dc:	0141                	addi	sp,sp,16
    30de:	4581                	li	a1,0
    30e0:	4781                	li	a5,0
    30e2:	8082                	ret

000030e4 <I2C_GetFlagStatus>:
    30e4:	1101                	addi	sp,sp,-32
    30e6:	cc22                	sw	s0,24(sp)
    30e8:	ce06                	sw	ra,28(sp)
    30ea:	1000                	addi	s0,sp,32
    30ec:	fe042423          	sw	zero,-24(s0)
    30f0:	fe042623          	sw	zero,-20(s0)
    30f4:	01c5d793          	srli	a5,a1,0x1c
    30f8:	fea42623          	sw	a0,-20(s0)
    30fc:	fef42423          	sw	a5,-24(s0)
    3100:	fe842783          	lw	a5,-24(s0)
    3104:	05a2                	slli	a1,a1,0x8
    3106:	81a1                	srli	a1,a1,0x8
    3108:	c395                	beqz	a5,312c <I2C_GetFlagStatus+0x48>
    310a:	fec42783          	lw	a5,-20(s0)
    310e:	07d1                	addi	a5,a5,20
    3110:	fef42623          	sw	a5,-20(s0)
    3114:	fec42783          	lw	a5,-20(s0)
    3118:	40f2                	lw	ra,28(sp)
    311a:	4462                	lw	s0,24(sp)
    311c:	4388                	lw	a0,0(a5)
    311e:	8d6d                	and	a0,a0,a1
    3120:	00a03533          	snez	a0,a0
    3124:	6105                	addi	sp,sp,32
    3126:	4581                	li	a1,0
    3128:	4781                	li	a5,0
    312a:	8082                	ret
    312c:	fec42783          	lw	a5,-20(s0)
    3130:	81c1                	srli	a1,a1,0x10
    3132:	07e1                	addi	a5,a5,24
    3134:	bff1                	j	3110 <I2C_GetFlagStatus+0x2c>

00003136 <RCC_GetClocksFreq>:
    3136:	1141                	addi	sp,sp,-16
    3138:	c422                	sw	s0,8(sp)
    313a:	c606                	sw	ra,12(sp)
    313c:	0800                	addi	s0,sp,16
    313e:	40021737          	lui	a4,0x40021
    3142:	4354                	lw	a3,4(a4)
    3144:	007a17b7          	lui	a5,0x7a1
    3148:	4621                	li	a2,8
    314a:	8ab1                	andi	a3,a3,12
    314c:	20078793          	addi	a5,a5,512 # 7a1200 <_data_lma+0x79d9a8>
    3150:	04c69663          	bne	a3,a2,319c <RCC_GetClocksFreq+0x66>
    3154:	435c                	lw	a5,4(a4)
    3156:	4358                	lw	a4,4(a4)
    3158:	66c1                	lui	a3,0x10
    315a:	83c9                	srli	a5,a5,0x12
    315c:	8bbd                	andi	a5,a5,15
    315e:	8f75                	and	a4,a4,a3
    3160:	0789                	addi	a5,a5,2
    3162:	46c5                	li	a3,17
    3164:	00d79363          	bne	a5,a3,316a <RCC_GetClocksFreq+0x34>
    3168:	47c9                	li	a5,18
    316a:	ef01                	bnez	a4,3182 <RCC_GetClocksFreq+0x4c>
    316c:	40024737          	lui	a4,0x40024
    3170:	80072703          	lw	a4,-2048(a4) # 40023800 <_eusrstack+0x2001e800>
    3174:	8b41                	andi	a4,a4,16
    3176:	cf09                	beqz	a4,3190 <RCC_GetClocksFreq+0x5a>
    3178:	007a1737          	lui	a4,0x7a1
    317c:	20070713          	addi	a4,a4,512 # 7a1200 <_data_lma+0x79d9a8>
    3180:	a821                	j	3198 <RCC_GetClocksFreq+0x62>
    3182:	40021737          	lui	a4,0x40021
    3186:	4358                	lw	a4,4(a4)
    3188:	00e71693          	slli	a3,a4,0xe
    318c:	fe06d6e3          	bgez	a3,3178 <RCC_GetClocksFreq+0x42>
    3190:	003d1737          	lui	a4,0x3d1
    3194:	90070713          	addi	a4,a4,-1792 # 3d0900 <_data_lma+0x3cd0a8>
    3198:	02e787b3          	mul	a5,a5,a4
    319c:	c11c                	sw	a5,0(a0)
    319e:	40021637          	lui	a2,0x40021
    31a2:	4258                	lw	a4,4(a2)
    31a4:	00000697          	auipc	a3,0x0
    31a8:	69068693          	addi	a3,a3,1680 # 3834 <APBAHBPrescTable>
    31ac:	40b2                	lw	ra,12(sp)
    31ae:	8311                	srli	a4,a4,0x4
    31b0:	8b3d                	andi	a4,a4,15
    31b2:	9736                	add	a4,a4,a3
    31b4:	00074703          	lbu	a4,0(a4)
    31b8:	4422                	lw	s0,8(sp)
    31ba:	00e7d7b3          	srl	a5,a5,a4
    31be:	c15c                	sw	a5,4(a0)
    31c0:	4258                	lw	a4,4(a2)
    31c2:	8321                	srli	a4,a4,0x8
    31c4:	8b1d                	andi	a4,a4,7
    31c6:	9736                	add	a4,a4,a3
    31c8:	00074703          	lbu	a4,0(a4)
    31cc:	00e7d733          	srl	a4,a5,a4
    31d0:	c518                	sw	a4,8(a0)
    31d2:	4258                	lw	a4,4(a2)
    31d4:	832d                	srli	a4,a4,0xb
    31d6:	8b1d                	andi	a4,a4,7
    31d8:	96ba                	add	a3,a3,a4
    31da:	0006c703          	lbu	a4,0(a3)
    31de:	00000697          	auipc	a3,0x0
    31e2:	67668693          	addi	a3,a3,1654 # 3854 <ADCPrescTable>
    31e6:	00e7d7b3          	srl	a5,a5,a4
    31ea:	c55c                	sw	a5,12(a0)
    31ec:	4258                	lw	a4,4(a2)
    31ee:	8339                	srli	a4,a4,0xe
    31f0:	8b0d                	andi	a4,a4,3
    31f2:	9736                	add	a4,a4,a3
    31f4:	00074703          	lbu	a4,0(a4)
    31f8:	02e7d7b3          	divu	a5,a5,a4
    31fc:	c91c                	sw	a5,16(a0)
    31fe:	0141                	addi	sp,sp,16
    3200:	4501                	li	a0,0
    3202:	4601                	li	a2,0
    3204:	4681                	li	a3,0
    3206:	4701                	li	a4,0
    3208:	4781                	li	a5,0
    320a:	8082                	ret

0000320c <RCC_APB2PeriphClockCmd>:
    320c:	1141                	addi	sp,sp,-16
    320e:	c422                	sw	s0,8(sp)
    3210:	c606                	sw	ra,12(sp)
    3212:	0800                	addi	s0,sp,16
    3214:	400217b7          	lui	a5,0x40021
    3218:	4f98                	lw	a4,24(a5)
    321a:	c999                	beqz	a1,3230 <RCC_APB2PeriphClockCmd+0x24>
    321c:	8f49                	or	a4,a4,a0
    321e:	cf98                	sw	a4,24(a5)
    3220:	40b2                	lw	ra,12(sp)
    3222:	4422                	lw	s0,8(sp)
    3224:	0141                	addi	sp,sp,16
    3226:	4501                	li	a0,0
    3228:	4581                	li	a1,0
    322a:	4701                	li	a4,0
    322c:	4781                	li	a5,0
    322e:	8082                	ret
    3230:	fff54513          	not	a0,a0
    3234:	8d79                	and	a0,a0,a4
    3236:	cf88                	sw	a0,24(a5)
    3238:	b7e5                	j	3220 <RCC_APB2PeriphClockCmd+0x14>

0000323a <RCC_APB1PeriphClockCmd>:
    323a:	1141                	addi	sp,sp,-16
    323c:	c422                	sw	s0,8(sp)
    323e:	c606                	sw	ra,12(sp)
    3240:	0800                	addi	s0,sp,16
    3242:	400217b7          	lui	a5,0x40021
    3246:	4fd8                	lw	a4,28(a5)
    3248:	c999                	beqz	a1,325e <RCC_APB1PeriphClockCmd+0x24>
    324a:	8f49                	or	a4,a4,a0
    324c:	cfd8                	sw	a4,28(a5)
    324e:	40b2                	lw	ra,12(sp)
    3250:	4422                	lw	s0,8(sp)
    3252:	0141                	addi	sp,sp,16
    3254:	4501                	li	a0,0
    3256:	4581                	li	a1,0
    3258:	4701                	li	a4,0
    325a:	4781                	li	a5,0
    325c:	8082                	ret
    325e:	fff54513          	not	a0,a0
    3262:	8d79                	and	a0,a0,a4
    3264:	cfc8                	sw	a0,28(a5)
    3266:	b7e5                	j	324e <RCC_APB1PeriphClockCmd+0x14>

00003268 <SystemInit>:
    3268:	1101                	addi	sp,sp,-32
    326a:	400217b7          	lui	a5,0x40021
    326e:	cc22                	sw	s0,24(sp)
    3270:	ce06                	sw	ra,28(sp)
    3272:	1000                	addi	s0,sp,32
    3274:	4398                	lw	a4,0(a5)
    3276:	f8ff06b7          	lui	a3,0xf8ff0
    327a:	00020637          	lui	a2,0x20
    327e:	00176713          	ori	a4,a4,1
    3282:	c398                	sw	a4,0(a5)
    3284:	43d8                	lw	a4,4(a5)
    3286:	8f75                	and	a4,a4,a3
    3288:	c3d8                	sw	a4,4(a5)
    328a:	4398                	lw	a4,0(a5)
    328c:	fef706b7          	lui	a3,0xfef70
    3290:	16fd                	addi	a3,a3,-1 # fef6ffff <_eusrstack+0xdef6afff>
    3292:	8f75                	and	a4,a4,a3
    3294:	c398                	sw	a4,0(a5)
    3296:	4398                	lw	a4,0(a5)
    3298:	fffc06b7          	lui	a3,0xfffc0
    329c:	16fd                	addi	a3,a3,-1 # fffbffff <_eusrstack+0xdffbafff>
    329e:	8f75                	and	a4,a4,a3
    32a0:	c398                	sw	a4,0(a5)
    32a2:	43d8                	lw	a4,4(a5)
    32a4:	ff8106b7          	lui	a3,0xff810
    32a8:	16fd                	addi	a3,a3,-1 # ff80ffff <_eusrstack+0xdf80afff>
    32aa:	8f75                	and	a4,a4,a3
    32ac:	c3d8                	sw	a4,4(a5)
    32ae:	009f0737          	lui	a4,0x9f0
    32b2:	c798                	sw	a4,8(a5)
    32b4:	fe042423          	sw	zero,-24(s0)
    32b8:	fe042623          	sw	zero,-20(s0)
    32bc:	4398                	lw	a4,0(a5)
    32be:	66c1                	lui	a3,0x10
    32c0:	8f55                	or	a4,a4,a3
    32c2:	c398                	sw	a4,0(a5)
    32c4:	6685                	lui	a3,0x1
    32c6:	4398                	lw	a4,0(a5)
    32c8:	8f71                	and	a4,a4,a2
    32ca:	fee42623          	sw	a4,-20(s0)
    32ce:	fe842703          	lw	a4,-24(s0)
    32d2:	0705                	addi	a4,a4,1 # 9f0001 <_data_lma+0x9ec7a9>
    32d4:	fee42423          	sw	a4,-24(s0)
    32d8:	fec42703          	lw	a4,-20(s0)
    32dc:	e709                	bnez	a4,32e6 <SystemInit+0x7e>
    32de:	fe842703          	lw	a4,-24(s0)
    32e2:	fed712e3          	bne	a4,a3,32c6 <SystemInit+0x5e>
    32e6:	4398                	lw	a4,0(a5)
    32e8:	4785                	li	a5,1
    32ea:	00e71693          	slli	a3,a4,0xe
    32ee:	0606dd63          	bgez	a3,3368 <SystemInit+0x100>
    32f2:	fef42623          	sw	a5,-20(s0)
    32f6:	fec42703          	lw	a4,-20(s0)
    32fa:	04f71f63          	bne	a4,a5,3358 <SystemInit+0xf0>
    32fe:	400217b7          	lui	a5,0x40021
    3302:	43d8                	lw	a4,4(a5)
    3304:	ffc106b7          	lui	a3,0xffc10
    3308:	16fd                	addi	a3,a3,-1 # ffc0ffff <_eusrstack+0xdfc0afff>
    330a:	c3d8                	sw	a4,4(a5)
    330c:	43d8                	lw	a4,4(a5)
    330e:	c3d8                	sw	a4,4(a5)
    3310:	43d8                	lw	a4,4(a5)
    3312:	40076713          	ori	a4,a4,1024
    3316:	c3d8                	sw	a4,4(a5)
    3318:	43d8                	lw	a4,4(a5)
    331a:	8f75                	and	a4,a4,a3
    331c:	c3d8                	sw	a4,4(a5)
    331e:	43d8                	lw	a4,4(a5)
    3320:	002906b7          	lui	a3,0x290
    3324:	8f55                	or	a4,a4,a3
    3326:	c3d8                	sw	a4,4(a5)
    3328:	4398                	lw	a4,0(a5)
    332a:	010006b7          	lui	a3,0x1000
    332e:	8f55                	or	a4,a4,a3
    3330:	c398                	sw	a4,0(a5)
    3332:	4398                	lw	a4,0(a5)
    3334:	00671693          	slli	a3,a4,0x6
    3338:	fe06dde3          	bgez	a3,3332 <SystemInit+0xca>
    333c:	43d8                	lw	a4,4(a5)
    333e:	400216b7          	lui	a3,0x40021
    3342:	9b71                	andi	a4,a4,-4
    3344:	c3d8                	sw	a4,4(a5)
    3346:	43d8                	lw	a4,4(a5)
    3348:	00276713          	ori	a4,a4,2
    334c:	c3d8                	sw	a4,4(a5)
    334e:	4721                	li	a4,8
    3350:	42dc                	lw	a5,4(a3)
    3352:	8bb1                	andi	a5,a5,12
    3354:	fee79ee3          	bne	a5,a4,3350 <SystemInit+0xe8>
    3358:	40f2                	lw	ra,28(sp)
    335a:	4462                	lw	s0,24(sp)
    335c:	6105                	addi	sp,sp,32
    335e:	4601                	li	a2,0
    3360:	4681                	li	a3,0
    3362:	4701                	li	a4,0
    3364:	4781                	li	a5,0
    3366:	8082                	ret
    3368:	fe042623          	sw	zero,-20(s0)
    336c:	b769                	j	32f6 <SystemInit+0x8e>

0000336e <SystemCoreClockUpdate>:
    336e:	1141                	addi	sp,sp,-16
    3370:	c422                	sw	s0,8(sp)
    3372:	c606                	sw	ra,12(sp)
    3374:	0800                	addi	s0,sp,16
    3376:	40021737          	lui	a4,0x40021
    337a:	4354                	lw	a3,4(a4)
    337c:	007a17b7          	lui	a5,0x7a1
    3380:	4621                	li	a2,8
    3382:	8ab1                	andi	a3,a3,12
    3384:	20078793          	addi	a5,a5,512 # 7a1200 <_data_lma+0x79d9a8>
    3388:	04c69663          	bne	a3,a2,33d4 <SystemCoreClockUpdate+0x66>
    338c:	435c                	lw	a5,4(a4)
    338e:	4358                	lw	a4,4(a4)
    3390:	66c1                	lui	a3,0x10
    3392:	83c9                	srli	a5,a5,0x12
    3394:	8bbd                	andi	a5,a5,15
    3396:	8f75                	and	a4,a4,a3
    3398:	0789                	addi	a5,a5,2
    339a:	46c5                	li	a3,17
    339c:	00d79363          	bne	a5,a3,33a2 <SystemCoreClockUpdate+0x34>
    33a0:	47c9                	li	a5,18
    33a2:	ef01                	bnez	a4,33ba <SystemCoreClockUpdate+0x4c>
    33a4:	40024737          	lui	a4,0x40024
    33a8:	80072703          	lw	a4,-2048(a4) # 40023800 <_eusrstack+0x2001e800>
    33ac:	8b41                	andi	a4,a4,16
    33ae:	cf09                	beqz	a4,33c8 <SystemCoreClockUpdate+0x5a>
    33b0:	007a1737          	lui	a4,0x7a1
    33b4:	20070713          	addi	a4,a4,512 # 7a1200 <_data_lma+0x79d9a8>
    33b8:	a821                	j	33d0 <SystemCoreClockUpdate+0x62>
    33ba:	40021737          	lui	a4,0x40021
    33be:	4358                	lw	a4,4(a4)
    33c0:	00e71693          	slli	a3,a4,0xe
    33c4:	fe06d6e3          	bgez	a3,33b0 <SystemCoreClockUpdate+0x42>
    33c8:	003d1737          	lui	a4,0x3d1
    33cc:	90070713          	addi	a4,a4,-1792 # 3d0900 <_data_lma+0x3cd0a8>
    33d0:	02e787b3          	mul	a5,a5,a4
    33d4:	40021737          	lui	a4,0x40021
    33d8:	4358                	lw	a4,4(a4)
    33da:	00000697          	auipc	a3,0x0
    33de:	46a68693          	addi	a3,a3,1130 # 3844 <AHBPrescTable>
    33e2:	40b2                	lw	ra,12(sp)
    33e4:	8311                	srli	a4,a4,0x4
    33e6:	8b3d                	andi	a4,a4,15
    33e8:	9736                	add	a4,a4,a3
    33ea:	00074703          	lbu	a4,0(a4) # 40021000 <_eusrstack+0x2001c000>
    33ee:	4422                	lw	s0,8(sp)
    33f0:	00e7d7b3          	srl	a5,a5,a4
    33f4:	1fffd717          	auipc	a4,0x1fffd
    33f8:	16f72423          	sw	a5,360(a4) # 2000055c <SystemCoreClock>
    33fc:	0141                	addi	sp,sp,16
    33fe:	4601                	li	a2,0
    3400:	4681                	li	a3,0
    3402:	4701                	li	a4,0
    3404:	4781                	li	a5,0
    3406:	8082                	ret

00003408 <Delay_Init>:
    3408:	1141                	addi	sp,sp,-16
    340a:	c422                	sw	s0,8(sp)
    340c:	c606                	sw	ra,12(sp)
    340e:	0800                	addi	s0,sp,16
    3410:	1fffd797          	auipc	a5,0x1fffd
    3414:	14c7a783          	lw	a5,332(a5) # 2000055c <SystemCoreClock>
    3418:	007a1737          	lui	a4,0x7a1
    341c:	20070713          	addi	a4,a4,512 # 7a1200 <_data_lma+0x79d9a8>
    3420:	02e7d7b3          	divu	a5,a5,a4
    3424:	40b2                	lw	ra,12(sp)
    3426:	4422                	lw	s0,8(sp)
    3428:	0ff7f793          	zext.b	a5,a5
    342c:	1fffd717          	auipc	a4,0x1fffd
    3430:	14f70423          	sb	a5,328(a4) # 20000574 <p_us>
    3434:	3e800713          	li	a4,1000
    3438:	02e787b3          	mul	a5,a5,a4
    343c:	1fffd717          	auipc	a4,0x1fffd
    3440:	12f71b23          	sh	a5,310(a4) # 20000572 <p_ms>
    3444:	0141                	addi	sp,sp,16
    3446:	4701                	li	a4,0
    3448:	4781                	li	a5,0
    344a:	8082                	ret

0000344c <Delay_Ms>:
    344c:	1141                	addi	sp,sp,-16
    344e:	e000f7b7          	lui	a5,0xe000f
    3452:	c422                	sw	s0,8(sp)
    3454:	c606                	sw	ra,12(sp)
    3456:	0800                	addi	s0,sp,16
    3458:	43d8                	lw	a4,4(a5)
    345a:	4681                	li	a3,0
    345c:	9b79                	andi	a4,a4,-2
    345e:	c3d8                	sw	a4,4(a5)
    3460:	1fffd717          	auipc	a4,0x1fffd
    3464:	11275703          	lhu	a4,274(a4) # 20000572 <p_ms>
    3468:	02a70633          	mul	a2,a4,a0
    346c:	cb90                	sw	a2,16(a5)
    346e:	cbd4                	sw	a3,20(a5)
    3470:	4398                	lw	a4,0(a5)
    3472:	01076713          	ori	a4,a4,16
    3476:	c398                	sw	a4,0(a5)
    3478:	4398                	lw	a4,0(a5)
    347a:	02176713          	ori	a4,a4,33
    347e:	c398                	sw	a4,0(a5)
    3480:	43d8                	lw	a4,4(a5)
    3482:	8b05                	andi	a4,a4,1
    3484:	df75                	beqz	a4,3480 <Delay_Ms+0x34>
    3486:	4398                	lw	a4,0(a5)
    3488:	40b2                	lw	ra,12(sp)
    348a:	4422                	lw	s0,8(sp)
    348c:	9b79                	andi	a4,a4,-2
    348e:	c398                	sw	a4,0(a5)
    3490:	0141                	addi	sp,sp,16
    3492:	4501                	li	a0,0
    3494:	4601                	li	a2,0
    3496:	4681                	li	a3,0
    3498:	4701                	li	a4,0
    349a:	4781                	li	a5,0
    349c:	8082                	ret

0000349e <USART_Printf_Init>:
    349e:	7179                	addi	sp,sp,-48
    34a0:	d226                	sw	s1,36(sp)
    34a2:	84aa                	mv	s1,a0
    34a4:	6511                	lui	a0,0x4
    34a6:	d606                	sw	ra,44(sp)
    34a8:	d422                	sw	s0,40(sp)
    34aa:	4585                	li	a1,1
    34ac:	1800                	addi	s0,sp,48
    34ae:	0511                	addi	a0,a0,4 # 4004 <_data_lma+0x7ac>
    34b0:	3bb1                	jal	320c <RCC_APB2PeriphClockCmd>
    34b2:	20000793          	li	a5,512
    34b6:	fcf41a23          	sh	a5,-44(s0)
    34ba:	40011537          	lui	a0,0x40011
    34be:	478d                	li	a5,3
    34c0:	fcf42c23          	sw	a5,-40(s0)
    34c4:	fd440593          	addi	a1,s0,-44
    34c8:	47e1                	li	a5,24
    34ca:	80050513          	addi	a0,a0,-2048 # 40010800 <_eusrstack+0x2000b800>
    34ce:	fcf42e23          	sw	a5,-36(s0)
    34d2:	807ff0ef          	jal	2cd8 <GPIO_Init>
    34d6:	40014537          	lui	a0,0x40014
    34da:	000807b7          	lui	a5,0x80
    34de:	fe040593          	addi	a1,s0,-32
    34e2:	80050513          	addi	a0,a0,-2048 # 40013800 <_eusrstack+0x2000e800>
    34e6:	fe942023          	sw	s1,-32(s0)
    34ea:	fef42423          	sw	a5,-24(s0)
    34ee:	fe042223          	sw	zero,-28(s0)
    34f2:	fe041623          	sh	zero,-20(s0)
    34f6:	2af1                	jal	36d2 <USART_Init>
    34f8:	40014537          	lui	a0,0x40014
    34fc:	4585                	li	a1,1
    34fe:	80050513          	addi	a0,a0,-2048 # 40013800 <_eusrstack+0x2000e800>
    3502:	2c65                	jal	37ba <USART_Cmd>
    3504:	50b2                	lw	ra,44(sp)
    3506:	5422                	lw	s0,40(sp)
    3508:	5492                	lw	s1,36(sp)
    350a:	6145                	addi	sp,sp,48
    350c:	4501                	li	a0,0
    350e:	4581                	li	a1,0
    3510:	4781                	li	a5,0
    3512:	8082                	ret

00003514 <_write>:
    3514:	1101                	addi	sp,sp,-32
    3516:	cc22                	sw	s0,24(sp)
    3518:	ca26                	sw	s1,20(sp)
    351a:	c84a                	sw	s2,16(sp)
    351c:	c64e                	sw	s3,12(sp)
    351e:	ce06                	sw	ra,28(sp)
    3520:	1000                	addi	s0,sp,32
    3522:	89ae                	mv	s3,a1
    3524:	8932                	mv	s2,a2
    3526:	4481                	li	s1,0
    3528:	0124cd63          	blt	s1,s2,3542 <_write+0x2e>
    352c:	40f2                	lw	ra,28(sp)
    352e:	4462                	lw	s0,24(sp)
    3530:	44d2                	lw	s1,20(sp)
    3532:	49b2                	lw	s3,12(sp)
    3534:	854a                	mv	a0,s2
    3536:	4942                	lw	s2,16(sp)
    3538:	6105                	addi	sp,sp,32
    353a:	4581                	li	a1,0
    353c:	4601                	li	a2,0
    353e:	4781                	li	a5,0
    3540:	8082                	ret
    3542:	40014537          	lui	a0,0x40014
    3546:	04000593          	li	a1,64
    354a:	80050513          	addi	a0,a0,-2048 # 40013800 <_eusrstack+0x2000e800>
    354e:	2c5d                	jal	3804 <USART_GetFlagStatus>
    3550:	d96d                	beqz	a0,3542 <_write+0x2e>
    3552:	009987b3          	add	a5,s3,s1
    3556:	0007c583          	lbu	a1,0(a5) # 80000 <_data_lma+0x7c7a8>
    355a:	40014537          	lui	a0,0x40014
    355e:	80050513          	addi	a0,a0,-2048 # 40013800 <_eusrstack+0x2000e800>
    3562:	2459                	jal	37e8 <USART_SendData>
    3564:	0485                	addi	s1,s1,1
    3566:	b7c9                	j	3528 <_write+0x14>

00003568 <_sbrk>:
    3568:	1141                	addi	sp,sp,-16
    356a:	c422                	sw	s0,8(sp)
    356c:	c606                	sw	ra,12(sp)
    356e:	0800                	addi	s0,sp,16
    3570:	1fffd717          	auipc	a4,0x1fffd
    3574:	ff070713          	addi	a4,a4,-16 # 20000560 <curbrk.0>
    3578:	87aa                	mv	a5,a0
    357a:	4308                	lw	a0,0(a4)
    357c:	20001697          	auipc	a3,0x20001
    3580:	68468693          	addi	a3,a3,1668 # 20004c00 <_heap_end>
    3584:	97aa                	add	a5,a5,a0
    3586:	02f6e063          	bltu	a3,a5,35a6 <_sbrk+0x3e>
    358a:	1fffd697          	auipc	a3,0x1fffd
    358e:	18268693          	addi	a3,a3,386 # 2000070c <_ebss>
    3592:	00d7ea63          	bltu	a5,a3,35a6 <_sbrk+0x3e>
    3596:	c31c                	sw	a5,0(a4)
    3598:	40b2                	lw	ra,12(sp)
    359a:	4422                	lw	s0,8(sp)
    359c:	0141                	addi	sp,sp,16
    359e:	4681                	li	a3,0
    35a0:	4701                	li	a4,0
    35a2:	4781                	li	a5,0
    35a4:	8082                	ret
    35a6:	557d                	li	a0,-1
    35a8:	bfc5                	j	3598 <_sbrk+0x30>

000035aa <_fini>:
    35aa:	1141                	addi	sp,sp,-16
    35ac:	c422                	sw	s0,8(sp)
    35ae:	c606                	sw	ra,12(sp)
    35b0:	0800                	addi	s0,sp,16
    35b2:	40b2                	lw	ra,12(sp)
    35b4:	4422                	lw	s0,8(sp)
    35b6:	0141                	addi	sp,sp,16
    35b8:	8082                	ret

000035ba <_init>:
    35ba:	1141                	addi	sp,sp,-16
    35bc:	c422                	sw	s0,8(sp)
    35be:	c606                	sw	ra,12(sp)
    35c0:	0800                	addi	s0,sp,16
    35c2:	40b2                	lw	ra,12(sp)
    35c4:	4422                	lw	s0,8(sp)
    35c6:	0141                	addi	sp,sp,16
    35c8:	8082                	ret

000035ca <NMI_Handler>:
    35ca:	a001                	j	35ca <NMI_Handler>

000035cc <HardFault_Handler>:
    35cc:	a001                	j	35cc <HardFault_Handler>

000035ce <Ecall_M_Mode_Handler>:
    35ce:	a001                	j	35ce <Ecall_M_Mode_Handler>

000035d0 <Ecall_U_Mode_Handler>:
    35d0:	a001                	j	35d0 <Ecall_U_Mode_Handler>

000035d2 <Break_Point_Handler>:
    35d2:	a001                	j	35d2 <Break_Point_Handler>

000035d4 <SysTick_Handler>:
    35d4:	a001                	j	35d4 <SysTick_Handler>

000035d6 <SW_Handler>:
    35d6:	a001                	j	35d6 <SW_Handler>

000035d8 <WWDG_IRQHandler>:
    35d8:	a001                	j	35d8 <WWDG_IRQHandler>

000035da <PVD_IRQHandler>:
    35da:	a001                	j	35da <PVD_IRQHandler>

000035dc <TAMPER_IRQHandler>:
    35dc:	a001                	j	35dc <TAMPER_IRQHandler>

000035de <RTC_IRQHandler>:
    35de:	a001                	j	35de <RTC_IRQHandler>

000035e0 <FLASH_IRQHandler>:
    35e0:	a001                	j	35e0 <FLASH_IRQHandler>

000035e2 <RCC_IRQHandler>:
    35e2:	a001                	j	35e2 <RCC_IRQHandler>

000035e4 <EXTI0_IRQHandler>:
    35e4:	a001                	j	35e4 <EXTI0_IRQHandler>

000035e6 <EXTI1_IRQHandler>:
    35e6:	a001                	j	35e6 <EXTI1_IRQHandler>

000035e8 <EXTI2_IRQHandler>:
    35e8:	a001                	j	35e8 <EXTI2_IRQHandler>

000035ea <EXTI3_IRQHandler>:
    35ea:	a001                	j	35ea <EXTI3_IRQHandler>

000035ec <EXTI4_IRQHandler>:
    35ec:	a001                	j	35ec <EXTI4_IRQHandler>

000035ee <DMA1_Channel1_IRQHandler>:
    35ee:	a001                	j	35ee <DMA1_Channel1_IRQHandler>

000035f0 <DMA1_Channel2_IRQHandler>:
    35f0:	a001                	j	35f0 <DMA1_Channel2_IRQHandler>

000035f2 <DMA1_Channel3_IRQHandler>:
    35f2:	a001                	j	35f2 <DMA1_Channel3_IRQHandler>

000035f4 <DMA1_Channel4_IRQHandler>:
    35f4:	a001                	j	35f4 <DMA1_Channel4_IRQHandler>

000035f6 <DMA1_Channel5_IRQHandler>:
    35f6:	a001                	j	35f6 <DMA1_Channel5_IRQHandler>

000035f8 <DMA1_Channel6_IRQHandler>:
    35f8:	a001                	j	35f8 <DMA1_Channel6_IRQHandler>

000035fa <DMA1_Channel7_IRQHandler>:
    35fa:	a001                	j	35fa <DMA1_Channel7_IRQHandler>

000035fc <ADC1_2_IRQHandler>:
    35fc:	a001                	j	35fc <ADC1_2_IRQHandler>

000035fe <USB_HP_CAN1_TX_IRQHandler>:
    35fe:	a001                	j	35fe <USB_HP_CAN1_TX_IRQHandler>

00003600 <USB_LP_CAN1_RX0_IRQHandler>:
    3600:	a001                	j	3600 <USB_LP_CAN1_RX0_IRQHandler>

00003602 <CAN1_RX1_IRQHandler>:
    3602:	a001                	j	3602 <CAN1_RX1_IRQHandler>

00003604 <CAN1_SCE_IRQHandler>:
    3604:	a001                	j	3604 <CAN1_SCE_IRQHandler>

00003606 <EXTI9_5_IRQHandler>:
    3606:	a001                	j	3606 <EXTI9_5_IRQHandler>

00003608 <TIM1_BRK_IRQHandler>:
    3608:	a001                	j	3608 <TIM1_BRK_IRQHandler>

0000360a <TIM1_UP_IRQHandler>:
    360a:	a001                	j	360a <TIM1_UP_IRQHandler>

0000360c <TIM1_TRG_COM_IRQHandler>:
    360c:	a001                	j	360c <TIM1_TRG_COM_IRQHandler>

0000360e <TIM1_CC_IRQHandler>:
    360e:	a001                	j	360e <TIM1_CC_IRQHandler>

00003610 <TIM2_IRQHandler>:
    3610:	a001                	j	3610 <TIM2_IRQHandler>

00003612 <TIM3_IRQHandler>:
    3612:	a001                	j	3612 <TIM3_IRQHandler>

00003614 <TIM4_IRQHandler>:
    3614:	a001                	j	3614 <TIM4_IRQHandler>

00003616 <I2C1_EV_IRQHandler>:
    3616:	a001                	j	3616 <I2C1_EV_IRQHandler>

00003618 <I2C1_ER_IRQHandler>:
    3618:	a001                	j	3618 <I2C1_ER_IRQHandler>

0000361a <I2C2_EV_IRQHandler>:
    361a:	a001                	j	361a <I2C2_EV_IRQHandler>

0000361c <I2C2_ER_IRQHandler>:
    361c:	a001                	j	361c <I2C2_ER_IRQHandler>

0000361e <SPI1_IRQHandler>:
    361e:	a001                	j	361e <SPI1_IRQHandler>

00003620 <SPI2_IRQHandler>:
    3620:	a001                	j	3620 <SPI2_IRQHandler>

00003622 <USART1_IRQHandler>:
    3622:	a001                	j	3622 <USART1_IRQHandler>

00003624 <USART2_IRQHandler>:
    3624:	a001                	j	3624 <USART2_IRQHandler>

00003626 <USART3_IRQHandler>:
    3626:	a001                	j	3626 <USART3_IRQHandler>

00003628 <EXTI15_10_IRQHandler>:
    3628:	a001                	j	3628 <EXTI15_10_IRQHandler>

0000362a <RTCAlarm_IRQHandler>:
    362a:	a001                	j	362a <RTCAlarm_IRQHandler>

0000362c <USBWakeUp_IRQHandler>:
    362c:	a001                	j	362c <USBWakeUp_IRQHandler>

0000362e <USBHD_IRQHandler>:
    362e:	a001                	j	362e <USBHD_IRQHandler>

00003630 <USBHDWakeUp_IRQHandler>:
    3630:	a001                	j	3630 <USBHDWakeUp_IRQHandler>

00003632 <ETH_IRQHandler>:
    3632:	a001                	j	3632 <ETH_IRQHandler>

00003634 <ETHWakeUp_IRQHandler>:
    3634:	a001                	j	3634 <ETHWakeUp_IRQHandler>

00003636 <TIM5_IRQHandler>:
    3636:	a001                	j	3636 <TIM5_IRQHandler>

00003638 <OSC32KCal_IRQHandler>:
    3638:	a001                	j	3638 <OSC32KCal_IRQHandler>

0000363a <OSCWakeUp_IRQHandler>:
    363a:	a001                	j	363a <OSCWakeUp_IRQHandler>

0000363c <UART4_IRQHandler>:
    363c:	a001                	j	363c <UART4_IRQHandler>

0000363e <DMA1_Channel8_IRQHandler>:
    363e:	a001                	j	363e <DMA1_Channel8_IRQHandler>

00003640 <handle_reset>:
    3640:	1fffd197          	auipc	gp,0x1fffd
    3644:	73018193          	addi	gp,gp,1840 # 20000d70 <__global_pointer$>
    3648:	20002117          	auipc	sp,0x20002
    364c:	9b810113          	addi	sp,sp,-1608 # 20005000 <_eusrstack>
    3650:	00000517          	auipc	a0,0x0
    3654:	20850513          	addi	a0,a0,520 # 3858 <_data_lma>
    3658:	1fffd597          	auipc	a1,0x1fffd
    365c:	9a858593          	addi	a1,a1,-1624 # 20000000 <_impure_data>
    3660:	1fffd617          	auipc	a2,0x1fffd
    3664:	f1060613          	addi	a2,a2,-240 # 20000570 <MCU_Version>
    3668:	00c5fa63          	bgeu	a1,a2,367c <handle_reset+0x3c>
    366c:	00052283          	lw	t0,0(a0)
    3670:	0055a023          	sw	t0,0(a1)
    3674:	0511                	addi	a0,a0,4
    3676:	0591                	addi	a1,a1,4
    3678:	fec5eae3          	bltu	a1,a2,366c <handle_reset+0x2c>
    367c:	1fffd517          	auipc	a0,0x1fffd
    3680:	ef450513          	addi	a0,a0,-268 # 20000570 <MCU_Version>
    3684:	1fffd597          	auipc	a1,0x1fffd
    3688:	08858593          	addi	a1,a1,136 # 2000070c <_ebss>
    368c:	00b57763          	bgeu	a0,a1,369a <handle_reset+0x5a>
    3690:	00052023          	sw	zero,0(a0)
    3694:	0511                	addi	a0,a0,4
    3696:	feb56de3          	bltu	a0,a1,3690 <handle_reset+0x50>
    369a:	42fd                	li	t0,31
    369c:	bc029073          	csrw	0xbc0,t0
    36a0:	428d                	li	t0,3
    36a2:	80429073          	csrw	0x804,t0
    36a6:	08800293          	li	t0,136
    36aa:	3002a073          	csrs	mstatus,t0
    36ae:	ffffd297          	auipc	t0,0xffffd
    36b2:	98a28293          	addi	t0,t0,-1654 # 38 <_einit>
    36b6:	0032e293          	ori	t0,t0,3
    36ba:	30529073          	csrw	mtvec,t0
    36be:	babff0ef          	jal	3268 <SystemInit>
    36c2:	fffff297          	auipc	t0,0xfffff
    36c6:	51c28293          	addi	t0,t0,1308 # 2bde <main>
    36ca:	34129073          	csrw	mepc,t0
    36ce:	30200073          	mret

000036d2 <USART_Init>:
    36d2:	7139                	addi	sp,sp,-64
    36d4:	dc22                	sw	s0,56(sp)
    36d6:	da26                	sw	s1,52(sp)
    36d8:	de06                	sw	ra,60(sp)
    36da:	0080                	addi	s0,sp,64
    36dc:	01055703          	lhu	a4,16(a0)
    36e0:	77f5                	lui	a5,0xffffd
    36e2:	17fd                	addi	a5,a5,-1 # ffffcfff <_eusrstack+0xdfff7fff>
    36e4:	8f7d                	and	a4,a4,a5
    36e6:	0065d783          	lhu	a5,6(a1)
    36ea:	84aa                	mv	s1,a0
    36ec:	fcb42623          	sw	a1,-52(s0)
    36f0:	8fd9                	or	a5,a5,a4
    36f2:	00f51823          	sh	a5,16(a0)
    36f6:	00c55703          	lhu	a4,12(a0)
    36fa:	77fd                	lui	a5,0xfffff
    36fc:	9f378793          	addi	a5,a5,-1549 # ffffe9f3 <_eusrstack+0xdfff99f3>
    3700:	8f7d                	and	a4,a4,a5
    3702:	0045d783          	lhu	a5,4(a1)
    3706:	8fd9                	or	a5,a5,a4
    3708:	0085d703          	lhu	a4,8(a1)
    370c:	8fd9                	or	a5,a5,a4
    370e:	00a5d703          	lhu	a4,10(a1)
    3712:	8fd9                	or	a5,a5,a4
    3714:	00f51623          	sh	a5,12(a0)
    3718:	01455703          	lhu	a4,20(a0)
    371c:	00c5d783          	lhu	a5,12(a1)
    3720:	cff77713          	andi	a4,a4,-769
    3724:	8fd9                	or	a5,a5,a4
    3726:	00f51a23          	sh	a5,20(a0)
    372a:	fdc40513          	addi	a0,s0,-36
    372e:	a09ff0ef          	jal	3136 <RCC_GetClocksFreq>
    3732:	400147b7          	lui	a5,0x40014
    3736:	80078793          	addi	a5,a5,-2048 # 40013800 <_eusrstack+0x2000e800>
    373a:	fcc42583          	lw	a1,-52(s0)
    373e:	06f49263          	bne	s1,a5,37a2 <USART_Init+0xd0>
    3742:	fe842783          	lw	a5,-24(s0)
    3746:	00c4d683          	lhu	a3,12(s1)
    374a:	4765                	li	a4,25
    374c:	02e787b3          	mul	a5,a5,a4
    3750:	06c2                	slli	a3,a3,0x10
    3752:	86c1                	srai	a3,a3,0x10
    3754:	4198                	lw	a4,0(a1)
    3756:	0406d963          	bgez	a3,37a8 <USART_Init+0xd6>
    375a:	0706                	slli	a4,a4,0x1
    375c:	06400693          	li	a3,100
    3760:	00c4d603          	lhu	a2,12(s1)
    3764:	02e7d7b3          	divu	a5,a5,a4
    3768:	0642                	slli	a2,a2,0x10
    376a:	8641                	srai	a2,a2,0x10
    376c:	02d7d733          	divu	a4,a5,a3
    3770:	02d7f7b3          	remu	a5,a5,a3
    3774:	0712                	slli	a4,a4,0x4
    3776:	02065b63          	bgez	a2,37ac <USART_Init+0xda>
    377a:	078e                	slli	a5,a5,0x3
    377c:	03278793          	addi	a5,a5,50
    3780:	02d7d7b3          	divu	a5,a5,a3
    3784:	8b9d                	andi	a5,a5,7
    3786:	50f2                	lw	ra,60(sp)
    3788:	5462                	lw	s0,56(sp)
    378a:	8fd9                	or	a5,a5,a4
    378c:	00f49423          	sh	a5,8(s1)
    3790:	54d2                	lw	s1,52(sp)
    3792:	6121                	addi	sp,sp,64
    3794:	4501                	li	a0,0
    3796:	4581                	li	a1,0
    3798:	4601                	li	a2,0
    379a:	4681                	li	a3,0
    379c:	4701                	li	a4,0
    379e:	4781                	li	a5,0
    37a0:	8082                	ret
    37a2:	fe442783          	lw	a5,-28(s0)
    37a6:	b745                	j	3746 <USART_Init+0x74>
    37a8:	070a                	slli	a4,a4,0x2
    37aa:	bf4d                	j	375c <USART_Init+0x8a>
    37ac:	0792                	slli	a5,a5,0x4
    37ae:	03278793          	addi	a5,a5,50
    37b2:	02d7d7b3          	divu	a5,a5,a3
    37b6:	8bbd                	andi	a5,a5,15
    37b8:	b7f9                	j	3786 <USART_Init+0xb4>

000037ba <USART_Cmd>:
    37ba:	1141                	addi	sp,sp,-16
    37bc:	c422                	sw	s0,8(sp)
    37be:	c606                	sw	ra,12(sp)
    37c0:	0800                	addi	s0,sp,16
    37c2:	00c55783          	lhu	a5,12(a0)
    37c6:	cd89                	beqz	a1,37e0 <USART_Cmd+0x26>
    37c8:	6709                	lui	a4,0x2
    37ca:	8fd9                	or	a5,a5,a4
    37cc:	40b2                	lw	ra,12(sp)
    37ce:	4422                	lw	s0,8(sp)
    37d0:	00f51623          	sh	a5,12(a0)
    37d4:	0141                	addi	sp,sp,16
    37d6:	4501                	li	a0,0
    37d8:	4581                	li	a1,0
    37da:	4701                	li	a4,0
    37dc:	4781                	li	a5,0
    37de:	8082                	ret
    37e0:	7779                	lui	a4,0xffffe
    37e2:	177d                	addi	a4,a4,-1 # ffffdfff <_eusrstack+0xdfff8fff>
    37e4:	8ff9                	and	a5,a5,a4
    37e6:	b7dd                	j	37cc <USART_Cmd+0x12>

000037e8 <USART_SendData>:
    37e8:	1141                	addi	sp,sp,-16
    37ea:	c422                	sw	s0,8(sp)
    37ec:	c606                	sw	ra,12(sp)
    37ee:	0800                	addi	s0,sp,16
    37f0:	40b2                	lw	ra,12(sp)
    37f2:	4422                	lw	s0,8(sp)
    37f4:	1ff5f593          	andi	a1,a1,511
    37f8:	00b51223          	sh	a1,4(a0)
    37fc:	0141                	addi	sp,sp,16
    37fe:	4501                	li	a0,0
    3800:	4581                	li	a1,0
    3802:	8082                	ret

00003804 <USART_GetFlagStatus>:
    3804:	1141                	addi	sp,sp,-16
    3806:	c422                	sw	s0,8(sp)
    3808:	c606                	sw	ra,12(sp)
    380a:	0800                	addi	s0,sp,16
    380c:	00055503          	lhu	a0,0(a0)
    3810:	40b2                	lw	ra,12(sp)
    3812:	4422                	lw	s0,8(sp)
    3814:	8d6d                	and	a0,a0,a1
    3816:	00a03533          	snez	a0,a0
    381a:	0141                	addi	sp,sp,16
    381c:	4581                	li	a1,0
    381e:	8082                	ret
    3820:	4949                	li	s2,18
    3822:	6f482043          	.insn	4, 0x6f482043
    3826:	6d207473          	csrrci	s0,0x6d2,0
    382a:	0d65646f          	jal	s0,59900 <_data_lma+0x560a8>
    382e:	0000                	unimp
    3830:	000a                	c.slli	zero,0x2
	...

00003834 <APBAHBPrescTable>:
    3834:	0000 0000 0201 0403 0201 0403 0706 0908     ................

00003844 <AHBPrescTable>:
	...
    384c:	0201 0403 0706 0908                         ........
