
/home/blank/Engineering/MCU/WCH/CH32V30x/Project/Programmator/build/Programmator.elf:     file format elf32-littleriscv


Disassembly of section .init:

00000000 <_sinit>:
   0:	51e0a06f          	j	a51e <handle_reset>
   4:	00000013          	.word	0x00000013
   8:	00000013          	.word	0x00000013
   c:	00000013          	.word	0x00000013
  10:	00000013          	.word	0x00000013
  14:	00000013          	.word	0x00000013
  18:	00000013          	.word	0x00000013
  1c:	00000013          	.word	0x00000013
  20:	00000013          	.word	0x00000013
  24:	00000013          	.word	0x00000013
  28:	00000013          	.word	0x00000013
  2c:	00000013          	.word	0x00000013
  30:	00000013          	.word	0x00000013
  34:	00100073          	.word	0x00100073

Disassembly of section .vector:

00000038 <_vector_base>:
	...
  40:	0000a460          	.word	0x0000a460
  44:	0000a462          	.word	0x0000a462
  48:	00000000          	.word	0x00000000
  4c:	0000a464          	.word	0x0000a464
	...
  58:	0000a466          	.word	0x0000a466
  5c:	0000a468          	.word	0x0000a468
	...
  68:	0000a46a          	.word	0x0000a46a
  6c:	00000000          	.word	0x00000000
  70:	0000a46c          	.word	0x0000a46c
  74:	00000000          	.word	0x00000000
  78:	0000a46e          	.word	0x0000a46e
  7c:	0000a470          	.word	0x0000a470
  80:	0000a472          	.word	0x0000a472
  84:	0000a474          	.word	0x0000a474
  88:	0000a476          	.word	0x0000a476
  8c:	0000a478          	.word	0x0000a478
  90:	0000a47a          	.word	0x0000a47a
  94:	0000a47c          	.word	0x0000a47c
  98:	0000a47e          	.word	0x0000a47e
  9c:	0000a480          	.word	0x0000a480
  a0:	0000a482          	.word	0x0000a482
  a4:	0000a484          	.word	0x0000a484
  a8:	0000a486          	.word	0x0000a486
  ac:	0000a488          	.word	0x0000a488
  b0:	0000a48a          	.word	0x0000a48a
  b4:	0000a48c          	.word	0x0000a48c
  b8:	0000a48e          	.word	0x0000a48e
  bc:	0000a490          	.word	0x0000a490
  c0:	0000a492          	.word	0x0000a492
  c4:	0000a494          	.word	0x0000a494
  c8:	0000a496          	.word	0x0000a496
  cc:	0000a498          	.word	0x0000a498
  d0:	0000a49a          	.word	0x0000a49a
  d4:	0000a49c          	.word	0x0000a49c
  d8:	0000a49e          	.word	0x0000a49e
  dc:	0000a4a0          	.word	0x0000a4a0
  e0:	0000a4a2          	.word	0x0000a4a2
  e4:	0000a4a4          	.word	0x0000a4a4
  e8:	0000a4a6          	.word	0x0000a4a6
  ec:	0000a4a8          	.word	0x0000a4a8
  f0:	0000a4aa          	.word	0x0000a4aa
  f4:	0000a4ac          	.word	0x0000a4ac
  f8:	0000a4ae          	.word	0x0000a4ae
  fc:	0000a4b0          	.word	0x0000a4b0
 100:	0000a4b2          	.word	0x0000a4b2
 104:	0000a4b4          	.word	0x0000a4b4
 108:	0000a4b6          	.word	0x0000a4b6
 10c:	0000a4b8          	.word	0x0000a4b8
 110:	0000a4ba          	.word	0x0000a4ba
 114:	0000a4bc          	.word	0x0000a4bc
 118:	0000a4be          	.word	0x0000a4be
 11c:	0000a4c0          	.word	0x0000a4c0
 120:	0000a4c2          	.word	0x0000a4c2
 124:	0000a4c4          	.word	0x0000a4c4
 128:	0000a4c6          	.word	0x0000a4c6
 12c:	0000a4c8          	.word	0x0000a4c8
 130:	0000a4ca          	.word	0x0000a4ca
 134:	0000a4cc          	.word	0x0000a4cc
 138:	0000a4ce          	.word	0x0000a4ce
 13c:	0000a4d0          	.word	0x0000a4d0
 140:	0000a4d2          	.word	0x0000a4d2
 144:	0000a4d4          	.word	0x0000a4d4
 148:	0000a4d6          	.word	0x0000a4d6
 14c:	0000a4d8          	.word	0x0000a4d8
 150:	0000a4da          	.word	0x0000a4da
 154:	0000a4dc          	.word	0x0000a4dc
 158:	0000a4de          	.word	0x0000a4de
 15c:	0000a4e0          	.word	0x0000a4e0
 160:	0000a4e2          	.word	0x0000a4e2
 164:	0000a4e4          	.word	0x0000a4e4
 168:	0000a4e6          	.word	0x0000a4e6
 16c:	0000a4e8          	.word	0x0000a4e8
 170:	0000a4ea          	.word	0x0000a4ea
 174:	0000a4ec          	.word	0x0000a4ec
 178:	0000a4ee          	.word	0x0000a4ee
 17c:	0000a4f0          	.word	0x0000a4f0
 180:	0000a4f2          	.word	0x0000a4f2
 184:	0000a4f4          	.word	0x0000a4f4
 188:	0000a4f6          	.word	0x0000a4f6
 18c:	0000a4f8          	.word	0x0000a4f8
 190:	0000a4fa          	.word	0x0000a4fa
 194:	0000a4fc          	.word	0x0000a4fc
 198:	0000a4fe          	.word	0x0000a4fe
 19c:	0000a500          	.word	0x0000a500
 1a0:	0000a502          	.word	0x0000a502
 1a4:	0000a504          	.word	0x0000a504
 1a8:	0000a506          	.word	0x0000a506
 1ac:	0000a508          	.word	0x0000a508
 1b0:	0000a50a          	.word	0x0000a50a
 1b4:	0000a50c          	.word	0x0000a50c
 1b8:	0000a50e          	.word	0x0000a50e
 1bc:	0000a510          	.word	0x0000a510
 1c0:	0000a512          	.word	0x0000a512
 1c4:	0000a514          	.word	0x0000a514
 1c8:	0000a516          	.word	0x0000a516
 1cc:	0000a518          	.word	0x0000a518
 1d0:	0000a51a          	.word	0x0000a51a
 1d4:	0000a51c          	.word	0x0000a51c
	...

Disassembly of section .text:

00000200 <atexit>:
     200:	1141                	addi	sp,sp,-16
     202:	c422                	sw	s0,8(sp)
     204:	c606                	sw	ra,12(sp)
     206:	0800                	addi	s0,sp,16
     208:	4422                	lw	s0,8(sp)
     20a:	40b2                	lw	ra,12(sp)
     20c:	85aa                	mv	a1,a0
     20e:	4681                	li	a3,0
     210:	4601                	li	a2,0
     212:	4501                	li	a0,0
     214:	0141                	addi	sp,sp,16
     216:	a48d                	j	478 <__register_exitproc>

00000218 <_printf_r>:
     218:	7139                	addi	sp,sp,-64
     21a:	cc22                	sw	s0,24(sp)
     21c:	ce06                	sw	ra,28(sp)
     21e:	1000                	addi	s0,sp,32
     220:	8e2e                	mv	t3,a1
     222:	450c                	lw	a1,8(a0)
     224:	00840313          	addi	t1,s0,8
     228:	c410                	sw	a2,8(s0)
     22a:	c454                	sw	a3,12(s0)
     22c:	8672                	mv	a2,t3
     22e:	869a                	mv	a3,t1
     230:	c818                	sw	a4,16(s0)
     232:	c85c                	sw	a5,20(s0)
     234:	01042c23          	sw	a6,24(s0)
     238:	01142e23          	sw	a7,28(s0)
     23c:	fe642623          	sw	t1,-20(s0)
     240:	24e5                	jal	528 <_vfprintf_r>
     242:	40f2                	lw	ra,28(sp)
     244:	4462                	lw	s0,24(sp)
     246:	6121                	addi	sp,sp,64
     248:	4301                	li	t1,0
     24a:	4581                	li	a1,0
     24c:	4601                	li	a2,0
     24e:	4681                	li	a3,0
     250:	4701                	li	a4,0
     252:	4781                	li	a5,0
     254:	4801                	li	a6,0
     256:	4881                	li	a7,0
     258:	4e01                	li	t3,0
     25a:	8082                	ret

0000025c <printf>:
     25c:	7139                	addi	sp,sp,-64
     25e:	cc22                	sw	s0,24(sp)
     260:	ce06                	sw	ra,28(sp)
     262:	1000                	addi	s0,sp,32
     264:	20000337          	lui	t1,0x20000
     268:	6c832303          	lw	t1,1736(t1) # 200006c8 <_impure_ptr>
     26c:	c410                	sw	a2,8(s0)
     26e:	c454                	sw	a3,12(s0)
     270:	c04c                	sw	a1,4(s0)
     272:	c818                	sw	a4,16(s0)
     274:	c85c                	sw	a5,20(s0)
     276:	01042c23          	sw	a6,24(s0)
     27a:	01142e23          	sw	a7,28(s0)
     27e:	00832583          	lw	a1,8(t1)
     282:	00440693          	addi	a3,s0,4
     286:	862a                	mv	a2,a0
     288:	851a                	mv	a0,t1
     28a:	fed42623          	sw	a3,-20(s0)
     28e:	2c69                	jal	528 <_vfprintf_r>
     290:	40f2                	lw	ra,28(sp)
     292:	4462                	lw	s0,24(sp)
     294:	6121                	addi	sp,sp,64
     296:	4301                	li	t1,0
     298:	4581                	li	a1,0
     29a:	4601                	li	a2,0
     29c:	4681                	li	a3,0
     29e:	4701                	li	a4,0
     2a0:	4781                	li	a5,0
     2a2:	4801                	li	a6,0
     2a4:	4881                	li	a7,0
     2a6:	8082                	ret

000002a8 <__libc_init_array>:
     2a8:	1101                	addi	sp,sp,-32
     2aa:	cc22                	sw	s0,24(sp)
     2ac:	ca26                	sw	s1,20(sp)
     2ae:	c64e                	sw	s3,12(sp)
     2b0:	ce06                	sw	ra,28(sp)
     2b2:	c84a                	sw	s2,16(sp)
     2b4:	1000                	addi	s0,sp,32
     2b6:	69ad                	lui	s3,0xb
     2b8:	64ad                	lui	s1,0xb
     2ba:	01098993          	addi	s3,s3,16 # b010 <__init_array_start>
     2be:	01048493          	addi	s1,s1,16 # b010 <__init_array_start>
     2c2:	00998d63          	beq	s3,s1,2dc <__libc_init_array+0x34>
     2c6:	409989b3          	sub	s3,s3,s1
     2ca:	4029d993          	srai	s3,s3,0x2
     2ce:	4901                	li	s2,0
     2d0:	409c                	lw	a5,0(s1)
     2d2:	0905                	addi	s2,s2,1
     2d4:	0491                	addi	s1,s1,4
     2d6:	9782                	jalr	a5
     2d8:	ff396ce3          	bltu	s2,s3,2d0 <__libc_init_array+0x28>
     2dc:	69ad                	lui	s3,0xb
     2de:	64ad                	lui	s1,0xb
     2e0:	01498993          	addi	s3,s3,20 # b014 <_data_lma>
     2e4:	01048493          	addi	s1,s1,16 # b010 <__init_array_start>
     2e8:	00998d63          	beq	s3,s1,302 <__libc_init_array+0x5a>
     2ec:	409989b3          	sub	s3,s3,s1
     2f0:	4029d993          	srai	s3,s3,0x2
     2f4:	4901                	li	s2,0
     2f6:	409c                	lw	a5,0(s1)
     2f8:	0905                	addi	s2,s2,1
     2fa:	0491                	addi	s1,s1,4
     2fc:	9782                	jalr	a5
     2fe:	ff396ce3          	bltu	s2,s3,2f6 <__libc_init_array+0x4e>
     302:	40f2                	lw	ra,28(sp)
     304:	4462                	lw	s0,24(sp)
     306:	44d2                	lw	s1,20(sp)
     308:	4942                	lw	s2,16(sp)
     30a:	49b2                	lw	s3,12(sp)
     30c:	6105                	addi	sp,sp,32
     30e:	4781                	li	a5,0
     310:	8082                	ret

00000312 <__libc_fini_array>:
     312:	1141                	addi	sp,sp,-16
     314:	c226                	sw	s1,4(sp)
     316:	67ad                	lui	a5,0xb
     318:	64ad                	lui	s1,0xb
     31a:	01478793          	addi	a5,a5,20 # b014 <_data_lma>
     31e:	01448493          	addi	s1,s1,20 # b014 <_data_lma>
     322:	c422                	sw	s0,8(sp)
     324:	c04a                	sw	s2,0(sp)
     326:	c606                	sw	ra,12(sp)
     328:	0800                	addi	s0,sp,16
     32a:	8f85                	sub	a5,a5,s1
     32c:	4027d913          	srai	s2,a5,0x2
     330:	00090a63          	beqz	s2,344 <__libc_fini_array+0x32>
     334:	14f1                	addi	s1,s1,-4
     336:	94be                	add	s1,s1,a5
     338:	409c                	lw	a5,0(s1)
     33a:	197d                	addi	s2,s2,-1
     33c:	14f1                	addi	s1,s1,-4
     33e:	9782                	jalr	a5
     340:	fe091ce3          	bnez	s2,338 <__libc_fini_array+0x26>
     344:	40b2                	lw	ra,12(sp)
     346:	4422                	lw	s0,8(sp)
     348:	4492                	lw	s1,4(sp)
     34a:	4902                	lw	s2,0(sp)
     34c:	0141                	addi	sp,sp,16
     34e:	4781                	li	a5,0
     350:	8082                	ret

00000352 <memcpy>:
     352:	1141                	addi	sp,sp,-16
     354:	c422                	sw	s0,8(sp)
     356:	c606                	sw	ra,12(sp)
     358:	0800                	addi	s0,sp,16
     35a:	00a5c7b3          	xor	a5,a1,a0
     35e:	8b8d                	andi	a5,a5,3
     360:	00c508b3          	add	a7,a0,a2
     364:	e7bd                	bnez	a5,3d2 <memcpy+0x80>
     366:	00463613          	sltiu	a2,a2,4
     36a:	e625                	bnez	a2,3d2 <memcpy+0x80>
     36c:	00357793          	andi	a5,a0,3
     370:	872a                	mv	a4,a0
     372:	e3e5                	bnez	a5,452 <memcpy+0x100>
     374:	ffc8f613          	andi	a2,a7,-4
     378:	40e606b3          	sub	a3,a2,a4
     37c:	02000793          	li	a5,32
     380:	06d7cd63          	blt	a5,a3,3fa <memcpy+0xa8>
     384:	86ae                	mv	a3,a1
     386:	87ba                	mv	a5,a4
     388:	02c77163          	bgeu	a4,a2,3aa <memcpy+0x58>
     38c:	0006a803          	lw	a6,0(a3)
     390:	0791                	addi	a5,a5,4
     392:	0691                	addi	a3,a3,4
     394:	ff07ae23          	sw	a6,-4(a5)
     398:	fec7eae3          	bltu	a5,a2,38c <memcpy+0x3a>
     39c:	167d                	addi	a2,a2,-1
     39e:	8e19                	sub	a2,a2,a4
     3a0:	9a71                	andi	a2,a2,-4
     3a2:	0591                	addi	a1,a1,4
     3a4:	0711                	addi	a4,a4,4
     3a6:	95b2                	add	a1,a1,a2
     3a8:	9732                	add	a4,a4,a2
     3aa:	03176763          	bltu	a4,a7,3d8 <memcpy+0x86>
     3ae:	40b2                	lw	ra,12(sp)
     3b0:	4422                	lw	s0,8(sp)
     3b2:	0141                	addi	sp,sp,16
     3b4:	4281                	li	t0,0
     3b6:	4301                	li	t1,0
     3b8:	4381                	li	t2,0
     3ba:	4581                	li	a1,0
     3bc:	4601                	li	a2,0
     3be:	4681                	li	a3,0
     3c0:	4701                	li	a4,0
     3c2:	4781                	li	a5,0
     3c4:	4801                	li	a6,0
     3c6:	4881                	li	a7,0
     3c8:	4e01                	li	t3,0
     3ca:	4e81                	li	t4,0
     3cc:	4f01                	li	t5,0
     3ce:	4f81                	li	t6,0
     3d0:	8082                	ret
     3d2:	872a                	mv	a4,a0
     3d4:	fd157de3          	bgeu	a0,a7,3ae <memcpy+0x5c>
     3d8:	0005c783          	lbu	a5,0(a1)
     3dc:	0705                	addi	a4,a4,1
     3de:	0585                	addi	a1,a1,1
     3e0:	fef70fa3          	sb	a5,-1(a4)
     3e4:	fce885e3          	beq	a7,a4,3ae <memcpy+0x5c>
     3e8:	0005c783          	lbu	a5,0(a1)
     3ec:	0705                	addi	a4,a4,1
     3ee:	0585                	addi	a1,a1,1
     3f0:	fef70fa3          	sb	a5,-1(a4)
     3f4:	fee892e3          	bne	a7,a4,3d8 <memcpy+0x86>
     3f8:	bf5d                	j	3ae <memcpy+0x5c>
     3fa:	5194                	lw	a3,32(a1)
     3fc:	0005a383          	lw	t2,0(a1)
     400:	0045a283          	lw	t0,4(a1)
     404:	0085af83          	lw	t6,8(a1)
     408:	00c5af03          	lw	t5,12(a1)
     40c:	0105ae83          	lw	t4,16(a1)
     410:	0145ae03          	lw	t3,20(a1)
     414:	0185a303          	lw	t1,24(a1)
     418:	01c5a803          	lw	a6,28(a1)
     41c:	02470713          	addi	a4,a4,36
     420:	fed72e23          	sw	a3,-4(a4)
     424:	fc772e23          	sw	t2,-36(a4)
     428:	40e606b3          	sub	a3,a2,a4
     42c:	fe572023          	sw	t0,-32(a4)
     430:	fff72223          	sw	t6,-28(a4)
     434:	ffe72423          	sw	t5,-24(a4)
     438:	ffd72623          	sw	t4,-20(a4)
     43c:	ffc72823          	sw	t3,-16(a4)
     440:	fe672a23          	sw	t1,-12(a4)
     444:	ff072c23          	sw	a6,-8(a4)
     448:	02458593          	addi	a1,a1,36
     44c:	fad7c7e3          	blt	a5,a3,3fa <memcpy+0xa8>
     450:	bf15                	j	384 <memcpy+0x32>
     452:	0005c683          	lbu	a3,0(a1)
     456:	0705                	addi	a4,a4,1
     458:	00377793          	andi	a5,a4,3
     45c:	fed70fa3          	sb	a3,-1(a4)
     460:	0585                	addi	a1,a1,1
     462:	db89                	beqz	a5,374 <memcpy+0x22>
     464:	0005c683          	lbu	a3,0(a1)
     468:	0705                	addi	a4,a4,1
     46a:	00377793          	andi	a5,a4,3
     46e:	fed70fa3          	sb	a3,-1(a4)
     472:	0585                	addi	a1,a1,1
     474:	fff9                	bnez	a5,452 <memcpy+0x100>
     476:	bdfd                	j	374 <memcpy+0x22>

00000478 <__register_exitproc>:
     478:	7179                	addi	sp,sp,-48
     47a:	d422                	sw	s0,40(sp)
     47c:	d226                	sw	s1,36(sp)
     47e:	1800                	addi	s0,sp,48
     480:	d04a                	sw	s2,32(sp)
     482:	ce4e                	sw	s3,28(sp)
     484:	cc52                	sw	s4,24(sp)
     486:	d606                	sw	ra,44(sp)
     488:	892a                	mv	s2,a0
     48a:	80c1a503          	lw	a0,-2036(gp) # 200006cc <__atexit_recursive_mutex>
     48e:	fcb42e23          	sw	a1,-36(s0)
     492:	89b2                	mv	s3,a2
     494:	8a36                	mv	s4,a3
     496:	187030ef          	jal	3e1c <__retarget_lock_acquire_recursive>
     49a:	8881a783          	lw	a5,-1912(gp) # 20000748 <__atexit>
     49e:	fdc42583          	lw	a1,-36(s0)
     4a2:	cbb5                	beqz	a5,516 <__register_exitproc+0x9e>
     4a4:	43d8                	lw	a4,4(a5)
     4a6:	46fd                	li	a3,31
     4a8:	80c1a503          	lw	a0,-2036(gp) # 200006cc <__atexit_recursive_mutex>
     4ac:	06e6ca63          	blt	a3,a4,520 <__register_exitproc+0xa8>
     4b0:	00271693          	slli	a3,a4,0x2
     4b4:	02091863          	bnez	s2,4e4 <__register_exitproc+0x6c>
     4b8:	0705                	addi	a4,a4,1
     4ba:	c3d8                	sw	a4,4(a5)
     4bc:	97b6                	add	a5,a5,a3
     4be:	c78c                	sw	a1,8(a5)
     4c0:	1a1030ef          	jal	3e60 <__retarget_lock_release_recursive>
     4c4:	4501                	li	a0,0
     4c6:	50b2                	lw	ra,44(sp)
     4c8:	5422                	lw	s0,40(sp)
     4ca:	5492                	lw	s1,36(sp)
     4cc:	5902                	lw	s2,32(sp)
     4ce:	49f2                	lw	s3,28(sp)
     4d0:	4a62                	lw	s4,24(sp)
     4d2:	6145                	addi	sp,sp,48
     4d4:	4581                	li	a1,0
     4d6:	4601                	li	a2,0
     4d8:	4681                	li	a3,0
     4da:	4701                	li	a4,0
     4dc:	4781                	li	a5,0
     4de:	4801                	li	a6,0
     4e0:	4881                	li	a7,0
     4e2:	8082                	ret
     4e4:	00d788b3          	add	a7,a5,a3
     4e8:	0938a423          	sw	s3,136(a7)
     4ec:	1887a803          	lw	a6,392(a5)
     4f0:	4605                	li	a2,1
     4f2:	00e61633          	sll	a2,a2,a4
     4f6:	00c86833          	or	a6,a6,a2
     4fa:	1907a423          	sw	a6,392(a5)
     4fe:	1148a423          	sw	s4,264(a7)
     502:	4809                	li	a6,2
     504:	fb091ae3          	bne	s2,a6,4b8 <__register_exitproc+0x40>
     508:	18c7a803          	lw	a6,396(a5)
     50c:	00c86633          	or	a2,a6,a2
     510:	18c7a623          	sw	a2,396(a5)
     514:	b755                	j	4b8 <__register_exitproc+0x40>
     516:	cc018793          	addi	a5,gp,-832 # 20000b80 <__atexit0>
     51a:	88f1a423          	sw	a5,-1912(gp) # 20000748 <__atexit>
     51e:	b759                	j	4a4 <__register_exitproc+0x2c>
     520:	141030ef          	jal	3e60 <__retarget_lock_release_recursive>
     524:	557d                	li	a0,-1
     526:	b745                	j	4c6 <__register_exitproc+0x4e>

00000528 <_vfprintf_r>:
     528:	7165                	addi	sp,sp,-400
     52a:	18112623          	sw	ra,396(sp)
     52e:	18812423          	sw	s0,392(sp)
     532:	19212023          	sw	s2,384(sp)
     536:	0b00                	addi	s0,sp,400
     538:	17412c23          	sw	s4,376(sp)
     53c:	17512a23          	sw	s5,372(sp)
     540:	8932                	mv	s2,a2
     542:	ecd42423          	sw	a3,-312(s0)
     546:	8a2e                	mv	s4,a1
     548:	8aaa                	mv	s5,a0
     54a:	6f8030ef          	jal	3c42 <_localeconv_r>
     54e:	411c                	lw	a5,0(a0)
     550:	853e                	mv	a0,a5
     552:	eaf42023          	sw	a5,-352(s0)
     556:	2d3030ef          	jal	4028 <strlen>
     55a:	eaa42223          	sw	a0,-348(s0)
     55e:	000a8763          	beqz	s5,56c <_vfprintf_r+0x44>
     562:	034aa783          	lw	a5,52(s5)
     566:	e399                	bnez	a5,56c <_vfprintf_r+0x44>
     568:	7780106f          	j	1ce0 <__stack_size+0x14e0>
     56c:	064a2703          	lw	a4,100(s4)
     570:	00ca1783          	lh	a5,12(s4)
     574:	00177693          	andi	a3,a4,1
     578:	34068363          	beqz	a3,8be <__stack_size+0xbe>
     57c:	01279693          	slli	a3,a5,0x12
     580:	0006d463          	bgez	a3,588 <_vfprintf_r+0x60>
     584:	0660106f          	j	15ea <__stack_size+0xdea>
     588:	76f9                	lui	a3,0xffffe
     58a:	16fd                	addi	a3,a3,-1 # ffffdfff <_eusrstack+0xdfff5fff>
     58c:	6609                	lui	a2,0x2
     58e:	8f75                	and	a4,a4,a3
     590:	8fd1                	or	a5,a5,a2
     592:	06ea2223          	sw	a4,100(s4)
     596:	00fa1623          	sh	a5,12(s4)
     59a:	01271793          	slli	a5,a4,0x12
     59e:	0007d463          	bgez	a5,5a6 <_vfprintf_r+0x7e>
     5a2:	5d00206f          	j	2b72 <__stack_size+0x2372>
     5a6:	00ca1783          	lh	a5,12(s4)
     5aa:	0087f713          	andi	a4,a5,8
     5ae:	22070463          	beqz	a4,7d6 <_vfprintf_r+0x2ae>
     5b2:	010a2703          	lw	a4,16(s4)
     5b6:	22070063          	beqz	a4,7d6 <_vfprintf_r+0x2ae>
     5ba:	01a7f713          	andi	a4,a5,26
     5be:	46a9                	li	a3,10
     5c0:	22d70963          	beq	a4,a3,7f2 <_vfprintf_r+0x2ca>
     5c4:	67a9                	lui	a5,0xa
     5c6:	17612823          	sw	s6,368(sp)
     5ca:	17712623          	sw	s7,364(sp)
     5ce:	f1c40b13          	addi	s6,s0,-228
     5d2:	6bad                	lui	s7,0xb
     5d4:	75078793          	addi	a5,a5,1872 # a750 <register_fini+0x44>
     5d8:	18912223          	sw	s1,388(sp)
     5dc:	17312e23          	sw	s3,380(sp)
     5e0:	17812423          	sw	s8,360(sp)
     5e4:	17912223          	sw	s9,356(sp)
     5e8:	17a12023          	sw	s10,352(sp)
     5ec:	15b12e23          	sw	s11,348(sp)
     5f0:	f0042c23          	sw	zero,-232(s0)
     5f4:	f0042a23          	sw	zero,-236(s0)
     5f8:	ea042423          	sw	zero,-344(s0)
     5fc:	ea042623          	sw	zero,-340(s0)
     600:	f1642823          	sw	s6,-240(s0)
     604:	eaf42e23          	sw	a5,-324(s0)
     608:	8ccb8b93          	addi	s7,s7,-1844 # a8cc <zeroes.0>
     60c:	ea042a23          	sw	zero,-332(s0)
     610:	e8042223          	sw	zero,-380(s0)
     614:	e8042e23          	sw	zero,-356(s0)
     618:	e6042e23          	sw	zero,-388(s0)
     61c:	e8042023          	sw	zero,-384(s0)
     620:	ec042623          	sw	zero,-308(s0)
     624:	49c1                	li	s3,16
     626:	84da                	mv	s1,s6
     628:	00094783          	lbu	a5,0(s2)
     62c:	8c4a                	mv	s8,s2
     62e:	fdb78713          	addi	a4,a5,-37
     632:	c739                	beqz	a4,680 <_vfprintf_r+0x158>
     634:	c7b1                	beqz	a5,680 <_vfprintf_r+0x158>
     636:	8ce2                	mv	s9,s8
     638:	001c4783          	lbu	a5,1(s8)
     63c:	0c05                	addi	s8,s8,1
     63e:	c781                	beqz	a5,646 <_vfprintf_r+0x11e>
     640:	fdb78713          	addi	a4,a5,-37
     644:	fb6d                	bnez	a4,636 <_vfprintf_r+0x10e>
     646:	412c0d33          	sub	s10,s8,s2
     64a:	032c0b63          	beq	s8,s2,680 <_vfprintf_r+0x158>
     64e:	f1842783          	lw	a5,-232(s0)
     652:	f1442503          	lw	a0,-236(s0)
     656:	0124a023          	sw	s2,0(s1)
     65a:	97ea                	add	a5,a5,s10
     65c:	0505                	addi	a0,a0,1
     65e:	01a4a223          	sw	s10,4(s1)
     662:	f0f42c23          	sw	a5,-232(s0)
     666:	f0a42a23          	sw	a0,-236(s0)
     66a:	479d                	li	a5,7
     66c:	04a1                	addi	s1,s1,8
     66e:	1ca7c163          	blt	a5,a0,830 <__stack_size+0x30>
     672:	ecc42783          	lw	a5,-308(s0)
     676:	97ea                	add	a5,a5,s10
     678:	ecf42623          	sw	a5,-308(s0)
     67c:	001cc783          	lbu	a5,1(s9)
     680:	e399                	bnez	a5,686 <_vfprintf_r+0x15e>
     682:	7040106f          	j	1d86 <__stack_size+0x1586>
     686:	001c4803          	lbu	a6,1(s8)
     68a:	001c0913          	addi	s2,s8,1
     68e:	ee0407a3          	sb	zero,-273(s0)
     692:	5c7d                	li	s8,-1
     694:	4d81                	li	s11,0
     696:	05a00c93          	li	s9,90
     69a:	4d01                	li	s10,0
     69c:	0905                	addi	s2,s2,1
     69e:	fe080793          	addi	a5,a6,-32
     6a2:	02fcee63          	bltu	s9,a5,6de <_vfprintf_r+0x1b6>
     6a6:	ebc42703          	lw	a4,-324(s0)
     6aa:	078a                	slli	a5,a5,0x2
     6ac:	97ba                	add	a5,a5,a4
     6ae:	439c                	lw	a5,0(a5)
     6b0:	8782                	jr	a5
     6b2:	fd080793          	addi	a5,a6,-48
     6b6:	4d01                	li	s10,0
     6b8:	46a5                	li	a3,9
     6ba:	002d1713          	slli	a4,s10,0x2
     6be:	00094803          	lbu	a6,0(s2)
     6c2:	01a708b3          	add	a7,a4,s10
     6c6:	0886                	slli	a7,a7,0x1
     6c8:	01178d33          	add	s10,a5,a7
     6cc:	fd080793          	addi	a5,a6,-48
     6d0:	0905                	addi	s2,s2,1
     6d2:	fef6f4e3          	bgeu	a3,a5,6ba <_vfprintf_r+0x192>
     6d6:	fe080793          	addi	a5,a6,-32
     6da:	fcfcf6e3          	bgeu	s9,a5,6a6 <_vfprintf_r+0x17e>
     6de:	88ea                	mv	a7,s10
     6e0:	00081463          	bnez	a6,6e8 <_vfprintf_r+0x1c0>
     6e4:	6a20106f          	j	1d86 <__stack_size+0x1586>
     6e8:	4f05                	li	t5,1
     6ea:	f5040e23          	sb	a6,-164(s0)
     6ee:	ee0407a3          	sb	zero,-273(s0)
     6f2:	8cfa                	mv	s9,t5
     6f4:	ec042023          	sw	zero,-320(s0)
     6f8:	4c01                	li	s8,0
     6fa:	ea042823          	sw	zero,-336(s0)
     6fe:	ea042c23          	sw	zero,-328(s0)
     702:	4f81                	li	t6,0
     704:	f5c40793          	addi	a5,s0,-164
     708:	f1842603          	lw	a2,-232(s0)
     70c:	084dfd13          	andi	s10,s11,132
     710:	8e32                	mv	t3,a2
     712:	560d0963          	beqz	s10,c84 <__stack_size+0x484>
     716:	eef44703          	lbu	a4,-273(s0)
     71a:	c729                	beqz	a4,764 <_vfprintf_r+0x23c>
     71c:	f1442583          	lw	a1,-236(s0)
     720:	4701                	li	a4,0
     722:	eef40513          	addi	a0,s0,-273
     726:	c088                	sw	a0,0(s1)
     728:	0605                	addi	a2,a2,1 # 2001 <__stack_size+0x1801>
     72a:	4505                	li	a0,1
     72c:	0585                	addi	a1,a1,1
     72e:	c0c8                	sw	a0,4(s1)
     730:	f0c42c23          	sw	a2,-232(s0)
     734:	f0b42a23          	sw	a1,-236(s0)
     738:	451d                	li	a0,7
     73a:	04a1                	addi	s1,s1,8
     73c:	20b54f63          	blt	a0,a1,95a <__stack_size+0x15a>
     740:	c315                	beqz	a4,764 <_vfprintf_r+0x23c>
     742:	f1442583          	lw	a1,-236(s0)
     746:	ef040713          	addi	a4,s0,-272
     74a:	c098                	sw	a4,0(s1)
     74c:	0609                	addi	a2,a2,2
     74e:	4709                	li	a4,2
     750:	0585                	addi	a1,a1,1
     752:	c0d8                	sw	a4,4(s1)
     754:	f0c42c23          	sw	a2,-232(s0)
     758:	f0b42a23          	sw	a1,-236(s0)
     75c:	471d                	li	a4,7
     75e:	04a1                	addi	s1,s1,8
     760:	34b74de3          	blt	a4,a1,12ba <__stack_size+0xaba>
     764:	08000713          	li	a4,128
     768:	22ed05e3          	beq	s10,a4,1192 <__stack_size+0x992>
     76c:	41ec0c33          	sub	s8,s8,t5
     770:	53804663          	bgtz	s8,c9c <__stack_size+0x49c>
     774:	100df713          	andi	a4,s11,256
     778:	60071663          	bnez	a4,d84 <__stack_size+0x584>
     77c:	c09c                	sw	a5,0(s1)
     77e:	f1442783          	lw	a5,-236(s0)
     782:	967a                	add	a2,a2,t5
     784:	f0c42c23          	sw	a2,-232(s0)
     788:	0785                	addi	a5,a5,1
     78a:	01e4a223          	sw	t5,4(s1)
     78e:	471d                	li	a4,7
     790:	f0f42a23          	sw	a5,-236(s0)
     794:	2af74a63          	blt	a4,a5,a48 <__stack_size+0x248>
     798:	04a1                	addi	s1,s1,8
     79a:	004df313          	andi	t1,s11,4
     79e:	00030663          	beqz	t1,7aa <_vfprintf_r+0x282>
     7a2:	41988c33          	sub	s8,a7,s9
     7a6:	2d804163          	bgtz	s8,a68 <__stack_size+0x268>
     7aa:	0198d363          	bge	a7,s9,7b0 <_vfprintf_r+0x288>
     7ae:	88e6                	mv	a7,s9
     7b0:	ecc42783          	lw	a5,-308(s0)
     7b4:	97c6                	add	a5,a5,a7
     7b6:	ecf42623          	sw	a5,-308(s0)
     7ba:	2c0618e3          	bnez	a2,128a <__stack_size+0xa8a>
     7be:	ec042783          	lw	a5,-320(s0)
     7c2:	f0042a23          	sw	zero,-236(s0)
     7c6:	c791                	beqz	a5,7d2 <_vfprintf_r+0x2aa>
     7c8:	ec042583          	lw	a1,-320(s0)
     7cc:	8556                	mv	a0,s5
     7ce:	2c5040ef          	jal	5292 <_free_r>
     7d2:	84da                	mv	s1,s6
     7d4:	bd91                	j	628 <_vfprintf_r+0x100>
     7d6:	85d2                	mv	a1,s4
     7d8:	8556                	mv	a0,s5
     7da:	1e0030ef          	jal	39ba <__swsetup_r>
     7de:	c119                	beqz	a0,7e4 <_vfprintf_r+0x2bc>
     7e0:	3820206f          	j	2b62 <__stack_size+0x2362>
     7e4:	00ca1783          	lh	a5,12(s4)
     7e8:	46a9                	li	a3,10
     7ea:	01a7f713          	andi	a4,a5,26
     7ee:	dcd71be3          	bne	a4,a3,5c4 <_vfprintf_r+0x9c>
     7f2:	00ea1703          	lh	a4,14(s4)
     7f6:	dc0747e3          	bltz	a4,5c4 <_vfprintf_r+0x9c>
     7fa:	064a2703          	lw	a4,100(s4)
     7fe:	8b05                	andi	a4,a4,1
     800:	e711                	bnez	a4,80c <__stack_size+0xc>
     802:	2007f793          	andi	a5,a5,512
     806:	e399                	bnez	a5,80c <__stack_size+0xc>
     808:	0730106f          	j	207a <__stack_size+0x187a>
     80c:	ec842683          	lw	a3,-312(s0)
     810:	18812403          	lw	s0,392(sp)
     814:	18c12083          	lw	ra,396(sp)
     818:	864a                	mv	a2,s2
     81a:	85d2                	mv	a1,s4
     81c:	18012903          	lw	s2,384(sp)
     820:	17812a03          	lw	s4,376(sp)
     824:	8556                	mv	a0,s5
     826:	17412a83          	lw	s5,372(sp)
     82a:	6159                	addi	sp,sp,400
     82c:	44c0206f          	j	2c78 <__sbprintf>
     830:	f1040613          	addi	a2,s0,-240
     834:	85d2                	mv	a1,s4
     836:	8556                	mv	a0,s5
     838:	524020ef          	jal	2d5c <__sprint_r>
     83c:	e919                	bnez	a0,852 <__stack_size+0x52>
     83e:	84da                	mv	s1,s6
     840:	bd0d                	j	672 <_vfprintf_r+0x14a>
     842:	eb842a03          	lw	s4,-328(s0)
     846:	ec042583          	lw	a1,-320(s0)
     84a:	c581                	beqz	a1,852 <__stack_size+0x52>
     84c:	8556                	mv	a0,s5
     84e:	245040ef          	jal	5292 <_free_r>
     852:	064a2703          	lw	a4,100(s4)
     856:	00ca1783          	lh	a5,12(s4)
     85a:	8b05                	andi	a4,a4,1
     85c:	2a070463          	beqz	a4,b04 <__stack_size+0x304>
     860:	0407f793          	andi	a5,a5,64
     864:	18412483          	lw	s1,388(sp)
     868:	17c12983          	lw	s3,380(sp)
     86c:	17012b03          	lw	s6,368(sp)
     870:	16c12b83          	lw	s7,364(sp)
     874:	16812c03          	lw	s8,360(sp)
     878:	16412c83          	lw	s9,356(sp)
     87c:	16012d03          	lw	s10,352(sp)
     880:	15c12d83          	lw	s11,348(sp)
     884:	e3a5                	bnez	a5,8e4 <__stack_size+0xe4>
     886:	ecc42503          	lw	a0,-308(s0)
     88a:	18c12083          	lw	ra,396(sp)
     88e:	18812403          	lw	s0,392(sp)
     892:	18012903          	lw	s2,384(sp)
     896:	17812a03          	lw	s4,376(sp)
     89a:	17412a83          	lw	s5,372(sp)
     89e:	6159                	addi	sp,sp,400
     8a0:	4281                	li	t0,0
     8a2:	4301                	li	t1,0
     8a4:	4381                	li	t2,0
     8a6:	4581                	li	a1,0
     8a8:	4601                	li	a2,0
     8aa:	4681                	li	a3,0
     8ac:	4701                	li	a4,0
     8ae:	4781                	li	a5,0
     8b0:	4801                	li	a6,0
     8b2:	4881                	li	a7,0
     8b4:	4e01                	li	t3,0
     8b6:	4e81                	li	t4,0
     8b8:	4f01                	li	t5,0
     8ba:	4f81                	li	t6,0
     8bc:	8082                	ret
     8be:	2007f693          	andi	a3,a5,512
     8c2:	24068c63          	beqz	a3,b1a <__stack_size+0x31a>
     8c6:	01279693          	slli	a3,a5,0x12
     8ca:	ca06dfe3          	bgez	a3,588 <_vfprintf_r+0x60>
     8ce:	01271693          	slli	a3,a4,0x12
     8d2:	cc06dce3          	bgez	a3,5aa <_vfprintf_r+0x82>
     8d6:	00ca5783          	lhu	a5,12(s4)
     8da:	2007f793          	andi	a5,a5,512
     8de:	e399                	bnez	a5,8e4 <__stack_size+0xe4>
     8e0:	2d80206f          	j	2bb8 <__stack_size+0x23b8>
     8e4:	57fd                	li	a5,-1
     8e6:	ecf42623          	sw	a5,-308(s0)
     8ea:	bf71                	j	886 <__stack_size+0x86>
     8ec:	008df793          	andi	a5,s11,8
     8f0:	88ea                	mv	a7,s10
     8f2:	62079ee3          	bnez	a5,172e <__stack_size+0xf2e>
     8f6:	ec842783          	lw	a5,-312(s0)
     8fa:	079d                	addi	a5,a5,7
     8fc:	9be1                	andi	a5,a5,-8
     8fe:	239c                	fld	fa5,0(a5)
     900:	07a1                	addi	a5,a5,8
     902:	ecf42423          	sw	a5,-312(s0)
     906:	eaf43427          	fsd	fa5,-344(s0)
     90a:	ea843787          	fld	fa5,-344(s0)
     90e:	e20797d3          	fclass.d	a5,fa5
     912:	0817f793          	andi	a5,a5,129
     916:	00f03733          	snez	a4,a5
     91a:	eae42c23          	sw	a4,-328(s0)
     91e:	660785e3          	beqz	a5,1788 <__stack_size+0xf88>
     922:	d20007d3          	fcvt.d.w	fa5,zero
     926:	ea843707          	fld	fa4,-344(s0)
     92a:	f7fdfd93          	andi	s11,s11,-129
     92e:	a2f717d3          	flt.d	a5,fa4,fa5
     932:	c399                	beqz	a5,938 <__stack_size+0x138>
     934:	1ff0106f          	j	2332 <__stack_size+0x1b32>
     938:	04700793          	li	a5,71
     93c:	eef44703          	lbu	a4,-273(s0)
     940:	0107d463          	bge	a5,a6,948 <__stack_size+0x148>
     944:	5c80106f          	j	1f0c <__stack_size+0x170c>
     948:	67ad                	lui	a5,0xb
     94a:	cf078793          	addi	a5,a5,-784 # acf0 <zeroes.0+0x68>
     94e:	c319                	beqz	a4,954 <__stack_size+0x154>
     950:	1f90106f          	j	2348 <__stack_size+0x1b48>
     954:	4f0d                	li	t5,3
     956:	8cfa                	mv	s9,t5
     958:	a639                	j	c66 <__stack_size+0x466>
     95a:	f1040613          	addi	a2,s0,-240
     95e:	85d2                	mv	a1,s4
     960:	8556                	mv	a0,s5
     962:	e7e42c23          	sw	t5,-392(s0)
     966:	e8f42423          	sw	a5,-376(s0)
     96a:	e9042623          	sw	a6,-372(s0)
     96e:	e9f42823          	sw	t6,-368(s0)
     972:	e8e42a23          	sw	a4,-364(s0)
     976:	e9142c23          	sw	a7,-360(s0)
     97a:	3e2020ef          	jal	2d5c <__sprint_r>
     97e:	ec0514e3          	bnez	a0,846 <__stack_size+0x46>
     982:	f1842603          	lw	a2,-232(s0)
     986:	e7842f03          	lw	t5,-392(s0)
     98a:	e8842783          	lw	a5,-376(s0)
     98e:	e8c42803          	lw	a6,-372(s0)
     992:	e9042f83          	lw	t6,-368(s0)
     996:	e9442703          	lw	a4,-364(s0)
     99a:	e9842883          	lw	a7,-360(s0)
     99e:	84da                	mv	s1,s6
     9a0:	b345                	j	740 <_vfprintf_r+0x218>
     9a2:	f1442703          	lw	a4,-236(s0)
     9a6:	eb442683          	lw	a3,-332(s0)
     9aa:	4585                	li	a1,1
     9ac:	962e                	add	a2,a2,a1
     9ae:	972e                	add	a4,a4,a1
     9b0:	00848513          	addi	a0,s1,8
     9b4:	38d5dde3          	bge	a1,a3,154e <__stack_size+0xd4e>
     9b8:	4585                	li	a1,1
     9ba:	c0cc                	sw	a1,4(s1)
     9bc:	c09c                	sw	a5,0(s1)
     9be:	f0c42c23          	sw	a2,-232(s0)
     9c2:	f0e42a23          	sw	a4,-236(s0)
     9c6:	459d                	li	a1,7
     9c8:	00e5d463          	bge	a1,a4,9d0 <__stack_size+0x1d0>
     9cc:	27a0106f          	j	1c46 <__stack_size+0x1446>
     9d0:	ea442683          	lw	a3,-348(s0)
     9d4:	ea042583          	lw	a1,-352(s0)
     9d8:	0705                	addi	a4,a4,1
     9da:	9636                	add	a2,a2,a3
     9dc:	c10c                	sw	a1,0(a0)
     9de:	c154                	sw	a3,4(a0)
     9e0:	f0c42c23          	sw	a2,-232(s0)
     9e4:	f0e42a23          	sw	a4,-236(s0)
     9e8:	459d                	li	a1,7
     9ea:	0521                	addi	a0,a0,8
     9ec:	00e5d463          	bge	a1,a4,9f4 <__stack_size+0x1f4>
     9f0:	2260106f          	j	1c16 <__stack_size+0x1416>
     9f4:	d20007d3          	fcvt.d.w	fa5,zero
     9f8:	ea843707          	fld	fa4,-344(s0)
     9fc:	eb442683          	lw	a3,-332(s0)
     a00:	a2f725d3          	feq.d	a1,fa4,fa5
     a04:	fff68493          	addi	s1,a3,-1
     a08:	380593e3          	bnez	a1,158e <__stack_size+0xd8e>
     a0c:	0705                	addi	a4,a4,1
     a0e:	9626                	add	a2,a2,s1
     a10:	0785                	addi	a5,a5,1
     a12:	f0e42a23          	sw	a4,-236(s0)
     a16:	f0c42c23          	sw	a2,-232(s0)
     a1a:	c11c                	sw	a5,0(a0)
     a1c:	c144                	sw	s1,4(a0)
     a1e:	479d                	li	a5,7
     a20:	34e7c4e3          	blt	a5,a4,1568 <__stack_size+0xd68>
     a24:	0521                	addi	a0,a0,8
     a26:	e8442683          	lw	a3,-380(s0)
     a2a:	f0040793          	addi	a5,s0,-256
     a2e:	0705                	addi	a4,a4,1
     a30:	9636                	add	a2,a2,a3
     a32:	c11c                	sw	a5,0(a0)
     a34:	f0c42c23          	sw	a2,-232(s0)
     a38:	f0e42a23          	sw	a4,-236(s0)
     a3c:	c154                	sw	a3,4(a0)
     a3e:	479d                	li	a5,7
     a40:	00850493          	addi	s1,a0,8
     a44:	d4e7dbe3          	bge	a5,a4,79a <_vfprintf_r+0x272>
     a48:	f1040613          	addi	a2,s0,-240
     a4c:	85d2                	mv	a1,s4
     a4e:	8556                	mv	a0,s5
     a50:	eb142c23          	sw	a7,-328(s0)
     a54:	308020ef          	jal	2d5c <__sprint_r>
     a58:	de0517e3          	bnez	a0,846 <__stack_size+0x46>
     a5c:	f1842603          	lw	a2,-232(s0)
     a60:	eb842883          	lw	a7,-328(s0)
     a64:	84da                	mv	s1,s6
     a66:	bb15                	j	79a <_vfprintf_r+0x272>
     a68:	4d41                	li	s10,16
     a6a:	f1442783          	lw	a5,-236(s0)
     a6e:	6e2d                	lui	t3,0xb
     a70:	018d4463          	blt	s10,s8,a78 <__stack_size+0x278>
     a74:	6170106f          	j	288a <__stack_size+0x208a>
     a78:	8726                	mv	a4,s1
     a7a:	4d9d                	li	s11,7
     a7c:	eb142c23          	sw	a7,-328(s0)
     a80:	8bce0493          	addi	s1,t3,-1860 # a8bc <blanks.1>
     a84:	a021                	j	a8c <__stack_size+0x28c>
     a86:	1c41                	addi	s8,s8,-16
     a88:	038d5e63          	bge	s10,s8,ac4 <__stack_size+0x2c4>
     a8c:	0641                	addi	a2,a2,16
     a8e:	0785                	addi	a5,a5,1
     a90:	c304                	sw	s1,0(a4)
     a92:	01a72223          	sw	s10,4(a4)
     a96:	f0c42c23          	sw	a2,-232(s0)
     a9a:	f0f42a23          	sw	a5,-236(s0)
     a9e:	0721                	addi	a4,a4,8
     aa0:	fefdd3e3          	bge	s11,a5,a86 <__stack_size+0x286>
     aa4:	f1040613          	addi	a2,s0,-240
     aa8:	85d2                	mv	a1,s4
     aaa:	8556                	mv	a0,s5
     aac:	2b0020ef          	jal	2d5c <__sprint_r>
     ab0:	d8051be3          	bnez	a0,846 <__stack_size+0x46>
     ab4:	1c41                	addi	s8,s8,-16
     ab6:	f1842603          	lw	a2,-232(s0)
     aba:	f1442783          	lw	a5,-236(s0)
     abe:	875a                	mv	a4,s6
     ac0:	fd8d46e3          	blt	s10,s8,a8c <__stack_size+0x28c>
     ac4:	eb842883          	lw	a7,-328(s0)
     ac8:	8e26                	mv	t3,s1
     aca:	84ba                	mv	s1,a4
     acc:	9662                	add	a2,a2,s8
     ace:	0785                	addi	a5,a5,1
     ad0:	f0c42c23          	sw	a2,-232(s0)
     ad4:	f0f42a23          	sw	a5,-236(s0)
     ad8:	01c4a023          	sw	t3,0(s1)
     adc:	0184a223          	sw	s8,4(s1)
     ae0:	471d                	li	a4,7
     ae2:	ccf754e3          	bge	a4,a5,7aa <_vfprintf_r+0x282>
     ae6:	f1040613          	addi	a2,s0,-240
     aea:	85d2                	mv	a1,s4
     aec:	8556                	mv	a0,s5
     aee:	eb142c23          	sw	a7,-328(s0)
     af2:	26a020ef          	jal	2d5c <__sprint_r>
     af6:	d40518e3          	bnez	a0,846 <__stack_size+0x46>
     afa:	f1842603          	lw	a2,-232(s0)
     afe:	eb842883          	lw	a7,-328(s0)
     b02:	b165                	j	7aa <_vfprintf_r+0x282>
     b04:	2007f713          	andi	a4,a5,512
     b08:	d4071ce3          	bnez	a4,860 <__stack_size+0x60>
     b0c:	058a2503          	lw	a0,88(s4)
     b10:	350030ef          	jal	3e60 <__retarget_lock_release_recursive>
     b14:	00ca1783          	lh	a5,12(s4)
     b18:	b3a1                	j	860 <__stack_size+0x60>
     b1a:	058a2503          	lw	a0,88(s4)
     b1e:	2fe030ef          	jal	3e1c <__retarget_lock_acquire_recursive>
     b22:	00ca1783          	lh	a5,12(s4)
     b26:	064a2703          	lw	a4,100(s4)
     b2a:	01279693          	slli	a3,a5,0x12
     b2e:	a606c6e3          	bltz	a3,59a <_vfprintf_r+0x72>
     b32:	bc99                	j	588 <_vfprintf_r+0x60>
     b34:	00094803          	lbu	a6,0(s2)
     b38:	b695                	j	69c <_vfprintf_r+0x174>
     b3a:	00094803          	lbu	a6,0(s2)
     b3e:	020ded93          	ori	s11,s11,32
     b42:	bea9                	j	69c <_vfprintf_r+0x174>
     b44:	020df793          	andi	a5,s11,32
     b48:	88ea                	mv	a7,s10
     b4a:	32079063          	bnez	a5,e6a <__stack_size+0x66a>
     b4e:	ec842783          	lw	a5,-312(s0)
     b52:	010df713          	andi	a4,s11,16
     b56:	0791                	addi	a5,a5,4
     b58:	c319                	beqz	a4,b5e <__stack_size+0x35e>
     b5a:	5250106f          	j	287e <__stack_size+0x207e>
     b5e:	ec842683          	lw	a3,-312(s0)
     b62:	040df713          	andi	a4,s11,64
     b66:	0006ac83          	lw	s9,0(a3)
     b6a:	e319                	bnez	a4,b70 <__stack_size+0x370>
     b6c:	2c80106f          	j	1e34 <__stack_size+0x1634>
     b70:	0cc2                	slli	s9,s9,0x10
     b72:	410cdc93          	srai	s9,s9,0x10
     b76:	41fcd693          	srai	a3,s9,0x1f
     b7a:	ecf42423          	sw	a5,-312(s0)
     b7e:	8736                	mv	a4,a3
     b80:	30074363          	bltz	a4,e86 <__stack_size+0x686>
     b84:	320c4063          	bltz	s8,ea4 <__stack_size+0x6a4>
     b88:	f7fdfd93          	andi	s11,s11,-129
     b8c:	300c1c63          	bnez	s8,ea4 <__stack_size+0x6a4>
     b90:	00dce7b3          	or	a5,s9,a3
     b94:	30079863          	bnez	a5,ea4 <__stack_size+0x6a4>
     b98:	eef44e83          	lbu	t4,-273(s0)
     b9c:	000e9463          	bnez	t4,ba4 <__stack_size+0x3a4>
     ba0:	31a0106f          	j	1eba <__stack_size+0x16ba>
     ba4:	4c81                	li	s9,0
     ba6:	4f81                	li	t6,0
     ba8:	ec042023          	sw	zero,-320(s0)
     bac:	4f01                	li	t5,0
     bae:	4c01                	li	s8,0
     bb0:	fc040793          	addi	a5,s0,-64
     bb4:	0c85                	addi	s9,s9,1
     bb6:	000f9463          	bnez	t6,bbe <__stack_size+0x3be>
     bba:	06a0206f          	j	2c24 <__stack_size+0x2424>
     bbe:	f1842603          	lw	a2,-232(s0)
     bc2:	f1442583          	lw	a1,-236(s0)
     bc6:	084dfd13          	andi	s10,s11,132
     bca:	0c89                	addi	s9,s9,2
     bcc:	8e32                	mv	t3,a2
     bce:	852e                	mv	a0,a1
     bd0:	6c0d0763          	beqz	s10,129e <__stack_size+0xa9e>
     bd4:	ea042823          	sw	zero,-336(s0)
     bd8:	ea042c23          	sw	zero,-328(s0)
     bdc:	4f81                	li	t6,0
     bde:	b60e84e3          	beqz	t4,746 <_vfprintf_r+0x21e>
     be2:	4709                	li	a4,2
     be4:	be3d                	j	722 <_vfprintf_r+0x1fa>
     be6:	ec842703          	lw	a4,-312(s0)
     bea:	88ea                	mv	a7,s10
     bec:	4f05                	li	t5,1
     bee:	431c                	lw	a5,0(a4)
     bf0:	ee0407a3          	sb	zero,-273(s0)
     bf4:	f4f40e23          	sb	a5,-164(s0)
     bf8:	00470793          	addi	a5,a4,4
     bfc:	ecf42423          	sw	a5,-312(s0)
     c00:	bccd                	j	6f2 <_vfprintf_r+0x1ca>
     c02:	ec842703          	lw	a4,-312(s0)
     c06:	ee0407a3          	sb	zero,-273(s0)
     c0a:	88ea                	mv	a7,s10
     c0c:	431c                	lw	a5,0(a4)
     c0e:	00470d13          	addi	s10,a4,4
     c12:	720788e3          	beqz	a5,1b42 <__stack_size+0x1342>
     c16:	000c5463          	bgez	s8,c1e <__stack_size+0x41e>
     c1a:	7a50006f          	j	1bbe <__stack_size+0x13be>
     c1e:	853e                	mv	a0,a5
     c20:	8662                	mv	a2,s8
     c22:	4581                	li	a1,0
     c24:	eb042823          	sw	a6,-336(s0)
     c28:	eb142c23          	sw	a7,-328(s0)
     c2c:	ecf42423          	sw	a5,-312(s0)
     c30:	6a3020ef          	jal	3ad2 <memchr>
     c34:	eca42023          	sw	a0,-320(s0)
     c38:	eef44703          	lbu	a4,-273(s0)
     c3c:	ec842783          	lw	a5,-312(s0)
     c40:	eb842883          	lw	a7,-328(s0)
     c44:	eb042803          	lw	a6,-336(s0)
     c48:	e119                	bnez	a0,c4e <__stack_size+0x44e>
     c4a:	37d0106f          	j	27c6 <__stack_size+0x1fc6>
     c4e:	40f50f33          	sub	t5,a0,a5
     c52:	ffff4693          	not	a3,t5
     c56:	86fd                	srai	a3,a3,0x1f
     c58:	00df7cb3          	and	s9,t5,a3
     c5c:	c319                	beqz	a4,c62 <__stack_size+0x462>
     c5e:	7930006f          	j	1bf0 <__stack_size+0x13f0>
     c62:	eda42423          	sw	s10,-312(s0)
     c66:	f1842603          	lw	a2,-232(s0)
     c6a:	ec042023          	sw	zero,-320(s0)
     c6e:	ea042823          	sw	zero,-336(s0)
     c72:	ea042c23          	sw	zero,-328(s0)
     c76:	084dfd13          	andi	s10,s11,132
     c7a:	4c01                	li	s8,0
     c7c:	4f81                	li	t6,0
     c7e:	8e32                	mv	t3,a2
     c80:	a80d1be3          	bnez	s10,716 <_vfprintf_r+0x1ee>
     c84:	41988733          	sub	a4,a7,s9
     c88:	0ae043e3          	bgtz	a4,152e <__stack_size+0xd2e>
     c8c:	eef44703          	lbu	a4,-273(s0)
     c90:	a80716e3          	bnez	a4,71c <_vfprintf_r+0x1f4>
     c94:	41ec0c33          	sub	s8,s8,t5
     c98:	ad805ee3          	blez	s8,774 <_vfprintf_r+0x24c>
     c9c:	6e2d                	lui	t3,0xb
     c9e:	f1442583          	lw	a1,-236(s0)
     ca2:	8cce0e13          	addi	t3,t3,-1844 # a8cc <zeroes.0>
     ca6:	0789de63          	bge	s3,s8,d22 <__stack_size+0x522>
     caa:	e8f42623          	sw	a5,-372(s0)
     cae:	4d1d                	li	s10,7
     cb0:	87a6                	mv	a5,s1
     cb2:	e9142c23          	sw	a7,-360(s0)
     cb6:	84e2                	mv	s1,s8
     cb8:	e9f42a23          	sw	t6,-364(s0)
     cbc:	e9042823          	sw	a6,-368(s0)
     cc0:	e9e42423          	sw	t5,-376(s0)
     cc4:	8c5e                	mv	s8,s7
     cc6:	a021                	j	cce <__stack_size+0x4ce>
     cc8:	14c1                	addi	s1,s1,-16
     cca:	0299df63          	bge	s3,s1,d08 <__stack_size+0x508>
     cce:	0641                	addi	a2,a2,16
     cd0:	0585                	addi	a1,a1,1
     cd2:	0177a023          	sw	s7,0(a5)
     cd6:	0137a223          	sw	s3,4(a5)
     cda:	f0c42c23          	sw	a2,-232(s0)
     cde:	f0b42a23          	sw	a1,-236(s0)
     ce2:	07a1                	addi	a5,a5,8
     ce4:	febd52e3          	bge	s10,a1,cc8 <__stack_size+0x4c8>
     ce8:	f1040613          	addi	a2,s0,-240
     cec:	85d2                	mv	a1,s4
     cee:	8556                	mv	a0,s5
     cf0:	06c020ef          	jal	2d5c <__sprint_r>
     cf4:	b40519e3          	bnez	a0,846 <__stack_size+0x46>
     cf8:	14c1                	addi	s1,s1,-16
     cfa:	f1842603          	lw	a2,-232(s0)
     cfe:	f1442583          	lw	a1,-236(s0)
     d02:	87da                	mv	a5,s6
     d04:	fc99c5e3          	blt	s3,s1,cce <__stack_size+0x4ce>
     d08:	8e62                	mv	t3,s8
     d0a:	e9842883          	lw	a7,-360(s0)
     d0e:	8c26                	mv	s8,s1
     d10:	e9442f83          	lw	t6,-364(s0)
     d14:	84be                	mv	s1,a5
     d16:	e9042803          	lw	a6,-368(s0)
     d1a:	e8842f03          	lw	t5,-376(s0)
     d1e:	e8c42783          	lw	a5,-372(s0)
     d22:	9662                	add	a2,a2,s8
     d24:	0585                	addi	a1,a1,1
     d26:	01c4a023          	sw	t3,0(s1)
     d2a:	0184a223          	sw	s8,4(s1)
     d2e:	f0c42c23          	sw	a2,-232(s0)
     d32:	f0b42a23          	sw	a1,-236(s0)
     d36:	471d                	li	a4,7
     d38:	04a1                	addi	s1,s1,8
     d3a:	a2b75de3          	bge	a4,a1,774 <_vfprintf_r+0x24c>
     d3e:	f1040613          	addi	a2,s0,-240
     d42:	85d2                	mv	a1,s4
     d44:	8556                	mv	a0,s5
     d46:	e9e42423          	sw	t5,-376(s0)
     d4a:	e8f42623          	sw	a5,-372(s0)
     d4e:	e9042823          	sw	a6,-368(s0)
     d52:	e9f42a23          	sw	t6,-364(s0)
     d56:	e9142c23          	sw	a7,-360(s0)
     d5a:	002020ef          	jal	2d5c <__sprint_r>
     d5e:	ae0514e3          	bnez	a0,846 <__stack_size+0x46>
     d62:	100df713          	andi	a4,s11,256
     d66:	f1842603          	lw	a2,-232(s0)
     d6a:	e8842f03          	lw	t5,-376(s0)
     d6e:	e8c42783          	lw	a5,-372(s0)
     d72:	e9042803          	lw	a6,-368(s0)
     d76:	e9442f83          	lw	t6,-364(s0)
     d7a:	e9842883          	lw	a7,-360(s0)
     d7e:	84da                	mv	s1,s6
     d80:	9e070ee3          	beqz	a4,77c <_vfprintf_r+0x254>
     d84:	06500713          	li	a4,101
     d88:	c1075de3          	bge	a4,a6,9a2 <__stack_size+0x1a2>
     d8c:	d20007d3          	fcvt.d.w	fa5,zero
     d90:	ea843707          	fld	fa4,-344(s0)
     d94:	a2f72753          	feq.d	a4,fa4,fa5
     d98:	5a070b63          	beqz	a4,134e <__stack_size+0xb4e>
     d9c:	f1442783          	lw	a5,-236(s0)
     da0:	672d                	lui	a4,0xb
     da2:	d3070713          	addi	a4,a4,-720 # ad30 <zeroes.0+0xa8>
     da6:	c098                	sw	a4,0(s1)
     da8:	0605                	addi	a2,a2,1
     daa:	4705                	li	a4,1
     dac:	0785                	addi	a5,a5,1
     dae:	c0d8                	sw	a4,4(s1)
     db0:	f0c42c23          	sw	a2,-232(s0)
     db4:	f0f42a23          	sw	a5,-236(s0)
     db8:	471d                	li	a4,7
     dba:	04a1                	addi	s1,s1,8
     dbc:	74f749e3          	blt	a4,a5,1d0e <__stack_size+0x150e>
     dc0:	ef442783          	lw	a5,-268(s0)
     dc4:	eb442703          	lw	a4,-332(s0)
     dc8:	02e7d9e3          	bge	a5,a4,15fa <__stack_size+0xdfa>
     dcc:	ea442703          	lw	a4,-348(s0)
     dd0:	f1442783          	lw	a5,-236(s0)
     dd4:	ea042683          	lw	a3,-352(s0)
     dd8:	963a                	add	a2,a2,a4
     dda:	0785                	addi	a5,a5,1
     ddc:	c0d8                	sw	a4,4(s1)
     dde:	c094                	sw	a3,0(s1)
     de0:	f0c42c23          	sw	a2,-232(s0)
     de4:	f0f42a23          	sw	a5,-236(s0)
     de8:	471d                	li	a4,7
     dea:	04a1                	addi	s1,s1,8
     dec:	3ef745e3          	blt	a4,a5,19d6 <__stack_size+0x11d6>
     df0:	eb442783          	lw	a5,-332(s0)
     df4:	fff78c13          	addi	s8,a5,-1
     df8:	9b8051e3          	blez	s8,79a <_vfprintf_r+0x272>
     dfc:	4d41                	li	s10,16
     dfe:	f1442783          	lw	a5,-236(s0)
     e02:	6e2d                	lui	t3,0xb
     e04:	018d4463          	blt	s10,s8,e0c <__stack_size+0x60c>
     e08:	5950106f          	j	2b9c <__stack_size+0x239c>
     e0c:	86a6                	mv	a3,s1
     e0e:	471d                	li	a4,7
     e10:	eb142c23          	sw	a7,-328(s0)
     e14:	8cce0493          	addi	s1,t3,-1844 # a8cc <zeroes.0>
     e18:	a031                	j	e24 <__stack_size+0x624>
     e1a:	1c41                	addi	s8,s8,-16
     e1c:	018d4463          	blt	s10,s8,e24 <__stack_size+0x624>
     e20:	0300106f          	j	1e50 <__stack_size+0x1650>
     e24:	0641                	addi	a2,a2,16
     e26:	0785                	addi	a5,a5,1
     e28:	c284                	sw	s1,0(a3)
     e2a:	01a6a223          	sw	s10,4(a3)
     e2e:	f0c42c23          	sw	a2,-232(s0)
     e32:	f0f42a23          	sw	a5,-236(s0)
     e36:	06a1                	addi	a3,a3,8
     e38:	fef751e3          	bge	a4,a5,e1a <__stack_size+0x61a>
     e3c:	f1040613          	addi	a2,s0,-240
     e40:	85d2                	mv	a1,s4
     e42:	8556                	mv	a0,s5
     e44:	719010ef          	jal	2d5c <__sprint_r>
     e48:	9e051fe3          	bnez	a0,846 <__stack_size+0x46>
     e4c:	f1842603          	lw	a2,-232(s0)
     e50:	f1442783          	lw	a5,-236(s0)
     e54:	86da                	mv	a3,s6
     e56:	471d                	li	a4,7
     e58:	b7c9                	j	e1a <__stack_size+0x61a>
     e5a:	020df793          	andi	a5,s11,32
     e5e:	88ea                	mv	a7,s10
     e60:	010de313          	ori	t1,s11,16
     e64:	0a0784e3          	beqz	a5,170c <__stack_size+0xf0c>
     e68:	8d9a                	mv	s11,t1
     e6a:	ec842783          	lw	a5,-312(s0)
     e6e:	079d                	addi	a5,a5,7
     e70:	9be1                	andi	a5,a5,-8
     e72:	43d8                	lw	a4,4(a5)
     e74:	00878693          	addi	a3,a5,8
     e78:	ecd42423          	sw	a3,-312(s0)
     e7c:	0007ac83          	lw	s9,0(a5)
     e80:	86ba                	mv	a3,a4
     e82:	d00751e3          	bgez	a4,b84 <__stack_size+0x384>
     e86:	019037b3          	snez	a5,s9
     e8a:	40d006b3          	neg	a3,a3
     e8e:	8e9d                	sub	a3,a3,a5
     e90:	02d00793          	li	a5,45
     e94:	eef407a3          	sb	a5,-273(s0)
     e98:	41900cb3          	neg	s9,s9
     e9c:	000c4463          	bltz	s8,ea4 <__stack_size+0x6a4>
     ea0:	f7fdfd93          	andi	s11,s11,-129
     ea4:	3a069ee3          	bnez	a3,1a60 <__stack_size+0x1260>
     ea8:	47a5                	li	a5,9
     eaa:	3b97ebe3          	bltu	a5,s9,1a60 <__stack_size+0x1260>
     eae:	030c8c93          	addi	s9,s9,48
     eb2:	fb940fa3          	sb	s9,-65(s0)
     eb6:	8ce2                	mv	s9,s8
     eb8:	29805fe3          	blez	s8,1956 <__stack_size+0x1156>
     ebc:	eef44e83          	lbu	t4,-273(s0)
     ec0:	4f81                	li	t6,0
     ec2:	4f05                	li	t5,1
     ec4:	fbf40793          	addi	a5,s0,-65
     ec8:	ec042023          	sw	zero,-320(s0)
     ecc:	ce0e85e3          	beqz	t4,bb6 <__stack_size+0x3b6>
     ed0:	0c85                	addi	s9,s9,1
     ed2:	b1d5                	j	bb6 <__stack_size+0x3b6>
     ed4:	ec842783          	lw	a5,-312(s0)
     ed8:	0007ad03          	lw	s10,0(a5)
     edc:	720d5563          	bgez	s10,1606 <__stack_size+0xe06>
     ee0:	ec842783          	lw	a5,-312(s0)
     ee4:	41a00d33          	neg	s10,s10
     ee8:	0791                	addi	a5,a5,4
     eea:	ecf42423          	sw	a5,-312(s0)
     eee:	00094803          	lbu	a6,0(s2)
     ef2:	004ded93          	ori	s11,s11,4
     ef6:	fa6ff06f          	j	69c <_vfprintf_r+0x174>
     efa:	020df793          	andi	a5,s11,32
     efe:	88ea                	mv	a7,s10
     f00:	010de313          	ori	t1,s11,16
     f04:	ef95                	bnez	a5,f40 <__stack_size+0x740>
     f06:	ec842703          	lw	a4,-312(s0)
     f0a:	ee0407a3          	sb	zero,-273(s0)
     f0e:	4681                	li	a3,0
     f10:	00072c83          	lw	s9,0(a4)
     f14:	00470793          	addi	a5,a4,4
     f18:	000c5463          	bgez	s8,f20 <__stack_size+0x720>
     f1c:	4540106f          	j	2370 <__stack_size+0x1b70>
     f20:	ecf42423          	sw	a5,-312(s0)
     f24:	f7f37d93          	andi	s11,t1,-129
     f28:	f80c10e3          	bnez	s8,ea8 <__stack_size+0x6a8>
     f2c:	f60c9ee3          	bnez	s9,ea8 <__stack_size+0x6a8>
     f30:	4f81                	li	t6,0
     f32:	aae1                	j	110a <__stack_size+0x90a>
     f34:	020df793          	andi	a5,s11,32
     f38:	88ea                	mv	a7,s10
     f3a:	1c078ee3          	beqz	a5,1916 <__stack_size+0x1116>
     f3e:	836e                	mv	t1,s11
     f40:	ec842783          	lw	a5,-312(s0)
     f44:	ee0407a3          	sb	zero,-273(s0)
     f48:	079d                	addi	a5,a5,7
     f4a:	9be1                	andi	a5,a5,-8
     f4c:	00878713          	addi	a4,a5,8
     f50:	ece42423          	sw	a4,-312(s0)
     f54:	0007ac83          	lw	s9,0(a5)
     f58:	43d4                	lw	a3,4(a5)
     f5a:	200c47e3          	bltz	s8,1968 <__stack_size+0x1168>
     f5e:	00dce7b3          	or	a5,s9,a3
     f62:	f7f37d93          	andi	s11,t1,-129
     f66:	ff9d                	bnez	a5,ea4 <__stack_size+0x6a4>
     f68:	f20c1ee3          	bnez	s8,ea4 <__stack_size+0x6a4>
     f6c:	4f81                	li	t6,0
     f6e:	aa71                	j	110a <__stack_size+0x90a>
     f70:	02b00793          	li	a5,43
     f74:	00094803          	lbu	a6,0(s2)
     f78:	eef407a3          	sb	a5,-273(s0)
     f7c:	f20ff06f          	j	69c <_vfprintf_r+0x174>
     f80:	00094803          	lbu	a6,0(s2)
     f84:	080ded93          	ori	s11,s11,128
     f88:	f14ff06f          	j	69c <_vfprintf_r+0x174>
     f8c:	00094803          	lbu	a6,0(s2)
     f90:	02a00793          	li	a5,42
     f94:	00190693          	addi	a3,s2,1
     f98:	00f81463          	bne	a6,a5,fa0 <__stack_size+0x7a0>
     f9c:	3e30106f          	j	2b7e <__stack_size+0x237e>
     fa0:	fd080793          	addi	a5,a6,-48
     fa4:	4625                	li	a2,9
     fa6:	4c01                	li	s8,0
     fa8:	02f66063          	bltu	a2,a5,fc8 <__stack_size+0x7c8>
     fac:	002c1713          	slli	a4,s8,0x2
     fb0:	0006c803          	lbu	a6,0(a3)
     fb4:	9c3a                	add	s8,s8,a4
     fb6:	0c06                	slli	s8,s8,0x1
     fb8:	9c3e                	add	s8,s8,a5
     fba:	fd080793          	addi	a5,a6,-48
     fbe:	0685                	addi	a3,a3,1
     fc0:	fef676e3          	bgeu	a2,a5,fac <__stack_size+0x7ac>
     fc4:	1e0c4ee3          	bltz	s8,19c0 <__stack_size+0x11c0>
     fc8:	8936                	mv	s2,a3
     fca:	ed4ff06f          	j	69e <_vfprintf_r+0x176>
     fce:	8556                	mv	a0,s5
     fd0:	473020ef          	jal	3c42 <_localeconv_r>
     fd4:	415c                	lw	a5,4(a0)
     fd6:	853e                	mv	a0,a5
     fd8:	e8f42023          	sw	a5,-384(s0)
     fdc:	04c030ef          	jal	4028 <strlen>
     fe0:	e6a42e23          	sw	a0,-388(s0)
     fe4:	8556                	mv	a0,s5
     fe6:	45d020ef          	jal	3c42 <_localeconv_r>
     fea:	4518                	lw	a4,8(a0)
     fec:	e7c42783          	lw	a5,-388(s0)
     ff0:	00094803          	lbu	a6,0(s2)
     ff4:	e8e42e23          	sw	a4,-356(s0)
     ff8:	ea078263          	beqz	a5,69c <_vfprintf_r+0x174>
     ffc:	ea070063          	beqz	a4,69c <_vfprintf_r+0x174>
    1000:	00074783          	lbu	a5,0(a4)
    1004:	e8078c63          	beqz	a5,69c <_vfprintf_r+0x174>
    1008:	400ded93          	ori	s11,s11,1024
    100c:	e90ff06f          	j	69c <_vfprintf_r+0x174>
    1010:	00094803          	lbu	a6,0(s2)
    1014:	001ded93          	ori	s11,s11,1
    1018:	e84ff06f          	j	69c <_vfprintf_r+0x174>
    101c:	eef44783          	lbu	a5,-273(s0)
    1020:	00094803          	lbu	a6,0(s2)
    1024:	e6079c63          	bnez	a5,69c <_vfprintf_r+0x174>
    1028:	02000793          	li	a5,32
    102c:	eef407a3          	sb	a5,-273(s0)
    1030:	e6cff06f          	j	69c <_vfprintf_r+0x174>
    1034:	020df793          	andi	a5,s11,32
    1038:	88ea                	mv	a7,s10
    103a:	010de693          	ori	a3,s11,16
    103e:	6a078d63          	beqz	a5,16f8 <__stack_size+0xef8>
    1042:	ec842783          	lw	a5,-312(s0)
    1046:	079d                	addi	a5,a5,7
    1048:	9be1                	andi	a5,a5,-8
    104a:	00878713          	addi	a4,a5,8
    104e:	ece42423          	sw	a4,-312(s0)
    1052:	43d0                	lw	a2,4(a5)
    1054:	4398                	lw	a4,0(a5)
    1056:	ee0407a3          	sb	zero,-273(s0)
    105a:	bff6fd93          	andi	s11,a3,-1025
    105e:	280c4f63          	bltz	s8,12fc <__stack_size+0xafc>
    1062:	b7f6fd93          	andi	s11,a3,-1153
    1066:	280c1b63          	bnez	s8,12fc <__stack_size+0xafc>
    106a:	00c767b3          	or	a5,a4,a2
    106e:	28079763          	bnez	a5,12fc <__stack_size+0xafc>
    1072:	0016fc93          	andi	s9,a3,1
    1076:	4a0c8f63          	beqz	s9,1534 <__stack_size+0xd34>
    107a:	03000793          	li	a5,48
    107e:	faf40fa3          	sb	a5,-65(s0)
    1082:	8f66                	mv	t5,s9
    1084:	ec042023          	sw	zero,-320(s0)
    1088:	4c01                	li	s8,0
    108a:	ea042823          	sw	zero,-336(s0)
    108e:	ea042c23          	sw	zero,-328(s0)
    1092:	4f81                	li	t6,0
    1094:	fbf40793          	addi	a5,s0,-65
    1098:	e70ff06f          	j	708 <_vfprintf_r+0x1e0>
    109c:	00094803          	lbu	a6,0(s2)
    10a0:	008ded93          	ori	s11,s11,8
    10a4:	df8ff06f          	j	69c <_vfprintf_r+0x174>
    10a8:	00094803          	lbu	a6,0(s2)
    10ac:	06c00793          	li	a5,108
    10b0:	14f805e3          	beq	a6,a5,19fa <__stack_size+0x11fa>
    10b4:	010ded93          	ori	s11,s11,16
    10b8:	de4ff06f          	j	69c <_vfprintf_r+0x174>
    10bc:	00094803          	lbu	a6,0(s2)
    10c0:	06800793          	li	a5,104
    10c4:	10f802e3          	beq	a6,a5,19c8 <__stack_size+0x11c8>
    10c8:	040ded93          	ori	s11,s11,64
    10cc:	dd0ff06f          	j	69c <_vfprintf_r+0x174>
    10d0:	ec842703          	lw	a4,-312(s0)
    10d4:	67a1                	lui	a5,0x8
    10d6:	83078793          	addi	a5,a5,-2000 # 7830 <_vfiprintf_r+0x140>
    10da:	eef41823          	sh	a5,-272(s0)
    10de:	ee0407a3          	sb	zero,-273(s0)
    10e2:	00470793          	addi	a5,a4,4
    10e6:	88ea                	mv	a7,s10
    10e8:	4318                	lw	a4,0(a4)
    10ea:	4601                	li	a2,0
    10ec:	080c41e3          	bltz	s8,196e <__stack_size+0x116e>
    10f0:	f7fdf313          	andi	t1,s11,-129
    10f4:	00236d93          	ori	s11,t1,2
    10f8:	46071ce3          	bnez	a4,1d70 <__stack_size+0x1570>
    10fc:	460c1ae3          	bnez	s8,1d70 <__stack_size+0x1570>
    1100:	ecf42423          	sw	a5,-312(s0)
    1104:	4f89                	li	t6,2
    1106:	07800813          	li	a6,120
    110a:	eef44e83          	lbu	t4,-273(s0)
    110e:	4c01                	li	s8,0
    1110:	4c81                	li	s9,0
    1112:	4f01                	li	t5,0
    1114:	fc040793          	addi	a5,s0,-64
    1118:	ec042023          	sw	zero,-320(s0)
    111c:	bb45                	j	ecc <__stack_size+0x6cc>
    111e:	020df793          	andi	a5,s11,32
    1122:	88ea                	mv	a7,s10
    1124:	60079363          	bnez	a5,172a <__stack_size+0xf2a>
    1128:	ec842783          	lw	a5,-312(s0)
    112c:	010df713          	andi	a4,s11,16
    1130:	0791                	addi	a5,a5,4
    1132:	c319                	beqz	a4,1138 <__stack_size+0x938>
    1134:	7500106f          	j	2884 <__stack_size+0x2084>
    1138:	ec842703          	lw	a4,-312(s0)
    113c:	040df693          	andi	a3,s11,64
    1140:	4318                	lw	a4,0(a4)
    1142:	560681e3          	beqz	a3,1ea4 <__stack_size+0x16a4>
    1146:	0742                	slli	a4,a4,0x10
    1148:	8341                	srli	a4,a4,0x10
    114a:	ecf42423          	sw	a5,-312(s0)
    114e:	86ee                	mv	a3,s11
    1150:	4601                	li	a2,0
    1152:	b711                	j	1056 <__stack_size+0x856>
    1154:	ec842683          	lw	a3,-312(s0)
    1158:	020df793          	andi	a5,s11,32
    115c:	00468713          	addi	a4,a3,4
    1160:	58079163          	bnez	a5,16e2 <__stack_size+0xee2>
    1164:	010df793          	andi	a5,s11,16
    1168:	3e079ae3          	bnez	a5,1d5c <__stack_size+0x155c>
    116c:	040df793          	andi	a5,s11,64
    1170:	5a0796e3          	bnez	a5,1f1c <__stack_size+0x171c>
    1174:	200df313          	andi	t1,s11,512
    1178:	3e0302e3          	beqz	t1,1d5c <__stack_size+0x155c>
    117c:	ec842783          	lw	a5,-312(s0)
    1180:	ecc42683          	lw	a3,-308(s0)
    1184:	ece42423          	sw	a4,-312(s0)
    1188:	439c                	lw	a5,0(a5)
    118a:	00d78023          	sb	a3,0(a5)
    118e:	c9aff06f          	j	628 <_vfprintf_r+0x100>
    1192:	41988d33          	sub	s10,a7,s9
    1196:	dda05b63          	blez	s10,76c <_vfprintf_r+0x244>
    119a:	4ec1                	li	t4,16
    119c:	f1442583          	lw	a1,-236(s0)
    11a0:	6e2d                	lui	t3,0xb
    11a2:	01aec463          	blt	t4,s10,11aa <__stack_size+0x9aa>
    11a6:	7460106f          	j	28ec <__stack_size+0x20ec>
    11aa:	e8f42623          	sw	a5,-372(s0)
    11ae:	429d                	li	t0,7
    11b0:	87a6                	mv	a5,s1
    11b2:	e9142c23          	sw	a7,-360(s0)
    11b6:	84ea                	mv	s1,s10
    11b8:	e9f42a23          	sw	t6,-364(s0)
    11bc:	8d4a                	mv	s10,s2
    11be:	e9042823          	sw	a6,-368(s0)
    11c2:	e9e42423          	sw	t5,-376(s0)
    11c6:	8cce0913          	addi	s2,t3,-1844 # a8cc <zeroes.0>
    11ca:	a021                	j	11d2 <__stack_size+0x9d2>
    11cc:	14c1                	addi	s1,s1,-16
    11ce:	049ed163          	bge	t4,s1,1210 <__stack_size+0xa10>
    11d2:	0641                	addi	a2,a2,16
    11d4:	0585                	addi	a1,a1,1
    11d6:	0127a023          	sw	s2,0(a5)
    11da:	01d7a223          	sw	t4,4(a5)
    11de:	f0c42c23          	sw	a2,-232(s0)
    11e2:	f0b42a23          	sw	a1,-236(s0)
    11e6:	07a1                	addi	a5,a5,8
    11e8:	feb2d2e3          	bge	t0,a1,11cc <__stack_size+0x9cc>
    11ec:	f1040613          	addi	a2,s0,-240
    11f0:	85d2                	mv	a1,s4
    11f2:	8556                	mv	a0,s5
    11f4:	369010ef          	jal	2d5c <__sprint_r>
    11f8:	e4051763          	bnez	a0,846 <__stack_size+0x46>
    11fc:	4ec1                	li	t4,16
    11fe:	14c1                	addi	s1,s1,-16
    1200:	f1842603          	lw	a2,-232(s0)
    1204:	f1442583          	lw	a1,-236(s0)
    1208:	87da                	mv	a5,s6
    120a:	429d                	li	t0,7
    120c:	fc9ec3e3          	blt	t4,s1,11d2 <__stack_size+0x9d2>
    1210:	8e4a                	mv	t3,s2
    1212:	e9842883          	lw	a7,-360(s0)
    1216:	896a                	mv	s2,s10
    1218:	e9442f83          	lw	t6,-364(s0)
    121c:	8d26                	mv	s10,s1
    121e:	e9042803          	lw	a6,-368(s0)
    1222:	84be                	mv	s1,a5
    1224:	e8842f03          	lw	t5,-376(s0)
    1228:	e8c42783          	lw	a5,-372(s0)
    122c:	966a                	add	a2,a2,s10
    122e:	0585                	addi	a1,a1,1
    1230:	01c4a023          	sw	t3,0(s1)
    1234:	01a4a223          	sw	s10,4(s1)
    1238:	f0c42c23          	sw	a2,-232(s0)
    123c:	f0b42a23          	sw	a1,-236(s0)
    1240:	471d                	li	a4,7
    1242:	04a1                	addi	s1,s1,8
    1244:	d2b75463          	bge	a4,a1,76c <_vfprintf_r+0x244>
    1248:	f1040613          	addi	a2,s0,-240
    124c:	85d2                	mv	a1,s4
    124e:	8556                	mv	a0,s5
    1250:	e9e42423          	sw	t5,-376(s0)
    1254:	e8f42623          	sw	a5,-372(s0)
    1258:	e9042823          	sw	a6,-368(s0)
    125c:	e9f42a23          	sw	t6,-364(s0)
    1260:	e9142c23          	sw	a7,-360(s0)
    1264:	2f9010ef          	jal	2d5c <__sprint_r>
    1268:	dc051f63          	bnez	a0,846 <__stack_size+0x46>
    126c:	f1842603          	lw	a2,-232(s0)
    1270:	e9842883          	lw	a7,-360(s0)
    1274:	e9442f83          	lw	t6,-364(s0)
    1278:	e9042803          	lw	a6,-368(s0)
    127c:	e8c42783          	lw	a5,-372(s0)
    1280:	e8842f03          	lw	t5,-376(s0)
    1284:	84da                	mv	s1,s6
    1286:	ce6ff06f          	j	76c <_vfprintf_r+0x244>
    128a:	f1040613          	addi	a2,s0,-240
    128e:	85d2                	mv	a1,s4
    1290:	8556                	mv	a0,s5
    1292:	2cb010ef          	jal	2d5c <__sprint_r>
    1296:	d2050463          	beqz	a0,7be <_vfprintf_r+0x296>
    129a:	dacff06f          	j	846 <__stack_size+0x46>
    129e:	41988733          	sub	a4,a7,s9
    12a2:	ea042823          	sw	zero,-336(s0)
    12a6:	ea042c23          	sw	zero,-328(s0)
    12aa:	4f81                	li	t6,0
    12ac:	1ce04063          	bgtz	a4,146c <__stack_size+0xc6c>
    12b0:	c80e8b63          	beqz	t4,746 <_vfprintf_r+0x21e>
    12b4:	4709                	li	a4,2
    12b6:	c6cff06f          	j	722 <_vfprintf_r+0x1fa>
    12ba:	f1040613          	addi	a2,s0,-240
    12be:	85d2                	mv	a1,s4
    12c0:	8556                	mv	a0,s5
    12c2:	e9e42423          	sw	t5,-376(s0)
    12c6:	e8f42623          	sw	a5,-372(s0)
    12ca:	e9042823          	sw	a6,-368(s0)
    12ce:	e9f42a23          	sw	t6,-364(s0)
    12d2:	e9142c23          	sw	a7,-360(s0)
    12d6:	287010ef          	jal	2d5c <__sprint_r>
    12da:	d6051663          	bnez	a0,846 <__stack_size+0x46>
    12de:	f1842603          	lw	a2,-232(s0)
    12e2:	e8842f03          	lw	t5,-376(s0)
    12e6:	e8c42783          	lw	a5,-372(s0)
    12ea:	e9042803          	lw	a6,-368(s0)
    12ee:	e9442f83          	lw	t6,-364(s0)
    12f2:	e9842883          	lw	a7,-360(s0)
    12f6:	84da                	mv	s1,s6
    12f8:	c6cff06f          	j	764 <_vfprintf_r+0x23c>
    12fc:	fc040793          	addi	a5,s0,-64
    1300:	01d61593          	slli	a1,a2,0x1d
    1304:	00777693          	andi	a3,a4,7
    1308:	830d                	srli	a4,a4,0x3
    130a:	853e                	mv	a0,a5
    130c:	972e                	add	a4,a4,a1
    130e:	03068693          	addi	a3,a3,48
    1312:	820d                	srli	a2,a2,0x3
    1314:	00c765b3          	or	a1,a4,a2
    1318:	fed78fa3          	sb	a3,-1(a5)
    131c:	17fd                	addi	a5,a5,-1
    131e:	f1ed                	bnez	a1,1300 <__stack_size+0xb00>
    1320:	fd068693          	addi	a3,a3,-48
    1324:	c689                	beqz	a3,132e <__stack_size+0xb2e>
    1326:	001df713          	andi	a4,s11,1
    132a:	38071563          	bnez	a4,16b4 <__stack_size+0xeb4>
    132e:	fc040713          	addi	a4,s0,-64
    1332:	40f70f33          	sub	t5,a4,a5
    1336:	8ce2                	mv	s9,s8
    1338:	37ec4463          	blt	s8,t5,16a0 <__stack_size+0xea0>
    133c:	ec042023          	sw	zero,-320(s0)
    1340:	ea042823          	sw	zero,-336(s0)
    1344:	ea042c23          	sw	zero,-328(s0)
    1348:	4f81                	li	t6,0
    134a:	bbeff06f          	j	708 <_vfprintf_r+0x1e0>
    134e:	ef442c03          	lw	s8,-268(s0)
    1352:	2d805563          	blez	s8,161c <__stack_size+0xe1c>
    1356:	eb442703          	lw	a4,-332(s0)
    135a:	8c7e                	mv	s8,t6
    135c:	01f75363          	bge	a4,t6,1362 <__stack_size+0xb62>
    1360:	8c3a                	mv	s8,a4
    1362:	03805363          	blez	s8,1388 <__stack_size+0xb88>
    1366:	f1442703          	lw	a4,-236(s0)
    136a:	9662                	add	a2,a2,s8
    136c:	c09c                	sw	a5,0(s1)
    136e:	0705                	addi	a4,a4,1
    1370:	0184a223          	sw	s8,4(s1)
    1374:	f0c42c23          	sw	a2,-232(s0)
    1378:	f0e42a23          	sw	a4,-236(s0)
    137c:	459d                	li	a1,7
    137e:	04a1                	addi	s1,s1,8
    1380:	00e5d463          	bge	a1,a4,1388 <__stack_size+0xb88>
    1384:	2ce0106f          	j	2652 <__stack_size+0x1e52>
    1388:	fffc4713          	not	a4,s8
    138c:	877d                	srai	a4,a4,0x1f
    138e:	00ec7c33          	and	s8,s8,a4
    1392:	418f8c33          	sub	s8,t6,s8
    1396:	218040e3          	bgtz	s8,1d96 <__stack_size+0x1596>
    139a:	400df713          	andi	a4,s11,1024
    139e:	01f78d33          	add	s10,a5,t6
    13a2:	c319                	beqz	a4,13a8 <__stack_size+0xba8>
    13a4:	03c0106f          	j	23e0 <__stack_size+0x1be0>
    13a8:	ef442703          	lw	a4,-268(s0)
    13ac:	eb442683          	lw	a3,-332(s0)
    13b0:	7ad74d63          	blt	a4,a3,1b6a <__stack_size+0x136a>
    13b4:	001df593          	andi	a1,s11,1
    13b8:	7a059963          	bnez	a1,1b6a <__stack_size+0x136a>
    13bc:	eb442683          	lw	a3,-332(s0)
    13c0:	97b6                	add	a5,a5,a3
    13c2:	41a78c33          	sub	s8,a5,s10
    13c6:	40e68733          	sub	a4,a3,a4
    13ca:	01875363          	bge	a4,s8,13d0 <__stack_size+0xbd0>
    13ce:	8c3a                	mv	s8,a4
    13d0:	03805463          	blez	s8,13f8 <__stack_size+0xbf8>
    13d4:	f1442783          	lw	a5,-236(s0)
    13d8:	9662                	add	a2,a2,s8
    13da:	01a4a023          	sw	s10,0(s1)
    13de:	0785                	addi	a5,a5,1
    13e0:	0184a223          	sw	s8,4(s1)
    13e4:	f0c42c23          	sw	a2,-232(s0)
    13e8:	f0f42a23          	sw	a5,-236(s0)
    13ec:	459d                	li	a1,7
    13ee:	04a1                	addi	s1,s1,8
    13f0:	00f5d463          	bge	a1,a5,13f8 <__stack_size+0xbf8>
    13f4:	4040106f          	j	27f8 <__stack_size+0x1ff8>
    13f8:	fffc4793          	not	a5,s8
    13fc:	87fd                	srai	a5,a5,0x1f
    13fe:	00fc77b3          	and	a5,s8,a5
    1402:	8f1d                	sub	a4,a4,a5
    1404:	b8e05b63          	blez	a4,79a <_vfprintf_r+0x272>
    1408:	4c41                	li	s8,16
    140a:	f1442783          	lw	a5,-236(s0)
    140e:	6e2d                	lui	t3,0xb
    1410:	00ec4463          	blt	s8,a4,1418 <__stack_size+0xc18>
    1414:	7900106f          	j	2ba4 <__stack_size+0x23a4>
    1418:	86a6                	mv	a3,s1
    141a:	eb242823          	sw	s2,-336(s0)
    141e:	4d1d                	li	s10,7
    1420:	eb142c23          	sw	a7,-328(s0)
    1424:	84ba                	mv	s1,a4
    1426:	8cce0913          	addi	s2,t3,-1844 # a8cc <zeroes.0>
    142a:	a031                	j	1436 <__stack_size+0xc36>
    142c:	14c1                	addi	s1,s1,-16
    142e:	009c4463          	blt	s8,s1,1436 <__stack_size+0xc36>
    1432:	2e60106f          	j	2718 <__stack_size+0x1f18>
    1436:	0641                	addi	a2,a2,16
    1438:	0785                	addi	a5,a5,1
    143a:	0126a023          	sw	s2,0(a3)
    143e:	0186a223          	sw	s8,4(a3)
    1442:	f0c42c23          	sw	a2,-232(s0)
    1446:	f0f42a23          	sw	a5,-236(s0)
    144a:	06a1                	addi	a3,a3,8
    144c:	fefd50e3          	bge	s10,a5,142c <__stack_size+0xc2c>
    1450:	f1040613          	addi	a2,s0,-240
    1454:	85d2                	mv	a1,s4
    1456:	8556                	mv	a0,s5
    1458:	105010ef          	jal	2d5c <__sprint_r>
    145c:	be051563          	bnez	a0,846 <__stack_size+0x46>
    1460:	f1842603          	lw	a2,-232(s0)
    1464:	f1442783          	lw	a5,-236(s0)
    1468:	86da                	mv	a3,s6
    146a:	b7c9                	j	142c <__stack_size+0xc2c>
    146c:	4d09                	li	s10,2
    146e:	4ec1                	li	t4,16
    1470:	8672                	mv	a2,t3
    1472:	85aa                	mv	a1,a0
    1474:	6e2d                	lui	t3,0xb
    1476:	00eec463          	blt	t4,a4,147e <__stack_size+0xc7e>
    147a:	36a0106f          	j	27e4 <__stack_size+0x1fe4>
    147e:	e8f42623          	sw	a5,-372(s0)
    1482:	e7242c23          	sw	s2,-392(s0)
    1486:	87a6                	mv	a5,s1
    1488:	439d                	li	t2,7
    148a:	e9142c23          	sw	a7,-360(s0)
    148e:	e9f42a23          	sw	t6,-364(s0)
    1492:	e9042823          	sw	a6,-368(s0)
    1496:	84ba                	mv	s1,a4
    1498:	e9e42423          	sw	t5,-376(s0)
    149c:	8bce0913          	addi	s2,t3,-1860 # a8bc <blanks.1>
    14a0:	a021                	j	14a8 <__stack_size+0xca8>
    14a2:	14c1                	addi	s1,s1,-16
    14a4:	049ed163          	bge	t4,s1,14e6 <__stack_size+0xce6>
    14a8:	0641                	addi	a2,a2,16
    14aa:	0585                	addi	a1,a1,1
    14ac:	0127a023          	sw	s2,0(a5)
    14b0:	01d7a223          	sw	t4,4(a5)
    14b4:	f0c42c23          	sw	a2,-232(s0)
    14b8:	f0b42a23          	sw	a1,-236(s0)
    14bc:	07a1                	addi	a5,a5,8
    14be:	feb3d2e3          	bge	t2,a1,14a2 <__stack_size+0xca2>
    14c2:	f1040613          	addi	a2,s0,-240
    14c6:	85d2                	mv	a1,s4
    14c8:	8556                	mv	a0,s5
    14ca:	093010ef          	jal	2d5c <__sprint_r>
    14ce:	b6051c63          	bnez	a0,846 <__stack_size+0x46>
    14d2:	4ec1                	li	t4,16
    14d4:	14c1                	addi	s1,s1,-16
    14d6:	f1842603          	lw	a2,-232(s0)
    14da:	f1442583          	lw	a1,-236(s0)
    14de:	87da                	mv	a5,s6
    14e0:	439d                	li	t2,7
    14e2:	fc9ec3e3          	blt	t4,s1,14a8 <__stack_size+0xca8>
    14e6:	8726                	mv	a4,s1
    14e8:	8e4a                	mv	t3,s2
    14ea:	84be                	mv	s1,a5
    14ec:	e9842883          	lw	a7,-360(s0)
    14f0:	e9442f83          	lw	t6,-364(s0)
    14f4:	e9042803          	lw	a6,-368(s0)
    14f8:	e8c42783          	lw	a5,-372(s0)
    14fc:	e8842f03          	lw	t5,-376(s0)
    1500:	e7842903          	lw	s2,-392(s0)
    1504:	963a                	add	a2,a2,a4
    1506:	0585                	addi	a1,a1,1
    1508:	c0d8                	sw	a4,4(s1)
    150a:	f0c42c23          	sw	a2,-232(s0)
    150e:	f0b42a23          	sw	a1,-236(s0)
    1512:	01c4a023          	sw	t3,0(s1)
    1516:	471d                	li	a4,7
    1518:	76b74a63          	blt	a4,a1,1c8c <__stack_size+0x148c>
    151c:	eef44703          	lbu	a4,-273(s0)
    1520:	04a1                	addi	s1,s1,8
    1522:	eb6d                	bnez	a4,1614 <__stack_size+0xe14>
    1524:	a40d0463          	beqz	s10,76c <_vfprintf_r+0x244>
    1528:	4d01                	li	s10,0
    152a:	a1cff06f          	j	746 <_vfprintf_r+0x21e>
    152e:	f1442503          	lw	a0,-236(s0)
    1532:	bf35                	j	146e <__stack_size+0xc6e>
    1534:	4f01                	li	t5,0
    1536:	4c01                	li	s8,0
    1538:	ea042823          	sw	zero,-336(s0)
    153c:	ea042c23          	sw	zero,-328(s0)
    1540:	4f81                	li	t6,0
    1542:	ec042023          	sw	zero,-320(s0)
    1546:	fc040793          	addi	a5,s0,-64
    154a:	9beff06f          	j	708 <_vfprintf_r+0x1e0>
    154e:	00bdf833          	and	a6,s11,a1
    1552:	c6081363          	bnez	a6,9b8 <__stack_size+0x1b8>
    1556:	c09c                	sw	a5,0(s1)
    1558:	c0cc                	sw	a1,4(s1)
    155a:	f0c42c23          	sw	a2,-232(s0)
    155e:	f0e42a23          	sw	a4,-236(s0)
    1562:	479d                	li	a5,7
    1564:	cce7d163          	bge	a5,a4,a26 <__stack_size+0x226>
    1568:	f1040613          	addi	a2,s0,-240
    156c:	85d2                	mv	a1,s4
    156e:	8556                	mv	a0,s5
    1570:	eb142c23          	sw	a7,-328(s0)
    1574:	7e8010ef          	jal	2d5c <__sprint_r>
    1578:	ac051763          	bnez	a0,846 <__stack_size+0x46>
    157c:	f1842603          	lw	a2,-232(s0)
    1580:	f1442703          	lw	a4,-236(s0)
    1584:	eb842883          	lw	a7,-328(s0)
    1588:	855a                	mv	a0,s6
    158a:	c9cff06f          	j	a26 <__stack_size+0x226>
    158e:	c8905c63          	blez	s1,a26 <__stack_size+0x226>
    1592:	4c41                	li	s8,16
    1594:	6e2d                	lui	t3,0xb
    1596:	009c4463          	blt	s8,s1,159e <__stack_size+0xd9e>
    159a:	5820106f          	j	2b1c <__stack_size+0x231c>
    159e:	eb242823          	sw	s2,-336(s0)
    15a2:	4d1d                	li	s10,7
    15a4:	eb142c23          	sw	a7,-328(s0)
    15a8:	8cce0913          	addi	s2,t3,-1844 # a8cc <zeroes.0>
    15ac:	a021                	j	15b4 <__stack_size+0xdb4>
    15ae:	14c1                	addi	s1,s1,-16
    15b0:	049c5de3          	bge	s8,s1,1e0a <__stack_size+0x160a>
    15b4:	0641                	addi	a2,a2,16
    15b6:	0705                	addi	a4,a4,1
    15b8:	01252023          	sw	s2,0(a0)
    15bc:	01852223          	sw	s8,4(a0)
    15c0:	f0c42c23          	sw	a2,-232(s0)
    15c4:	f0e42a23          	sw	a4,-236(s0)
    15c8:	0521                	addi	a0,a0,8
    15ca:	feed52e3          	bge	s10,a4,15ae <__stack_size+0xdae>
    15ce:	f1040613          	addi	a2,s0,-240
    15d2:	85d2                	mv	a1,s4
    15d4:	8556                	mv	a0,s5
    15d6:	786010ef          	jal	2d5c <__sprint_r>
    15da:	a6051663          	bnez	a0,846 <__stack_size+0x46>
    15de:	f1842603          	lw	a2,-232(s0)
    15e2:	f1442703          	lw	a4,-236(s0)
    15e6:	855a                	mv	a0,s6
    15e8:	b7d9                	j	15ae <__stack_size+0xdae>
    15ea:	01271693          	slli	a3,a4,0x12
    15ee:	0006c463          	bltz	a3,15f6 <__stack_size+0xdf6>
    15f2:	fb9fe06f          	j	5aa <_vfprintf_r+0x82>
    15f6:	aeeff06f          	j	8e4 <__stack_size+0xe4>
    15fa:	001df793          	andi	a5,s11,1
    15fe:	98078e63          	beqz	a5,79a <_vfprintf_r+0x272>
    1602:	fcaff06f          	j	dcc <__stack_size+0x5cc>
    1606:	0791                	addi	a5,a5,4
    1608:	00094803          	lbu	a6,0(s2)
    160c:	ecf42423          	sw	a5,-312(s0)
    1610:	88cff06f          	j	69c <_vfprintf_r+0x174>
    1614:	876a                	mv	a4,s10
    1616:	4d01                	li	s10,0
    1618:	90aff06f          	j	722 <_vfprintf_r+0x1fa>
    161c:	f1442703          	lw	a4,-236(s0)
    1620:	65ad                	lui	a1,0xb
    1622:	d3058593          	addi	a1,a1,-720 # ad30 <zeroes.0+0xa8>
    1626:	c08c                	sw	a1,0(s1)
    1628:	0605                	addi	a2,a2,1
    162a:	4585                	li	a1,1
    162c:	0705                	addi	a4,a4,1
    162e:	c0cc                	sw	a1,4(s1)
    1630:	f0c42c23          	sw	a2,-232(s0)
    1634:	f0e42a23          	sw	a4,-236(s0)
    1638:	459d                	li	a1,7
    163a:	04a1                	addi	s1,s1,8
    163c:	00e5d463          	bge	a1,a4,1644 <__stack_size+0xe44>
    1640:	7890006f          	j	25c8 <__stack_size+0x1dc8>
    1644:	eb442703          	lw	a4,-332(s0)
    1648:	01876733          	or	a4,a4,s8
    164c:	e319                	bnez	a4,1652 <__stack_size+0xe52>
    164e:	0360106f          	j	2684 <__stack_size+0x1e84>
    1652:	f1442703          	lw	a4,-236(s0)
    1656:	ea442683          	lw	a3,-348(s0)
    165a:	ea042583          	lw	a1,-352(s0)
    165e:	0705                	addi	a4,a4,1
    1660:	9636                	add	a2,a2,a3
    1662:	c08c                	sw	a1,0(s1)
    1664:	c0d4                	sw	a3,4(s1)
    1666:	f0c42c23          	sw	a2,-232(s0)
    166a:	f0e42a23          	sw	a4,-236(s0)
    166e:	459d                	li	a1,7
    1670:	04a1                	addi	s1,s1,8
    1672:	00e5d463          	bge	a1,a4,167a <__stack_size+0xe7a>
    1676:	03a0106f          	j	26b0 <__stack_size+0x1eb0>
    167a:	41800c33          	neg	s8,s8
    167e:	77804ce3          	bgtz	s8,25f6 <__stack_size+0x1df6>
    1682:	eb442683          	lw	a3,-332(s0)
    1686:	0705                	addi	a4,a4,1
    1688:	c09c                	sw	a5,0(s1)
    168a:	9636                	add	a2,a2,a3
    168c:	f0c42c23          	sw	a2,-232(s0)
    1690:	f0e42a23          	sw	a4,-236(s0)
    1694:	c0d4                	sw	a3,4(s1)
    1696:	479d                	li	a5,7
    1698:	90e7d063          	bge	a5,a4,798 <_vfprintf_r+0x270>
    169c:	bacff06f          	j	a48 <__stack_size+0x248>
    16a0:	8cfa                	mv	s9,t5
    16a2:	ec042023          	sw	zero,-320(s0)
    16a6:	ea042823          	sw	zero,-336(s0)
    16aa:	ea042c23          	sw	zero,-328(s0)
    16ae:	4f81                	li	t6,0
    16b0:	858ff06f          	j	708 <_vfprintf_r+0x1e0>
    16b4:	1579                	addi	a0,a0,-2
    16b6:	03000713          	li	a4,48
    16ba:	fc040693          	addi	a3,s0,-64
    16be:	40a68f33          	sub	t5,a3,a0
    16c2:	fee78fa3          	sb	a4,-1(a5)
    16c6:	8ce2                	mv	s9,s8
    16c8:	01ec5363          	bge	s8,t5,16ce <__stack_size+0xece>
    16cc:	8cfa                	mv	s9,t5
    16ce:	87aa                	mv	a5,a0
    16d0:	ec042023          	sw	zero,-320(s0)
    16d4:	ea042823          	sw	zero,-336(s0)
    16d8:	ea042c23          	sw	zero,-328(s0)
    16dc:	4f81                	li	t6,0
    16de:	82aff06f          	j	708 <_vfprintf_r+0x1e0>
    16e2:	ecc42603          	lw	a2,-308(s0)
    16e6:	429c                	lw	a5,0(a3)
    16e8:	ece42423          	sw	a4,-312(s0)
    16ec:	41f65693          	srai	a3,a2,0x1f
    16f0:	c390                	sw	a2,0(a5)
    16f2:	c3d4                	sw	a3,4(a5)
    16f4:	f35fe06f          	j	628 <_vfprintf_r+0x100>
    16f8:	ec842783          	lw	a5,-312(s0)
    16fc:	0791                	addi	a5,a5,4
    16fe:	ec842703          	lw	a4,-312(s0)
    1702:	4601                	li	a2,0
    1704:	ecf42423          	sw	a5,-312(s0)
    1708:	4318                	lw	a4,0(a4)
    170a:	b2b1                	j	1056 <__stack_size+0x856>
    170c:	ec842783          	lw	a5,-312(s0)
    1710:	0791                	addi	a5,a5,4
    1712:	ec842703          	lw	a4,-312(s0)
    1716:	8d9a                	mv	s11,t1
    1718:	ecf42423          	sw	a5,-312(s0)
    171c:	00072c83          	lw	s9,0(a4)
    1720:	41fcd693          	srai	a3,s9,0x1f
    1724:	8736                	mv	a4,a3
    1726:	c5aff06f          	j	b80 <__stack_size+0x380>
    172a:	86ee                	mv	a3,s11
    172c:	ba19                	j	1042 <__stack_size+0x842>
    172e:	ec842c83          	lw	s9,-312(s0)
    1732:	ed040513          	addi	a0,s0,-304
    1736:	eb042c23          	sw	a6,-328(s0)
    173a:	000ca783          	lw	a5,0(s9)
    173e:	eda42023          	sw	s10,-320(s0)
    1742:	4398                	lw	a4,0(a5)
    1744:	ece42823          	sw	a4,-304(s0)
    1748:	43d8                	lw	a4,4(a5)
    174a:	ece42a23          	sw	a4,-300(s0)
    174e:	4798                	lw	a4,8(a5)
    1750:	ece42c23          	sw	a4,-296(s0)
    1754:	47dc                	lw	a5,12(a5)
    1756:	ecf42e23          	sw	a5,-292(s0)
    175a:	0eb070ef          	jal	9044 <__trunctfdf2>
    175e:	eaa43427          	fsd	fa0,-344(s0)
    1762:	ea843787          	fld	fa5,-344(s0)
    1766:	004c8793          	addi	a5,s9,4
    176a:	ecf42423          	sw	a5,-312(s0)
    176e:	e20797d3          	fclass.d	a5,fa5
    1772:	eb842803          	lw	a6,-328(s0)
    1776:	88ea                	mv	a7,s10
    1778:	0817f793          	andi	a5,a5,129
    177c:	00f03733          	snez	a4,a5
    1780:	eae42c23          	sw	a4,-328(s0)
    1784:	98079f63          	bnez	a5,922 <__stack_size+0x122>
    1788:	ea843787          	fld	fa5,-344(s0)
    178c:	a2f7a7d3          	feq.d	a5,fa5,fa5
    1790:	e399                	bnez	a5,1796 <__stack_size+0xf96>
    1792:	1da0106f          	j	296c <__stack_size+0x216c>
    1796:	fdf87c93          	andi	s9,a6,-33
    179a:	04100793          	li	a5,65
    179e:	72fc9b63          	bne	s9,a5,1ed4 <__stack_size+0x16d4>
    17a2:	03000793          	li	a5,48
    17a6:	eef40823          	sb	a5,-272(s0)
    17aa:	06100713          	li	a4,97
    17ae:	05800793          	li	a5,88
    17b2:	1ee80ee3          	beq	a6,a4,21ae <__stack_size+0x19ae>
    17b6:	eef408a3          	sb	a5,-271(s0)
    17ba:	06300793          	li	a5,99
    17be:	0d87c4e3          	blt	a5,s8,2086 <__stack_size+0x1886>
    17c2:	eac42783          	lw	a5,-340(s0)
    17c6:	0007d463          	bgez	a5,17ce <__stack_size+0xfce>
    17ca:	15c0106f          	j	2926 <__stack_size+0x2126>
    17ce:	ea843507          	fld	fa0,-344(s0)
    17d2:	4e01                	li	t3,0
    17d4:	ec042023          	sw	zero,-320(s0)
    17d8:	f5c40793          	addi	a5,s0,-164
    17dc:	ef440513          	addi	a0,s0,-268
    17e0:	e8f42a23          	sw	a5,-364(s0)
    17e4:	e9042c23          	sw	a6,-360(s0)
    17e8:	ebc42823          	sw	t3,-336(s0)
    17ec:	eb142a23          	sw	a7,-332(s0)
    17f0:	0b1020ef          	jal	40a0 <frexp>
    17f4:	8181b787          	fld	fa5,-2024(gp) # 200006d8 <__malloc_trim_threshold+0x4>
    17f8:	d2000753          	fcvt.d.w	fa4,zero
    17fc:	eb442883          	lw	a7,-332(s0)
    1800:	12f577d3          	fmul.d	fa5,fa0,fa5
    1804:	eb042e03          	lw	t3,-336(s0)
    1808:	e9842803          	lw	a6,-360(s0)
    180c:	e9442783          	lw	a5,-364(s0)
    1810:	002ded13          	ori	s10,s11,2
    1814:	a2e7a753          	feq.d	a4,fa5,fa4
    1818:	c701                	beqz	a4,1820 <__stack_size+0x1020>
    181a:	4705                	li	a4,1
    181c:	eee42a23          	sw	a4,-268(s0)
    1820:	06100713          	li	a4,97
    1824:	00e81463          	bne	a6,a4,182c <__stack_size+0x102c>
    1828:	27c0106f          	j	2aa4 <__stack_size+0x22a4>
    182c:	65ad                	lui	a1,0xb
    182e:	d1458593          	addi	a1,a1,-748 # ad14 <zeroes.0+0x8c>
    1832:	8201b607          	fld	fa2,-2016(gp) # 200006e0 <__malloc_trim_threshold+0xc>
    1836:	d20006d3          	fcvt.d.w	fa3,zero
    183a:	863e                	mv	a2,a5
    183c:	a809                	j	184e <__stack_size+0x104e>
    183e:	a2d7a6d3          	feq.d	a3,fa5,fa3
    1842:	fffc0713          	addi	a4,s8,-1
    1846:	c299                	beqz	a3,184c <__stack_size+0x104c>
    1848:	1f80106f          	j	2a40 <__stack_size+0x2240>
    184c:	8c3a                	mv	s8,a4
    184e:	12c7f7d3          	fmul.d	fa5,fa5,fa2
    1852:	8532                	mv	a0,a2
    1854:	0605                	addi	a2,a2,1
    1856:	c2079753          	fcvt.w.d	a4,fa5,rtz
    185a:	00e586b3          	add	a3,a1,a4
    185e:	0006c683          	lbu	a3,0(a3)
    1862:	d2070753          	fcvt.d.w	fa4,a4
    1866:	fed60fa3          	sb	a3,-1(a2)
    186a:	0ae7f7d3          	fsub.d	fa5,fa5,fa4
    186e:	fc0c18e3          	bnez	s8,183e <__stack_size+0x103e>
    1872:	8281b707          	fld	fa4,-2008(gp) # 200006e8 <__malloc_trim_threshold+0x14>
    1876:	a2f716d3          	flt.d	a3,fa4,fa5
    187a:	e691                	bnez	a3,1886 <__stack_size+0x1086>
    187c:	a2e7a6d3          	feq.d	a3,fa5,fa4
    1880:	c6a1                	beqz	a3,18c8 <__stack_size+0x10c8>
    1882:	8b05                	andi	a4,a4,1
    1884:	c331                	beqz	a4,18c8 <__stack_size+0x10c8>
    1886:	eea42e23          	sw	a0,-260(s0)
    188a:	fff64683          	lbu	a3,-1(a2)
    188e:	00f5c503          	lbu	a0,15(a1)
    1892:	8732                	mv	a4,a2
    1894:	02a69063          	bne	a3,a0,18b4 <__stack_size+0x10b4>
    1898:	03000313          	li	t1,48
    189c:	fe670fa3          	sb	t1,-1(a4)
    18a0:	efc42703          	lw	a4,-260(s0)
    18a4:	fff70693          	addi	a3,a4,-1
    18a8:	eed42e23          	sw	a3,-260(s0)
    18ac:	fff74683          	lbu	a3,-1(a4)
    18b0:	fea686e3          	beq	a3,a0,189c <__stack_size+0x109c>
    18b4:	00168513          	addi	a0,a3,1
    18b8:	03900313          	li	t1,57
    18bc:	0ff57513          	zext.b	a0,a0
    18c0:	266685e3          	beq	a3,t1,232a <__stack_size+0x1b2a>
    18c4:	fea70fa3          	sb	a0,-1(a4)
    18c8:	ef442683          	lw	a3,-268(s0)
    18cc:	00f80713          	addi	a4,a6,15
    18d0:	f0e40023          	sb	a4,-256(s0)
    18d4:	8e1d                	sub	a2,a2,a5
    18d6:	fff68713          	addi	a4,a3,-1
    18da:	eee42a23          	sw	a4,-268(s0)
    18de:	eac42a23          	sw	a2,-332(s0)
    18e2:	00075463          	bgez	a4,18ea <__stack_size+0x10ea>
    18e6:	1c80106f          	j	2aae <__stack_size+0x22ae>
    18ea:	02b00693          	li	a3,43
    18ee:	f0d400a3          	sb	a3,-255(s0)
    18f2:	46a5                	li	a3,9
    18f4:	14e6c9e3          	blt	a3,a4,2246 <__stack_size+0x1a46>
    18f8:	f0240693          	addi	a3,s0,-254
    18fc:	03070713          	addi	a4,a4,48
    1900:	00e68023          	sb	a4,0(a3)
    1904:	fc040713          	addi	a4,s0,-64
    1908:	8e99                	sub	a3,a3,a4
    190a:	0c168713          	addi	a4,a3,193
    190e:	e8e42223          	sw	a4,-380(s0)
    1912:	1a10006f          	j	22b2 <__stack_size+0x1ab2>
    1916:	010df793          	andi	a5,s11,16
    191a:	c399                	beqz	a5,1920 <__stack_size+0x1120>
    191c:	7770006f          	j	2892 <__stack_size+0x2092>
    1920:	ec842703          	lw	a4,-312(s0)
    1924:	040df793          	andi	a5,s11,64
    1928:	00072c83          	lw	s9,0(a4)
    192c:	0711                	addi	a4,a4,4
    192e:	ece42423          	sw	a4,-312(s0)
    1932:	54078463          	beqz	a5,1e7a <__stack_size+0x167a>
    1936:	0cc2                	slli	s9,s9,0x10
    1938:	ee0407a3          	sb	zero,-273(s0)
    193c:	010cdc93          	srli	s9,s9,0x10
    1940:	4681                	li	a3,0
    1942:	d60c4163          	bltz	s8,ea4 <__stack_size+0x6a4>
    1946:	019c6fb3          	or	t6,s8,s9
    194a:	f7fdfd93          	andi	s11,s11,-129
    194e:	d40f9b63          	bnez	t6,ea4 <__stack_size+0x6a4>
    1952:	fb8ff06f          	j	110a <__stack_size+0x90a>
    1956:	eef44e83          	lbu	t4,-273(s0)
    195a:	4c85                	li	s9,1
    195c:	4f81                	li	t6,0
    195e:	4f05                	li	t5,1
    1960:	fbf40793          	addi	a5,s0,-65
    1964:	d64ff06f          	j	ec8 <__stack_size+0x6c8>
    1968:	8d9a                	mv	s11,t1
    196a:	d3aff06f          	j	ea4 <__stack_size+0x6a4>
    196e:	65ad                	lui	a1,0xb
    1970:	002ded93          	ori	s11,s11,2
    1974:	ecf42423          	sw	a5,-312(s0)
    1978:	d0058593          	addi	a1,a1,-768 # ad00 <zeroes.0+0x78>
    197c:	4f89                	li	t6,2
    197e:	4e81                	li	t4,0
    1980:	07800813          	li	a6,120
    1984:	fc040793          	addi	a5,s0,-64
    1988:	00f77693          	andi	a3,a4,15
    198c:	96ae                	add	a3,a3,a1
    198e:	0006c683          	lbu	a3,0(a3)
    1992:	8311                	srli	a4,a4,0x4
    1994:	17fd                	addi	a5,a5,-1
    1996:	00d78023          	sb	a3,0(a5)
    199a:	01c61693          	slli	a3,a2,0x1c
    199e:	9736                	add	a4,a4,a3
    19a0:	8211                	srli	a2,a2,0x4
    19a2:	00c766b3          	or	a3,a4,a2
    19a6:	f2ed                	bnez	a3,1988 <__stack_size+0x1188>
    19a8:	fc040713          	addi	a4,s0,-64
    19ac:	40f70f33          	sub	t5,a4,a5
    19b0:	8ce2                	mv	s9,s8
    19b2:	d1ec5b63          	bge	s8,t5,ec8 <__stack_size+0x6c8>
    19b6:	8cfa                	mv	s9,t5
    19b8:	ec042023          	sw	zero,-320(s0)
    19bc:	d10ff06f          	j	ecc <__stack_size+0x6cc>
    19c0:	5c7d                	li	s8,-1
    19c2:	8936                	mv	s2,a3
    19c4:	cdbfe06f          	j	69e <_vfprintf_r+0x176>
    19c8:	00194803          	lbu	a6,1(s2)
    19cc:	200ded93          	ori	s11,s11,512
    19d0:	0905                	addi	s2,s2,1
    19d2:	ccbfe06f          	j	69c <_vfprintf_r+0x174>
    19d6:	f1040613          	addi	a2,s0,-240
    19da:	85d2                	mv	a1,s4
    19dc:	8556                	mv	a0,s5
    19de:	eb142c23          	sw	a7,-328(s0)
    19e2:	37a010ef          	jal	2d5c <__sprint_r>
    19e6:	c119                	beqz	a0,19ec <__stack_size+0x11ec>
    19e8:	e5ffe06f          	j	846 <__stack_size+0x46>
    19ec:	f1842603          	lw	a2,-232(s0)
    19f0:	eb842883          	lw	a7,-328(s0)
    19f4:	84da                	mv	s1,s6
    19f6:	bfaff06f          	j	df0 <__stack_size+0x5f0>
    19fa:	00194803          	lbu	a6,1(s2)
    19fe:	020ded93          	ori	s11,s11,32
    1a02:	0905                	addi	s2,s2,1
    1a04:	c99fe06f          	j	69c <_vfprintf_r+0x174>
    1a08:	65ad                	lui	a1,0xb
    1a0a:	88ea                	mv	a7,s10
    1a0c:	d1458593          	addi	a1,a1,-748 # ad14 <zeroes.0+0x8c>
    1a10:	020df793          	andi	a5,s11,32
    1a14:	1e078163          	beqz	a5,1bf6 <__stack_size+0x13f6>
    1a18:	ec842783          	lw	a5,-312(s0)
    1a1c:	079d                	addi	a5,a5,7
    1a1e:	9be1                	andi	a5,a5,-8
    1a20:	00878713          	addi	a4,a5,8
    1a24:	ece42423          	sw	a4,-312(s0)
    1a28:	43d0                	lw	a2,4(a5)
    1a2a:	4398                	lw	a4,0(a5)
    1a2c:	001df793          	andi	a5,s11,1
    1a30:	00c766b3          	or	a3,a4,a2
    1a34:	c399                	beqz	a5,1a3a <__stack_size+0x123a>
    1a36:	2a069a63          	bnez	a3,1cea <__stack_size+0x14ea>
    1a3a:	ee0407a3          	sb	zero,-273(s0)
    1a3e:	240c4263          	bltz	s8,1c82 <__stack_size+0x1482>
    1a42:	b7fdfd93          	andi	s11,s11,-1153
    1a46:	4f81                	li	t6,0
    1a48:	000c1463          	bnez	s8,1a50 <__stack_size+0x1250>
    1a4c:	ea068f63          	beqz	a3,110a <__stack_size+0x90a>
    1a50:	eef44e83          	lbu	t4,-273(s0)
    1a54:	bf05                	j	1984 <__stack_size+0x1184>
    1a56:	65ad                	lui	a1,0xb
    1a58:	88ea                	mv	a7,s10
    1a5a:	d0058593          	addi	a1,a1,-768 # ad00 <zeroes.0+0x78>
    1a5e:	bf4d                	j	1a10 <__stack_size+0x1210>
    1a60:	ccccdd37          	lui	s10,0xccccd
    1a64:	ccccd337          	lui	t1,0xccccd
    1a68:	ccdd0d13          	addi	s10,s10,-819 # cccccccd <_eusrstack+0xaccc4ccd>
    1a6c:	ccc30313          	addi	t1,t1,-820 # cccccccc <_eusrstack+0xaccc4ccc>
    1a70:	400dfe13          	andi	t3,s11,1024
    1a74:	4501                	li	a0,0
    1a76:	fc040613          	addi	a2,s0,-64
    1a7a:	a09d                	j	1ae0 <__stack_size+0x12e0>
    1a7c:	e9c42703          	lw	a4,-356(s0)
    1a80:	00074703          	lbu	a4,0(a4)
    1a84:	f0170613          	addi	a2,a4,-255
    1a88:	c219                	beqz	a2,1a8e <__stack_size+0x128e>
    1a8a:	2aa70463          	beq	a4,a0,1d32 <__stack_size+0x1532>
    1a8e:	8ee6                	mv	t4,s9
    1a90:	85b6                	mv	a1,a3
    1a92:	863e                	mv	a2,a5
    1a94:	00dc8733          	add	a4,s9,a3
    1a98:	01973f33          	sltu	t5,a4,s9
    1a9c:	977a                	add	a4,a4,t5
    1a9e:	03a73f33          	mulhu	t5,a4,s10
    1aa2:	002f5f93          	srli	t6,t5,0x2
    1aa6:	ffcf7f13          	andi	t5,t5,-4
    1aaa:	9f7e                	add	t5,t5,t6
    1aac:	41e70733          	sub	a4,a4,t5
    1ab0:	40ec8733          	sub	a4,s9,a4
    1ab4:	00ecbcb3          	sltu	s9,s9,a4
    1ab8:	419686b3          	sub	a3,a3,s9
    1abc:	02670fb3          	mul	t6,a4,t1
    1ac0:	03a686b3          	mul	a3,a3,s10
    1ac4:	03a73f33          	mulhu	t5,a4,s10
    1ac8:	96fe                	add	a3,a3,t6
    1aca:	03a70733          	mul	a4,a4,s10
    1ace:	96fa                	add	a3,a3,t5
    1ad0:	01f69f13          	slli	t5,a3,0x1f
    1ad4:	8285                	srli	a3,a3,0x1
    1ad6:	8305                	srli	a4,a4,0x1
    1ad8:	00ef0cb3          	add	s9,t5,a4
    1adc:	4e0580e3          	beqz	a1,27bc <__stack_size+0x1fbc>
    1ae0:	00dc8733          	add	a4,s9,a3
    1ae4:	019735b3          	sltu	a1,a4,s9
    1ae8:	95ba                	add	a1,a1,a4
    1aea:	03a5beb3          	mulhu	t4,a1,s10
    1aee:	0505                	addi	a0,a0,1
    1af0:	fff60793          	addi	a5,a2,-1
    1af4:	002edf13          	srli	t5,t4,0x2
    1af8:	ffcefe93          	andi	t4,t4,-4
    1afc:	9efa                	add	t4,t4,t5
    1afe:	41d585b3          	sub	a1,a1,t4
    1b02:	40bc85b3          	sub	a1,s9,a1
    1b06:	00bcbeb3          	sltu	t4,s9,a1
    1b0a:	41d68eb3          	sub	t4,a3,t4
    1b0e:	03a5bf33          	mulhu	t5,a1,s10
    1b12:	03ae8eb3          	mul	t4,t4,s10
    1b16:	03a585b3          	mul	a1,a1,s10
    1b1a:	9efa                	add	t4,t4,t5
    1b1c:	0efe                	slli	t4,t4,0x1f
    1b1e:	8185                	srli	a1,a1,0x1
    1b20:	95f6                	add	a1,a1,t4
    1b22:	00259e93          	slli	t4,a1,0x2
    1b26:	95f6                	add	a1,a1,t4
    1b28:	0586                	slli	a1,a1,0x1
    1b2a:	40bc85b3          	sub	a1,s9,a1
    1b2e:	03058593          	addi	a1,a1,48
    1b32:	feb60fa3          	sb	a1,-1(a2)
    1b36:	f40e13e3          	bnez	t3,1a7c <__stack_size+0x127c>
    1b3a:	8ee6                	mv	t4,s9
    1b3c:	85b6                	mv	a1,a3
    1b3e:	863e                	mv	a2,a5
    1b40:	bfa1                	j	1a98 <__stack_size+0x1298>
    1b42:	4799                	li	a5,6
    1b44:	8ce2                	mv	s9,s8
    1b46:	3d87e163          	bltu	a5,s8,1f08 <__stack_size+0x1708>
    1b4a:	67ad                	lui	a5,0xb
    1b4c:	eda42423          	sw	s10,-312(s0)
    1b50:	d2878793          	addi	a5,a5,-728 # ad28 <zeroes.0+0xa0>
    1b54:	ec042023          	sw	zero,-320(s0)
    1b58:	8f66                	mv	t5,s9
    1b5a:	4c01                	li	s8,0
    1b5c:	ea042823          	sw	zero,-336(s0)
    1b60:	ea042c23          	sw	zero,-328(s0)
    1b64:	4f81                	li	t6,0
    1b66:	ba3fe06f          	j	708 <_vfprintf_r+0x1e0>
    1b6a:	f1442583          	lw	a1,-236(s0)
    1b6e:	ea442683          	lw	a3,-348(s0)
    1b72:	ea042503          	lw	a0,-352(s0)
    1b76:	0585                	addi	a1,a1,1
    1b78:	9636                	add	a2,a2,a3
    1b7a:	c088                	sw	a0,0(s1)
    1b7c:	c0d4                	sw	a3,4(s1)
    1b7e:	f0c42c23          	sw	a2,-232(s0)
    1b82:	f0b42a23          	sw	a1,-236(s0)
    1b86:	451d                	li	a0,7
    1b88:	04a1                	addi	s1,s1,8
    1b8a:	82b559e3          	bge	a0,a1,13bc <__stack_size+0xbbc>
    1b8e:	f1040613          	addi	a2,s0,-240
    1b92:	85d2                	mv	a1,s4
    1b94:	8556                	mv	a0,s5
    1b96:	eaf42823          	sw	a5,-336(s0)
    1b9a:	eb142c23          	sw	a7,-328(s0)
    1b9e:	1be010ef          	jal	2d5c <__sprint_r>
    1ba2:	c119                	beqz	a0,1ba8 <__stack_size+0x13a8>
    1ba4:	ca3fe06f          	j	846 <__stack_size+0x46>
    1ba8:	ef442703          	lw	a4,-268(s0)
    1bac:	f1842603          	lw	a2,-232(s0)
    1bb0:	eb042783          	lw	a5,-336(s0)
    1bb4:	eb842883          	lw	a7,-328(s0)
    1bb8:	84da                	mv	s1,s6
    1bba:	803ff06f          	j	13bc <__stack_size+0xbbc>
    1bbe:	853e                	mv	a0,a5
    1bc0:	eb042c23          	sw	a6,-328(s0)
    1bc4:	ed142423          	sw	a7,-312(s0)
    1bc8:	ecf42023          	sw	a5,-320(s0)
    1bcc:	45c020ef          	jal	4028 <strlen>
    1bd0:	eef44703          	lbu	a4,-273(s0)
    1bd4:	fff54693          	not	a3,a0
    1bd8:	86fd                	srai	a3,a3,0x1f
    1bda:	ec042783          	lw	a5,-320(s0)
    1bde:	ec842883          	lw	a7,-312(s0)
    1be2:	eb842803          	lw	a6,-328(s0)
    1be6:	8f2a                	mv	t5,a0
    1be8:	00d57cb3          	and	s9,a0,a3
    1bec:	86070b63          	beqz	a4,c62 <__stack_size+0x462>
    1bf0:	0c85                	addi	s9,s9,1
    1bf2:	870ff06f          	j	c62 <__stack_size+0x462>
    1bf6:	ec842683          	lw	a3,-312(s0)
    1bfa:	010df793          	andi	a5,s11,16
    1bfe:	4298                	lw	a4,0(a3)
    1c00:	0691                	addi	a3,a3,4
    1c02:	ecd42423          	sw	a3,-312(s0)
    1c06:	efa5                	bnez	a5,1c7e <__stack_size+0x147e>
    1c08:	040df793          	andi	a5,s11,64
    1c0c:	c7ad                	beqz	a5,1c76 <__stack_size+0x1476>
    1c0e:	0742                	slli	a4,a4,0x10
    1c10:	8341                	srli	a4,a4,0x10
    1c12:	4601                	li	a2,0
    1c14:	bd21                	j	1a2c <__stack_size+0x122c>
    1c16:	f1040613          	addi	a2,s0,-240
    1c1a:	85d2                	mv	a1,s4
    1c1c:	8556                	mv	a0,s5
    1c1e:	eaf42823          	sw	a5,-336(s0)
    1c22:	eb142c23          	sw	a7,-328(s0)
    1c26:	136010ef          	jal	2d5c <__sprint_r>
    1c2a:	c119                	beqz	a0,1c30 <__stack_size+0x1430>
    1c2c:	c1bfe06f          	j	846 <__stack_size+0x46>
    1c30:	f1842603          	lw	a2,-232(s0)
    1c34:	f1442703          	lw	a4,-236(s0)
    1c38:	eb042783          	lw	a5,-336(s0)
    1c3c:	eb842883          	lw	a7,-328(s0)
    1c40:	855a                	mv	a0,s6
    1c42:	db3fe06f          	j	9f4 <__stack_size+0x1f4>
    1c46:	f1040613          	addi	a2,s0,-240
    1c4a:	85d2                	mv	a1,s4
    1c4c:	8556                	mv	a0,s5
    1c4e:	eaf42823          	sw	a5,-336(s0)
    1c52:	eb142c23          	sw	a7,-328(s0)
    1c56:	106010ef          	jal	2d5c <__sprint_r>
    1c5a:	c119                	beqz	a0,1c60 <__stack_size+0x1460>
    1c5c:	bebfe06f          	j	846 <__stack_size+0x46>
    1c60:	f1842603          	lw	a2,-232(s0)
    1c64:	f1442703          	lw	a4,-236(s0)
    1c68:	eb042783          	lw	a5,-336(s0)
    1c6c:	eb842883          	lw	a7,-328(s0)
    1c70:	855a                	mv	a0,s6
    1c72:	d5ffe06f          	j	9d0 <__stack_size+0x1d0>
    1c76:	200df793          	andi	a5,s11,512
    1c7a:	2e079063          	bnez	a5,1f5a <__stack_size+0x175a>
    1c7e:	4601                	li	a2,0
    1c80:	b375                	j	1a2c <__stack_size+0x122c>
    1c82:	bffdfd93          	andi	s11,s11,-1025
    1c86:	4f81                	li	t6,0
    1c88:	4e81                	li	t4,0
    1c8a:	b9ed                	j	1984 <__stack_size+0x1184>
    1c8c:	f1040613          	addi	a2,s0,-240
    1c90:	85d2                	mv	a1,s4
    1c92:	8556                	mv	a0,s5
    1c94:	e9e42423          	sw	t5,-376(s0)
    1c98:	e8f42623          	sw	a5,-372(s0)
    1c9c:	e9042823          	sw	a6,-368(s0)
    1ca0:	e9f42a23          	sw	t6,-364(s0)
    1ca4:	e9142c23          	sw	a7,-360(s0)
    1ca8:	0b4010ef          	jal	2d5c <__sprint_r>
    1cac:	c119                	beqz	a0,1cb2 <__stack_size+0x14b2>
    1cae:	b99fe06f          	j	846 <__stack_size+0x46>
    1cb2:	eef44703          	lbu	a4,-273(s0)
    1cb6:	f1842603          	lw	a2,-232(s0)
    1cba:	e9842883          	lw	a7,-360(s0)
    1cbe:	e9442f83          	lw	t6,-364(s0)
    1cc2:	e9042803          	lw	a6,-368(s0)
    1cc6:	e8c42783          	lw	a5,-372(s0)
    1cca:	e8842f03          	lw	t5,-376(s0)
    1cce:	12070663          	beqz	a4,1dfa <__stack_size+0x15fa>
    1cd2:	876a                	mv	a4,s10
    1cd4:	f1442583          	lw	a1,-236(s0)
    1cd8:	4d01                	li	s10,0
    1cda:	84da                	mv	s1,s6
    1cdc:	a47fe06f          	j	722 <_vfprintf_r+0x1fa>
    1ce0:	8556                	mv	a0,s5
    1ce2:	6fe010ef          	jal	33e0 <__sinit>
    1ce6:	887fe06f          	j	56c <_vfprintf_r+0x44>
    1cea:	03000793          	li	a5,48
    1cee:	ef0408a3          	sb	a6,-271(s0)
    1cf2:	ee0407a3          	sb	zero,-273(s0)
    1cf6:	eef40823          	sb	a5,-272(s0)
    1cfa:	660c4363          	bltz	s8,2360 <__stack_size+0x1b60>
    1cfe:	b7fdf313          	andi	t1,s11,-1153
    1d02:	eef44e83          	lbu	t4,-273(s0)
    1d06:	00236d93          	ori	s11,t1,2
    1d0a:	4f89                	li	t6,2
    1d0c:	b9a5                	j	1984 <__stack_size+0x1184>
    1d0e:	f1040613          	addi	a2,s0,-240
    1d12:	85d2                	mv	a1,s4
    1d14:	8556                	mv	a0,s5
    1d16:	eb142c23          	sw	a7,-328(s0)
    1d1a:	042010ef          	jal	2d5c <__sprint_r>
    1d1e:	c119                	beqz	a0,1d24 <__stack_size+0x1524>
    1d20:	b27fe06f          	j	846 <__stack_size+0x46>
    1d24:	f1842603          	lw	a2,-232(s0)
    1d28:	eb842883          	lw	a7,-328(s0)
    1d2c:	84da                	mv	s1,s6
    1d2e:	892ff06f          	j	dc0 <__stack_size+0x5c0>
    1d32:	24069563          	bnez	a3,1f7c <__stack_size+0x177c>
    1d36:	4725                	li	a4,9
    1d38:	25976263          	bltu	a4,s9,1f7c <__stack_size+0x177c>
    1d3c:	fc040713          	addi	a4,s0,-64
    1d40:	eaa42a23          	sw	a0,-332(s0)
    1d44:	40f70f33          	sub	t5,a4,a5
    1d48:	8ce2                	mv	s9,s8
    1d4a:	1bec4d63          	blt	s8,t5,1f04 <__stack_size+0x1704>
    1d4e:	eef44e83          	lbu	t4,-273(s0)
    1d52:	4f81                	li	t6,0
    1d54:	ec042023          	sw	zero,-320(s0)
    1d58:	974ff06f          	j	ecc <__stack_size+0x6cc>
    1d5c:	ec842783          	lw	a5,-312(s0)
    1d60:	ecc42683          	lw	a3,-308(s0)
    1d64:	439c                	lw	a5,0(a5)
    1d66:	c394                	sw	a3,0(a5)
    1d68:	ece42423          	sw	a4,-312(s0)
    1d6c:	8bdfe06f          	j	628 <_vfprintf_r+0x100>
    1d70:	65ad                	lui	a1,0xb
    1d72:	eef44e83          	lbu	t4,-273(s0)
    1d76:	ecf42423          	sw	a5,-312(s0)
    1d7a:	d0058593          	addi	a1,a1,-768 # ad00 <zeroes.0+0x78>
    1d7e:	07800813          	li	a6,120
    1d82:	4f89                	li	t6,2
    1d84:	b101                	j	1984 <__stack_size+0x1184>
    1d86:	f1842783          	lw	a5,-232(s0)
    1d8a:	1c079c63          	bnez	a5,1f62 <__stack_size+0x1762>
    1d8e:	f0042a23          	sw	zero,-236(s0)
    1d92:	ac1fe06f          	j	852 <__stack_size+0x52>
    1d96:	4741                	li	a4,16
    1d98:	f1442583          	lw	a1,-236(s0)
    1d9c:	6e2d                	lui	t3,0xb
    1d9e:	63875be3          	bge	a4,s8,2bd4 <__stack_size+0x23d4>
    1da2:	e8f42a23          	sw	a5,-364(s0)
    1da6:	481d                	li	a6,7
    1da8:	87a6                	mv	a5,s1
    1daa:	8d46                	mv	s10,a7
    1dac:	84e2                	mv	s1,s8
    1dae:	e9f42c23          	sw	t6,-360(s0)
    1db2:	8c4a                	mv	s8,s2
    1db4:	8cce0913          	addi	s2,t3,-1844 # a8cc <zeroes.0>
    1db8:	a021                	j	1dc0 <__stack_size+0x15c0>
    1dba:	14c1                	addi	s1,s1,-16
    1dbc:	5a975f63          	bge	a4,s1,237a <__stack_size+0x1b7a>
    1dc0:	0641                	addi	a2,a2,16
    1dc2:	0585                	addi	a1,a1,1
    1dc4:	0127a023          	sw	s2,0(a5)
    1dc8:	c3d8                	sw	a4,4(a5)
    1dca:	f0c42c23          	sw	a2,-232(s0)
    1dce:	f0b42a23          	sw	a1,-236(s0)
    1dd2:	07a1                	addi	a5,a5,8
    1dd4:	feb853e3          	bge	a6,a1,1dba <__stack_size+0x15ba>
    1dd8:	f1040613          	addi	a2,s0,-240
    1ddc:	85d2                	mv	a1,s4
    1dde:	8556                	mv	a0,s5
    1de0:	77d000ef          	jal	2d5c <__sprint_r>
    1de4:	c119                	beqz	a0,1dea <__stack_size+0x15ea>
    1de6:	a61fe06f          	j	846 <__stack_size+0x46>
    1dea:	f1842603          	lw	a2,-232(s0)
    1dee:	f1442583          	lw	a1,-236(s0)
    1df2:	87da                	mv	a5,s6
    1df4:	481d                	li	a6,7
    1df6:	4741                	li	a4,16
    1df8:	b7c9                	j	1dba <__stack_size+0x15ba>
    1dfa:	100d0e63          	beqz	s10,1f16 <__stack_size+0x1716>
    1dfe:	f1442583          	lw	a1,-236(s0)
    1e02:	4d01                	li	s10,0
    1e04:	84da                	mv	s1,s6
    1e06:	941fe06f          	j	746 <_vfprintf_r+0x21e>
    1e0a:	8e4a                	mv	t3,s2
    1e0c:	eb842883          	lw	a7,-328(s0)
    1e10:	eb042903          	lw	s2,-336(s0)
    1e14:	9626                	add	a2,a2,s1
    1e16:	0705                	addi	a4,a4,1
    1e18:	f0c42c23          	sw	a2,-232(s0)
    1e1c:	f0e42a23          	sw	a4,-236(s0)
    1e20:	01c52023          	sw	t3,0(a0)
    1e24:	c144                	sw	s1,4(a0)
    1e26:	479d                	li	a5,7
    1e28:	00e7c463          	blt	a5,a4,1e30 <__stack_size+0x1630>
    1e2c:	bf9fe06f          	j	a24 <__stack_size+0x224>
    1e30:	f38ff06f          	j	1568 <__stack_size+0xd68>
    1e34:	200df713          	andi	a4,s11,512
    1e38:	10070a63          	beqz	a4,1f4c <__stack_size+0x174c>
    1e3c:	0ce2                	slli	s9,s9,0x18
    1e3e:	418cdc93          	srai	s9,s9,0x18
    1e42:	41fcd693          	srai	a3,s9,0x1f
    1e46:	ecf42423          	sw	a5,-312(s0)
    1e4a:	8736                	mv	a4,a3
    1e4c:	d35fe06f          	j	b80 <__stack_size+0x380>
    1e50:	eb842883          	lw	a7,-328(s0)
    1e54:	8e26                	mv	t3,s1
    1e56:	84b6                	mv	s1,a3
    1e58:	9662                	add	a2,a2,s8
    1e5a:	0785                	addi	a5,a5,1
    1e5c:	f0c42c23          	sw	a2,-232(s0)
    1e60:	f0f42a23          	sw	a5,-236(s0)
    1e64:	01c4a023          	sw	t3,0(s1)
    1e68:	0184a223          	sw	s8,4(s1)
    1e6c:	471d                	li	a4,7
    1e6e:	00f74463          	blt	a4,a5,1e76 <__stack_size+0x1676>
    1e72:	927fe06f          	j	798 <_vfprintf_r+0x270>
    1e76:	bd3fe06f          	j	a48 <__stack_size+0x248>
    1e7a:	200dff93          	andi	t6,s11,512
    1e7e:	ee0407a3          	sb	zero,-273(s0)
    1e82:	0a0f9e63          	bnez	t6,1f3e <__stack_size+0x173e>
    1e86:	4681                	li	a3,0
    1e88:	000c5463          	bgez	s8,1e90 <__stack_size+0x1690>
    1e8c:	81cff06f          	j	ea8 <__stack_size+0x6a8>
    1e90:	f7fdfd93          	andi	s11,s11,-129
    1e94:	000c0463          	beqz	s8,1e9c <__stack_size+0x169c>
    1e98:	810ff06f          	j	ea8 <__stack_size+0x6a8>
    1e9c:	a60c8763          	beqz	s9,110a <__stack_size+0x90a>
    1ea0:	808ff06f          	j	ea8 <__stack_size+0x6a8>
    1ea4:	200df693          	andi	a3,s11,512
    1ea8:	c6c9                	beqz	a3,1f32 <__stack_size+0x1732>
    1eaa:	0ff77713          	zext.b	a4,a4
    1eae:	ecf42423          	sw	a5,-312(s0)
    1eb2:	86ee                	mv	a3,s11
    1eb4:	4601                	li	a2,0
    1eb6:	9a0ff06f          	j	1056 <__stack_size+0x856>
    1eba:	ec042023          	sw	zero,-320(s0)
    1ebe:	4f01                	li	t5,0
    1ec0:	ea042823          	sw	zero,-336(s0)
    1ec4:	ea042c23          	sw	zero,-328(s0)
    1ec8:	4f81                	li	t6,0
    1eca:	fc040793          	addi	a5,s0,-64
    1ece:	4c81                	li	s9,0
    1ed0:	839fe06f          	j	708 <_vfprintf_r+0x1e0>
    1ed4:	eac42783          	lw	a5,-340(s0)
    1ed8:	56fd                	li	a3,-1
    1eda:	100ded13          	ori	s10,s11,256
    1ede:	873e                	mv	a4,a5
    1ee0:	1cdc0e63          	beq	s8,a3,20bc <__stack_size+0x18bc>
    1ee4:	ea843507          	fld	fa0,-344(s0)
    1ee8:	4e01                	li	t3,0
    1eea:	000c1663          	bnez	s8,1ef6 <__stack_size+0x16f6>
    1eee:	fb9c8693          	addi	a3,s9,-71
    1ef2:	2c068263          	beqz	a3,21b6 <__stack_size+0x19b6>
    1ef6:	1c075963          	bgez	a4,20c8 <__stack_size+0x18c8>
    1efa:	22a51553          	fneg.d	fa0,fa0
    1efe:	02d00e13          	li	t3,45
    1f02:	a2d9                	j	20c8 <__stack_size+0x18c8>
    1f04:	8cfa                	mv	s9,t5
    1f06:	b5a1                	j	1d4e <__stack_size+0x154e>
    1f08:	8cbe                	mv	s9,a5
    1f0a:	b181                	j	1b4a <__stack_size+0x134a>
    1f0c:	67ad                	lui	a5,0xb
    1f0e:	cf478793          	addi	a5,a5,-780 # acf4 <zeroes.0+0x6c>
    1f12:	a3dfe06f          	j	94e <__stack_size+0x14e>
    1f16:	84da                	mv	s1,s6
    1f18:	855fe06f          	j	76c <_vfprintf_r+0x244>
    1f1c:	ec842783          	lw	a5,-312(s0)
    1f20:	ecc42683          	lw	a3,-308(s0)
    1f24:	ece42423          	sw	a4,-312(s0)
    1f28:	439c                	lw	a5,0(a5)
    1f2a:	00d79023          	sh	a3,0(a5)
    1f2e:	efafe06f          	j	628 <_vfprintf_r+0x100>
    1f32:	ecf42423          	sw	a5,-312(s0)
    1f36:	86ee                	mv	a3,s11
    1f38:	4601                	li	a2,0
    1f3a:	91cff06f          	j	1056 <__stack_size+0x856>
    1f3e:	0ffcfc93          	zext.b	s9,s9
    1f42:	4681                	li	a3,0
    1f44:	a00c51e3          	bgez	s8,1946 <__stack_size+0x1146>
    1f48:	f5dfe06f          	j	ea4 <__stack_size+0x6a4>
    1f4c:	41fcd693          	srai	a3,s9,0x1f
    1f50:	ecf42423          	sw	a5,-312(s0)
    1f54:	8736                	mv	a4,a3
    1f56:	c2bfe06f          	j	b80 <__stack_size+0x380>
    1f5a:	0ff77713          	zext.b	a4,a4
    1f5e:	4601                	li	a2,0
    1f60:	b4f1                	j	1a2c <__stack_size+0x122c>
    1f62:	8556                	mv	a0,s5
    1f64:	f1040613          	addi	a2,s0,-240
    1f68:	85d2                	mv	a1,s4
    1f6a:	5f3000ef          	jal	2d5c <__sprint_r>
    1f6e:	c119                	beqz	a0,1f74 <__stack_size+0x1774>
    1f70:	8e3fe06f          	j	852 <__stack_size+0x52>
    1f74:	f0042a23          	sw	zero,-236(s0)
    1f78:	8dbfe06f          	j	852 <__stack_size+0x52>
    1f7c:	e7c42603          	lw	a2,-388(s0)
    1f80:	e8042583          	lw	a1,-384(s0)
    1f84:	e8d42c23          	sw	a3,-360(s0)
    1f88:	40c78eb3          	sub	t4,a5,a2
    1f8c:	8576                	mv	a0,t4
    1f8e:	ebc42823          	sw	t3,-336(s0)
    1f92:	eb042a23          	sw	a6,-332(s0)
    1f96:	eb142c23          	sw	a7,-328(s0)
    1f9a:	edd42023          	sw	t4,-320(s0)
    1f9e:	3e3010ef          	jal	3b80 <strncpy>
    1fa2:	e9842683          	lw	a3,-360(s0)
    1fa6:	ccccd637          	lui	a2,0xccccd
    1faa:	ccd60613          	addi	a2,a2,-819 # cccccccd <_eusrstack+0xaccc4ccd>
    1fae:	00dc8733          	add	a4,s9,a3
    1fb2:	019737b3          	sltu	a5,a4,s9
    1fb6:	973e                	add	a4,a4,a5
    1fb8:	02c735b3          	mulhu	a1,a4,a2
    1fbc:	ccccd537          	lui	a0,0xccccd
    1fc0:	ccc50513          	addi	a0,a0,-820 # cccccccc <_eusrstack+0xaccc4ccc>
    1fc4:	e9c42803          	lw	a6,-356(s0)
    1fc8:	ec042e83          	lw	t4,-320(s0)
    1fcc:	ccccd337          	lui	t1,0xccccd
    1fd0:	00184783          	lbu	a5,1(a6)
    1fd4:	eb842883          	lw	a7,-328(s0)
    1fd8:	eb042e03          	lw	t3,-336(s0)
    1fdc:	00f037b3          	snez	a5,a5
    1fe0:	0025df13          	srli	t5,a1,0x2
    1fe4:	99f1                	andi	a1,a1,-4
    1fe6:	95fa                	add	a1,a1,t5
    1fe8:	8f0d                	sub	a4,a4,a1
    1fea:	40ec8733          	sub	a4,s9,a4
    1fee:	00ecbcb3          	sltu	s9,s9,a4
    1ff2:	419686b3          	sub	a3,a3,s9
    1ff6:	02a70533          	mul	a0,a4,a0
    1ffa:	97c2                	add	a5,a5,a6
    1ffc:	e8f42e23          	sw	a5,-356(s0)
    2000:	eb442803          	lw	a6,-332(s0)
    2004:	fffe8793          	addi	a5,t4,-1
    2008:	ccc30313          	addi	t1,t1,-820 # cccccccc <_eusrstack+0xaccc4ccc>
    200c:	02c686b3          	mul	a3,a3,a2
    2010:	02c735b3          	mulhu	a1,a4,a2
    2014:	96aa                	add	a3,a3,a0
    2016:	4505                	li	a0,1
    2018:	02c70733          	mul	a4,a4,a2
    201c:	96ae                	add	a3,a3,a1
    201e:	01f69593          	slli	a1,a3,0x1f
    2022:	8285                	srli	a3,a3,0x1
    2024:	8305                	srli	a4,a4,0x1
    2026:	00e58cb3          	add	s9,a1,a4
    202a:	00dc8733          	add	a4,s9,a3
    202e:	019735b3          	sltu	a1,a4,s9
    2032:	972e                	add	a4,a4,a1
    2034:	02c735b3          	mulhu	a1,a4,a2
    2038:	0025df13          	srli	t5,a1,0x2
    203c:	99f1                	andi	a1,a1,-4
    203e:	95fa                	add	a1,a1,t5
    2040:	8f0d                	sub	a4,a4,a1
    2042:	40ec8733          	sub	a4,s9,a4
    2046:	00ecb5b3          	sltu	a1,s9,a4
    204a:	40b685b3          	sub	a1,a3,a1
    204e:	02c73f33          	mulhu	t5,a4,a2
    2052:	02c585b3          	mul	a1,a1,a2
    2056:	02c70733          	mul	a4,a4,a2
    205a:	01e58633          	add	a2,a1,t5
    205e:	067e                	slli	a2,a2,0x1f
    2060:	8305                	srli	a4,a4,0x1
    2062:	9732                	add	a4,a4,a2
    2064:	00271613          	slli	a2,a4,0x2
    2068:	9732                	add	a4,a4,a2
    206a:	0706                	slli	a4,a4,0x1
    206c:	40ec8733          	sub	a4,s9,a4
    2070:	03070713          	addi	a4,a4,48
    2074:	feee8fa3          	sb	a4,-1(t4)
    2078:	b411                	j	1a7c <__stack_size+0x127c>
    207a:	058a2503          	lw	a0,88(s4)
    207e:	5e3010ef          	jal	3e60 <__retarget_lock_release_recursive>
    2082:	f8afe06f          	j	80c <__stack_size+0xc>
    2086:	001c0593          	addi	a1,s8,1
    208a:	8556                	mv	a0,s5
    208c:	eb042a23          	sw	a6,-332(s0)
    2090:	ed142023          	sw	a7,-320(s0)
    2094:	43e030ef          	jal	54d2 <_malloc_r>
    2098:	ec042883          	lw	a7,-320(s0)
    209c:	eb442803          	lw	a6,-332(s0)
    20a0:	87aa                	mv	a5,a0
    20a2:	3a0502e3          	beqz	a0,2c46 <__stack_size+0x2446>
    20a6:	eac42703          	lw	a4,-340(s0)
    20aa:	280744e3          	bltz	a4,2b32 <__stack_size+0x2332>
    20ae:	ea843507          	fld	fa0,-344(s0)
    20b2:	eca42023          	sw	a0,-320(s0)
    20b6:	4e01                	li	t3,0
    20b8:	f24ff06f          	j	17dc <__stack_size+0xfdc>
    20bc:	1c07cbe3          	bltz	a5,2a92 <__stack_size+0x2292>
    20c0:	ea843507          	fld	fa0,-344(s0)
    20c4:	4e01                	li	t3,0
    20c6:	4c19                	li	s8,6
    20c8:	04600793          	li	a5,70
    20cc:	66fc9d63          	bne	s9,a5,2746 <__stack_size+0x1f46>
    20d0:	efc40793          	addi	a5,s0,-260
    20d4:	ef840713          	addi	a4,s0,-264
    20d8:	ef440693          	addi	a3,s0,-268
    20dc:	8662                	mv	a2,s8
    20de:	458d                	li	a1,3
    20e0:	8556                	mv	a0,s5
    20e2:	e9042c23          	sw	a6,-360(s0)
    20e6:	ebc42823          	sw	t3,-336(s0)
    20ea:	eb142a23          	sw	a7,-332(s0)
    20ee:	eca43027          	fsd	fa0,-320(s0)
    20f2:	1f0020ef          	jal	42e2 <_dtoa_r>
    20f6:	00054683          	lbu	a3,0(a0)
    20fa:	03000713          	li	a4,48
    20fe:	ec043507          	fld	fa0,-320(s0)
    2102:	eb442883          	lw	a7,-332(s0)
    2106:	eb042e03          	lw	t3,-336(s0)
    210a:	e9842803          	lw	a6,-360(s0)
    210e:	87aa                	mv	a5,a0
    2110:	01850633          	add	a2,a0,s8
    2114:	02e68de3          	beq	a3,a4,294e <__stack_size+0x214e>
    2118:	ef442703          	lw	a4,-268(s0)
    211c:	d20007d3          	fcvt.d.w	fa5,zero
    2120:	963a                	add	a2,a2,a4
    2122:	a2f52753          	feq.d	a4,fa0,fa5
    2126:	00071ce3          	bnez	a4,293e <__stack_size+0x213e>
    212a:	efc42703          	lw	a4,-260(s0)
    212e:	30c775e3          	bgeu	a4,a2,2c38 <__stack_size+0x2438>
    2132:	03000593          	li	a1,48
    2136:	00170693          	addi	a3,a4,1
    213a:	eed42e23          	sw	a3,-260(s0)
    213e:	00b70023          	sb	a1,0(a4)
    2142:	efc42703          	lw	a4,-260(s0)
    2146:	fec768e3          	bltu	a4,a2,2136 <__stack_size+0x1936>
    214a:	8f1d                	sub	a4,a4,a5
    214c:	04700693          	li	a3,71
    2150:	eae42a23          	sw	a4,-332(s0)
    2154:	ef442f83          	lw	t6,-268(s0)
    2158:	0adc8f63          	beq	s9,a3,2216 <__stack_size+0x1a16>
    215c:	04600713          	li	a4,70
    2160:	0cec9163          	bne	s9,a4,2222 <__stack_size+0x1a22>
    2164:	001df713          	andi	a4,s11,1
    2168:	01876733          	or	a4,a4,s8
    216c:	1bf05ce3          	blez	t6,2b24 <__stack_size+0x2324>
    2170:	06071fe3          	bnez	a4,29ee <__stack_size+0x21ee>
    2174:	8f7e                	mv	t5,t6
    2176:	06600813          	li	a6,102
    217a:	400df313          	andi	t1,s11,1024
    217e:	020319e3          	bnez	t1,29b0 <__stack_size+0x21b0>
    2182:	ffff4693          	not	a3,t5
    2186:	86fd                	srai	a3,a3,0x1f
    2188:	00df7cb3          	and	s9,t5,a3
    218c:	660e0063          	beqz	t3,27ec <__stack_size+0x1fec>
    2190:	02d00713          	li	a4,45
    2194:	eee407a3          	sb	a4,-273(s0)
    2198:	0c85                	addi	s9,s9,1
    219a:	eb842703          	lw	a4,-328(s0)
    219e:	8dea                	mv	s11,s10
    21a0:	ec042023          	sw	zero,-320(s0)
    21a4:	8c3a                	mv	s8,a4
    21a6:	eae42823          	sw	a4,-336(s0)
    21aa:	d5efe06f          	j	708 <_vfprintf_r+0x1e0>
    21ae:	07800793          	li	a5,120
    21b2:	e04ff06f          	j	17b6 <__stack_size+0xfb6>
    21b6:	0007d663          	bgez	a5,21c2 <__stack_size+0x19c2>
    21ba:	22a51553          	fneg.d	fa0,fa0
    21be:	02d00e13          	li	t3,45
    21c2:	efc40793          	addi	a5,s0,-260
    21c6:	ef840713          	addi	a4,s0,-264
    21ca:	ef440693          	addi	a3,s0,-268
    21ce:	4605                	li	a2,1
    21d0:	4589                	li	a1,2
    21d2:	8556                	mv	a0,s5
    21d4:	e9042a23          	sw	a6,-364(s0)
    21d8:	e9c42c23          	sw	t3,-360(s0)
    21dc:	eb142823          	sw	a7,-336(s0)
    21e0:	eca43027          	fsd	fa0,-320(s0)
    21e4:	0fe020ef          	jal	42e2 <_dtoa_r>
    21e8:	ec043507          	fld	fa0,-320(s0)
    21ec:	eb042883          	lw	a7,-336(s0)
    21f0:	e9842e03          	lw	t3,-360(s0)
    21f4:	e9442803          	lw	a6,-364(s0)
    21f8:	4c05                	li	s8,1
    21fa:	87aa                	mv	a5,a0
    21fc:	eb842a23          	sw	s8,-332(s0)
    2200:	001df713          	andi	a4,s11,1
    2204:	6c071163          	bnez	a4,28c6 <__stack_size+0x20c6>
    2208:	efc42703          	lw	a4,-260(s0)
    220c:	ef442f83          	lw	t6,-268(s0)
    2210:	8f1d                	sub	a4,a4,a5
    2212:	eae42a23          	sw	a4,-332(s0)
    2216:	ffdfa713          	slti	a4,t6,-3
    221a:	e319                	bnez	a4,2220 <__stack_size+0x1a20>
    221c:	0dfc5d63          	bge	s8,t6,22f6 <__stack_size+0x1af6>
    2220:	1879                	addi	a6,a6,-2
    2222:	ffff8713          	addi	a4,t6,-1
    2226:	f1040023          	sb	a6,-256(s0)
    222a:	eee42a23          	sw	a4,-268(s0)
    222e:	02074be3          	bltz	a4,2a64 <__stack_size+0x2264>
    2232:	02b00693          	li	a3,43
    2236:	f0d400a3          	sb	a3,-255(s0)
    223a:	46a5                	li	a3,9
    223c:	04e6d0e3          	bge	a3,a4,2a7c <__stack_size+0x227c>
    2240:	8d6e                	mv	s10,s11
    2242:	ec042023          	sw	zero,-320(s0)
    2246:	f0f40e93          	addi	t4,s0,-241
    224a:	ccccd337          	lui	t1,0xccccd
    224e:	85f6                	mv	a1,t4
    2250:	ccd30313          	addi	t1,t1,-819 # cccccccd <_eusrstack+0xaccc4ccd>
    2254:	06300f13          	li	t5,99
    2258:	026736b3          	mulhu	a3,a4,t1
    225c:	8fba                	mv	t6,a4
    225e:	862e                	mv	a2,a1
    2260:	15fd                	addi	a1,a1,-1
    2262:	828d                	srli	a3,a3,0x3
    2264:	00269513          	slli	a0,a3,0x2
    2268:	9536                	add	a0,a0,a3
    226a:	0506                	slli	a0,a0,0x1
    226c:	8f09                	sub	a4,a4,a0
    226e:	03070713          	addi	a4,a4,48
    2272:	fee60fa3          	sb	a4,-1(a2)
    2276:	8736                	mv	a4,a3
    2278:	ffff40e3          	blt	t5,t6,2258 <__stack_size+0x1a58>
    227c:	03068713          	addi	a4,a3,48
    2280:	fee58fa3          	sb	a4,-1(a1)
    2284:	ffe60713          	addi	a4,a2,-2
    2288:	13d77ee3          	bgeu	a4,t4,2bc4 <__stack_size+0x23c4>
    228c:	f0240593          	addi	a1,s0,-254
    2290:	86ae                	mv	a3,a1
    2292:	00074503          	lbu	a0,0(a4)
    2296:	0705                	addi	a4,a4,1
    2298:	0685                	addi	a3,a3,1
    229a:	fea68fa3          	sb	a0,-1(a3)
    229e:	ffd71ae3          	bne	a4,t4,2292 <__stack_size+0x1a92>
    22a2:	972e                	add	a4,a4,a1
    22a4:	0709                	addi	a4,a4,2
    22a6:	8f11                	sub	a4,a4,a2
    22a8:	f0040693          	addi	a3,s0,-256
    22ac:	8f15                	sub	a4,a4,a3
    22ae:	e8e42223          	sw	a4,-380(s0)
    22b2:	eb442683          	lw	a3,-332(s0)
    22b6:	e8442603          	lw	a2,-380(s0)
    22ba:	4705                	li	a4,1
    22bc:	00c68f33          	add	t5,a3,a2
    22c0:	64d75463          	bge	a4,a3,2908 <__stack_size+0x2108>
    22c4:	ea442703          	lw	a4,-348(s0)
    22c8:	9f3a                	add	t5,t5,a4
    22ca:	ffff4693          	not	a3,t5
    22ce:	86fd                	srai	a3,a3,0x1f
    22d0:	bffd7313          	andi	t1,s10,-1025
    22d4:	00df7cb3          	and	s9,t5,a3
    22d8:	10036d93          	ori	s11,t1,256
    22dc:	002d7f93          	andi	t6,s10,2
    22e0:	600e0a63          	beqz	t3,28f4 <__stack_size+0x20f4>
    22e4:	02d00e93          	li	t4,45
    22e8:	eb842c03          	lw	s8,-328(s0)
    22ec:	efd407a3          	sb	t4,-273(s0)
    22f0:	0c85                	addi	s9,s9,1
    22f2:	8c5fe06f          	j	bb6 <__stack_size+0x3b6>
    22f6:	eb442703          	lw	a4,-332(s0)
    22fa:	5aefc363          	blt	t6,a4,28a0 <__stack_size+0x20a0>
    22fe:	001df713          	andi	a4,s11,1
    2302:	8f7e                	mv	t5,t6
    2304:	c709                	beqz	a4,230e <__stack_size+0x1b0e>
    2306:	ea442703          	lw	a4,-348(s0)
    230a:	00ef8f33          	add	t5,t6,a4
    230e:	400df313          	andi	t1,s11,1024
    2312:	00030463          	beqz	t1,231a <__stack_size+0x1b1a>
    2316:	69f04b63          	bgtz	t6,29ac <__stack_size+0x21ac>
    231a:	ffff4693          	not	a3,t5
    231e:	86fd                	srai	a3,a3,0x1f
    2320:	00df7cb3          	and	s9,t5,a3
    2324:	06700813          	li	a6,103
    2328:	b595                	j	218c <__stack_size+0x198c>
    232a:	00a5c503          	lbu	a0,10(a1)
    232e:	d96ff06f          	j	18c4 <__stack_size+0x10c4>
    2332:	02d00793          	li	a5,45
    2336:	eef407a3          	sb	a5,-273(s0)
    233a:	04700793          	li	a5,71
    233e:	5507dd63          	bge	a5,a6,2898 <__stack_size+0x2098>
    2342:	67ad                	lui	a5,0xb
    2344:	cf478793          	addi	a5,a5,-780 # acf4 <zeroes.0+0x6c>
    2348:	ec042023          	sw	zero,-320(s0)
    234c:	4f0d                	li	t5,3
    234e:	4c01                	li	s8,0
    2350:	ea042823          	sw	zero,-336(s0)
    2354:	ea042c23          	sw	zero,-328(s0)
    2358:	4f81                	li	t6,0
    235a:	4c91                	li	s9,4
    235c:	bacfe06f          	j	708 <_vfprintf_r+0x1e0>
    2360:	bffdf313          	andi	t1,s11,-1025
    2364:	00236d93          	ori	s11,t1,2
    2368:	4f89                	li	t6,2
    236a:	4e81                	li	t4,0
    236c:	e18ff06f          	j	1984 <__stack_size+0x1184>
    2370:	ecf42423          	sw	a5,-312(s0)
    2374:	8d9a                	mv	s11,t1
    2376:	b33fe06f          	j	ea8 <__stack_size+0x6a8>
    237a:	8e4a                	mv	t3,s2
    237c:	e9842f83          	lw	t6,-360(s0)
    2380:	8962                	mv	s2,s8
    2382:	8c26                	mv	s8,s1
    2384:	84be                	mv	s1,a5
    2386:	e9442783          	lw	a5,-364(s0)
    238a:	88ea                	mv	a7,s10
    238c:	9662                	add	a2,a2,s8
    238e:	0585                	addi	a1,a1,1
    2390:	01c4a023          	sw	t3,0(s1)
    2394:	0184a223          	sw	s8,4(s1)
    2398:	f0c42c23          	sw	a2,-232(s0)
    239c:	f0b42a23          	sw	a1,-236(s0)
    23a0:	471d                	li	a4,7
    23a2:	04a1                	addi	s1,s1,8
    23a4:	00b74463          	blt	a4,a1,23ac <__stack_size+0x1bac>
    23a8:	ff3fe06f          	j	139a <__stack_size+0xb9a>
    23ac:	f1040613          	addi	a2,s0,-240
    23b0:	85d2                	mv	a1,s4
    23b2:	8556                	mv	a0,s5
    23b4:	e8f42823          	sw	a5,-368(s0)
    23b8:	e9f42a23          	sw	t6,-364(s0)
    23bc:	e9142c23          	sw	a7,-360(s0)
    23c0:	19d000ef          	jal	2d5c <__sprint_r>
    23c4:	c119                	beqz	a0,23ca <__stack_size+0x1bca>
    23c6:	c80fe06f          	j	846 <__stack_size+0x46>
    23ca:	f1842603          	lw	a2,-232(s0)
    23ce:	e9042783          	lw	a5,-368(s0)
    23d2:	e9442f83          	lw	t6,-364(s0)
    23d6:	e9842883          	lw	a7,-360(s0)
    23da:	84da                	mv	s1,s6
    23dc:	fbffe06f          	j	139a <__stack_size+0xb9a>
    23e0:	eb842703          	lw	a4,-328(s0)
    23e4:	00e04663          	bgtz	a4,23f0 <__stack_size+0x1bf0>
    23e8:	eb042703          	lw	a4,-336(s0)
    23ec:	00e058e3          	blez	a4,2bfc <__stack_size+0x23fc>
    23f0:	eb442703          	lw	a4,-332(s0)
    23f4:	e9b42823          	sw	s11,-368(s0)
    23f8:	e9942623          	sw	s9,-372(s0)
    23fc:	e9242423          	sw	s2,-376(s0)
    2400:	eb042d83          	lw	s11,-336(s0)
    2404:	896a                	mv	s2,s10
    2406:	e7c42c83          	lw	s9,-388(s0)
    240a:	e9c42d03          	lw	s10,-356(s0)
    240e:	00e78eb3          	add	t4,a5,a4
    2412:	6e2d                	lui	t3,0xb
    2414:	eb842c03          	lw	s8,-328(s0)
    2418:	86a6                	mv	a3,s1
    241a:	8cce0e13          	addi	t3,t3,-1844 # a8cc <zeroes.0>
    241e:	481d                	li	a6,7
    2420:	4741                	li	a4,16
    2422:	e9142c23          	sw	a7,-360(s0)
    2426:	e8f42a23          	sw	a5,-364(s0)
    242a:	84f6                	mv	s1,t4
    242c:	eb442c23          	sw	s4,-328(s0)
    2430:	07b04d63          	bgtz	s11,24aa <__stack_size+0x1caa>
    2434:	1d7d                	addi	s10,s10,-1
    2436:	1c7d                	addi	s8,s8,-1
    2438:	f1442783          	lw	a5,-236(s0)
    243c:	e8042583          	lw	a1,-384(s0)
    2440:	9666                	add	a2,a2,s9
    2442:	0785                	addi	a5,a5,1
    2444:	c28c                	sw	a1,0(a3)
    2446:	0196a223          	sw	s9,4(a3)
    244a:	f0c42c23          	sw	a2,-232(s0)
    244e:	f0f42a23          	sw	a5,-236(s0)
    2452:	06a1                	addi	a3,a3,8
    2454:	0ef84763          	blt	a6,a5,2542 <__stack_size+0x1d42>
    2458:	000d4583          	lbu	a1,0(s10)
    245c:	41248a33          	sub	s4,s1,s2
    2460:	8f26                	mv	t5,s1
    2462:	0145d363          	bge	a1,s4,2468 <__stack_size+0x1c68>
    2466:	8a2e                	mv	s4,a1
    2468:	03405363          	blez	s4,248e <__stack_size+0x1c8e>
    246c:	f1442583          	lw	a1,-236(s0)
    2470:	9652                	add	a2,a2,s4
    2472:	f0c42c23          	sw	a2,-232(s0)
    2476:	0585                	addi	a1,a1,1
    2478:	0126a023          	sw	s2,0(a3)
    247c:	0146a223          	sw	s4,4(a3)
    2480:	f0b42a23          	sw	a1,-236(s0)
    2484:	10b84963          	blt	a6,a1,2596 <__stack_size+0x1d96>
    2488:	000d4583          	lbu	a1,0(s10)
    248c:	06a1                	addi	a3,a3,8
    248e:	fffa4513          	not	a0,s4
    2492:	857d                	srai	a0,a0,0x1f
    2494:	00aa77b3          	and	a5,s4,a0
    2498:	40f58a33          	sub	s4,a1,a5
    249c:	05404063          	bgtz	s4,24dc <__stack_size+0x1cdc>
    24a0:	992e                	add	s2,s2,a1
    24a2:	f98047e3          	bgtz	s8,2430 <__stack_size+0x1c30>
    24a6:	01b05463          	blez	s11,24ae <__stack_size+0x1cae>
    24aa:	1dfd                	addi	s11,s11,-1
    24ac:	b771                	j	2438 <__stack_size+0x1c38>
    24ae:	e9a42e23          	sw	s10,-356(s0)
    24b2:	e9842883          	lw	a7,-360(s0)
    24b6:	8d4a                	mv	s10,s2
    24b8:	e9442783          	lw	a5,-364(s0)
    24bc:	e9042d83          	lw	s11,-368(s0)
    24c0:	e8c42c83          	lw	s9,-372(s0)
    24c4:	e8842903          	lw	s2,-376(s0)
    24c8:	eb842a03          	lw	s4,-328(s0)
    24cc:	84b6                	mv	s1,a3
    24ce:	01af6463          	bltu	t5,s10,24d6 <__stack_size+0x1cd6>
    24d2:	ed7fe06f          	j	13a8 <__stack_size+0xba8>
    24d6:	8d7a                	mv	s10,t5
    24d8:	ed1fe06f          	j	13a8 <__stack_size+0xba8>
    24dc:	63ad                	lui	t2,0xb
    24de:	f1442583          	lw	a1,-236(s0)
    24e2:	8cc38393          	addi	t2,t2,-1844 # a8cc <zeroes.0>
    24e6:	09475863          	bge	a4,s4,2576 <__stack_size+0x1d76>
    24ea:	87a6                	mv	a5,s1
    24ec:	ebe42823          	sw	t5,-336(s0)
    24f0:	84d2                	mv	s1,s4
    24f2:	e9c42e23          	sw	t3,-356(s0)
    24f6:	8a3e                	mv	s4,a5
    24f8:	a021                	j	2500 <__stack_size+0x1d00>
    24fa:	14c1                	addi	s1,s1,-16
    24fc:	06975663          	bge	a4,s1,2568 <__stack_size+0x1d68>
    2500:	0641                	addi	a2,a2,16
    2502:	0585                	addi	a1,a1,1
    2504:	01c6a023          	sw	t3,0(a3)
    2508:	c2d8                	sw	a4,4(a3)
    250a:	f0c42c23          	sw	a2,-232(s0)
    250e:	f0b42a23          	sw	a1,-236(s0)
    2512:	06a1                	addi	a3,a3,8
    2514:	feb853e3          	bge	a6,a1,24fa <__stack_size+0x1cfa>
    2518:	eb842583          	lw	a1,-328(s0)
    251c:	f1040613          	addi	a2,s0,-240
    2520:	8556                	mv	a0,s5
    2522:	03b000ef          	jal	2d5c <__sprint_r>
    2526:	c119                	beqz	a0,252c <__stack_size+0x1d2c>
    2528:	b1afe06f          	j	842 <__stack_size+0x42>
    252c:	67ad                	lui	a5,0xb
    252e:	f1842603          	lw	a2,-232(s0)
    2532:	f1442583          	lw	a1,-236(s0)
    2536:	86da                	mv	a3,s6
    2538:	8cc78e13          	addi	t3,a5,-1844 # a8cc <zeroes.0>
    253c:	4741                	li	a4,16
    253e:	481d                	li	a6,7
    2540:	bf6d                	j	24fa <__stack_size+0x1cfa>
    2542:	eb842583          	lw	a1,-328(s0)
    2546:	f1040613          	addi	a2,s0,-240
    254a:	8556                	mv	a0,s5
    254c:	011000ef          	jal	2d5c <__sprint_r>
    2550:	c119                	beqz	a0,2556 <__stack_size+0x1d56>
    2552:	af0fe06f          	j	842 <__stack_size+0x42>
    2556:	67ad                	lui	a5,0xb
    2558:	f1842603          	lw	a2,-232(s0)
    255c:	86da                	mv	a3,s6
    255e:	8cc78e13          	addi	t3,a5,-1844 # a8cc <zeroes.0>
    2562:	4741                	li	a4,16
    2564:	481d                	li	a6,7
    2566:	bdcd                	j	2458 <__stack_size+0x1c58>
    2568:	eb042f03          	lw	t5,-336(s0)
    256c:	e9c42383          	lw	t2,-356(s0)
    2570:	87d2                	mv	a5,s4
    2572:	8a26                	mv	s4,s1
    2574:	84be                	mv	s1,a5
    2576:	9652                	add	a2,a2,s4
    2578:	0585                	addi	a1,a1,1
    257a:	f0c42c23          	sw	a2,-232(s0)
    257e:	f0b42a23          	sw	a1,-236(s0)
    2582:	0076a023          	sw	t2,0(a3)
    2586:	0146a223          	sw	s4,4(a3)
    258a:	14b84c63          	blt	a6,a1,26e2 <__stack_size+0x1ee2>
    258e:	000d4583          	lbu	a1,0(s10)
    2592:	06a1                	addi	a3,a3,8
    2594:	b731                	j	24a0 <__stack_size+0x1ca0>
    2596:	eb842583          	lw	a1,-328(s0)
    259a:	f1040613          	addi	a2,s0,-240
    259e:	8556                	mv	a0,s5
    25a0:	ebe42823          	sw	t5,-336(s0)
    25a4:	7b8000ef          	jal	2d5c <__sprint_r>
    25a8:	c119                	beqz	a0,25ae <__stack_size+0x1dae>
    25aa:	a98fe06f          	j	842 <__stack_size+0x42>
    25ae:	67ad                	lui	a5,0xb
    25b0:	000d4583          	lbu	a1,0(s10)
    25b4:	f1842603          	lw	a2,-232(s0)
    25b8:	eb042f03          	lw	t5,-336(s0)
    25bc:	86da                	mv	a3,s6
    25be:	8cc78e13          	addi	t3,a5,-1844 # a8cc <zeroes.0>
    25c2:	4741                	li	a4,16
    25c4:	481d                	li	a6,7
    25c6:	b5e1                	j	248e <__stack_size+0x1c8e>
    25c8:	f1040613          	addi	a2,s0,-240
    25cc:	85d2                	mv	a1,s4
    25ce:	8556                	mv	a0,s5
    25d0:	eaf42823          	sw	a5,-336(s0)
    25d4:	eb142c23          	sw	a7,-328(s0)
    25d8:	2751                	jal	2d5c <__sprint_r>
    25da:	c119                	beqz	a0,25e0 <__stack_size+0x1de0>
    25dc:	a6afe06f          	j	846 <__stack_size+0x46>
    25e0:	ef442c03          	lw	s8,-268(s0)
    25e4:	f1842603          	lw	a2,-232(s0)
    25e8:	eb042783          	lw	a5,-336(s0)
    25ec:	eb842883          	lw	a7,-328(s0)
    25f0:	84da                	mv	s1,s6
    25f2:	852ff06f          	j	1644 <__stack_size+0xe44>
    25f6:	4d41                	li	s10,16
    25f8:	6e2d                	lui	t3,0xb
    25fa:	5d8d5a63          	bge	s10,s8,2bce <__stack_size+0x23ce>
    25fe:	eaf42823          	sw	a5,-336(s0)
    2602:	469d                	li	a3,7
    2604:	87a6                	mv	a5,s1
    2606:	eb142c23          	sw	a7,-328(s0)
    260a:	84e2                	mv	s1,s8
    260c:	8c4a                	mv	s8,s2
    260e:	8cce0913          	addi	s2,t3,-1844 # a8cc <zeroes.0>
    2612:	a021                	j	261a <__stack_size+0x1e1a>
    2614:	14c1                	addi	s1,s1,-16
    2616:	209d5863          	bge	s10,s1,2826 <__stack_size+0x2026>
    261a:	0641                	addi	a2,a2,16
    261c:	0705                	addi	a4,a4,1
    261e:	0127a023          	sw	s2,0(a5)
    2622:	01a7a223          	sw	s10,4(a5)
    2626:	f0c42c23          	sw	a2,-232(s0)
    262a:	f0e42a23          	sw	a4,-236(s0)
    262e:	07a1                	addi	a5,a5,8
    2630:	fee6d2e3          	bge	a3,a4,2614 <__stack_size+0x1e14>
    2634:	f1040613          	addi	a2,s0,-240
    2638:	85d2                	mv	a1,s4
    263a:	8556                	mv	a0,s5
    263c:	2705                	jal	2d5c <__sprint_r>
    263e:	c119                	beqz	a0,2644 <__stack_size+0x1e44>
    2640:	a06fe06f          	j	846 <__stack_size+0x46>
    2644:	f1842603          	lw	a2,-232(s0)
    2648:	f1442703          	lw	a4,-236(s0)
    264c:	87da                	mv	a5,s6
    264e:	469d                	li	a3,7
    2650:	b7d1                	j	2614 <__stack_size+0x1e14>
    2652:	f1040613          	addi	a2,s0,-240
    2656:	85d2                	mv	a1,s4
    2658:	8556                	mv	a0,s5
    265a:	e8f42823          	sw	a5,-368(s0)
    265e:	e9f42a23          	sw	t6,-364(s0)
    2662:	e9142c23          	sw	a7,-360(s0)
    2666:	2ddd                	jal	2d5c <__sprint_r>
    2668:	c119                	beqz	a0,266e <__stack_size+0x1e6e>
    266a:	9dcfe06f          	j	846 <__stack_size+0x46>
    266e:	f1842603          	lw	a2,-232(s0)
    2672:	e9042783          	lw	a5,-368(s0)
    2676:	e9442f83          	lw	t6,-364(s0)
    267a:	e9842883          	lw	a7,-360(s0)
    267e:	84da                	mv	s1,s6
    2680:	d09fe06f          	j	1388 <__stack_size+0xb88>
    2684:	001df713          	andi	a4,s11,1
    2688:	e319                	bnez	a4,268e <__stack_size+0x1e8e>
    268a:	910fe06f          	j	79a <_vfprintf_r+0x272>
    268e:	f1442703          	lw	a4,-236(s0)
    2692:	ea442683          	lw	a3,-348(s0)
    2696:	ea042583          	lw	a1,-352(s0)
    269a:	0705                	addi	a4,a4,1
    269c:	9636                	add	a2,a2,a3
    269e:	c08c                	sw	a1,0(s1)
    26a0:	f0c42c23          	sw	a2,-232(s0)
    26a4:	c0d4                	sw	a3,4(s1)
    26a6:	f0e42a23          	sw	a4,-236(s0)
    26aa:	459d                	li	a1,7
    26ac:	06e5d363          	bge	a1,a4,2712 <__stack_size+0x1f12>
    26b0:	f1040613          	addi	a2,s0,-240
    26b4:	85d2                	mv	a1,s4
    26b6:	8556                	mv	a0,s5
    26b8:	eaf42823          	sw	a5,-336(s0)
    26bc:	eb142c23          	sw	a7,-328(s0)
    26c0:	2d71                	jal	2d5c <__sprint_r>
    26c2:	c119                	beqz	a0,26c8 <__stack_size+0x1ec8>
    26c4:	982fe06f          	j	846 <__stack_size+0x46>
    26c8:	ef442c03          	lw	s8,-268(s0)
    26cc:	f1842603          	lw	a2,-232(s0)
    26d0:	f1442703          	lw	a4,-236(s0)
    26d4:	eb042783          	lw	a5,-336(s0)
    26d8:	eb842883          	lw	a7,-328(s0)
    26dc:	84da                	mv	s1,s6
    26de:	f9dfe06f          	j	167a <__stack_size+0xe7a>
    26e2:	eb842583          	lw	a1,-328(s0)
    26e6:	f1040613          	addi	a2,s0,-240
    26ea:	8556                	mv	a0,s5
    26ec:	ebe42823          	sw	t5,-336(s0)
    26f0:	25b5                	jal	2d5c <__sprint_r>
    26f2:	c119                	beqz	a0,26f8 <__stack_size+0x1ef8>
    26f4:	94efe06f          	j	842 <__stack_size+0x42>
    26f8:	67ad                	lui	a5,0xb
    26fa:	000d4583          	lbu	a1,0(s10)
    26fe:	f1842603          	lw	a2,-232(s0)
    2702:	eb042f03          	lw	t5,-336(s0)
    2706:	86da                	mv	a3,s6
    2708:	8cc78e13          	addi	t3,a5,-1844 # a8cc <zeroes.0>
    270c:	4741                	li	a4,16
    270e:	481d                	li	a6,7
    2710:	bb41                	j	24a0 <__stack_size+0x1ca0>
    2712:	04a1                	addi	s1,s1,8
    2714:	f6ffe06f          	j	1682 <__stack_size+0xe82>
    2718:	8e4a                	mv	t3,s2
    271a:	eb842883          	lw	a7,-328(s0)
    271e:	eb042903          	lw	s2,-336(s0)
    2722:	8726                	mv	a4,s1
    2724:	84b6                	mv	s1,a3
    2726:	963a                	add	a2,a2,a4
    2728:	0785                	addi	a5,a5,1
    272a:	c0d8                	sw	a4,4(s1)
    272c:	f0c42c23          	sw	a2,-232(s0)
    2730:	f0f42a23          	sw	a5,-236(s0)
    2734:	01c4a023          	sw	t3,0(s1)
    2738:	471d                	li	a4,7
    273a:	00f74463          	blt	a4,a5,2742 <__stack_size+0x1f42>
    273e:	85afe06f          	j	798 <_vfprintf_r+0x270>
    2742:	b06fe06f          	j	a48 <__stack_size+0x248>
    2746:	fbbc8793          	addi	a5,s9,-69
    274a:	0017b793          	seqz	a5,a5
    274e:	97e2                	add	a5,a5,s8
    2750:	eaf42a23          	sw	a5,-332(s0)
    2754:	863e                	mv	a2,a5
    2756:	ef840713          	addi	a4,s0,-264
    275a:	efc40793          	addi	a5,s0,-260
    275e:	ef440693          	addi	a3,s0,-268
    2762:	4589                	li	a1,2
    2764:	8556                	mv	a0,s5
    2766:	e9042a23          	sw	a6,-364(s0)
    276a:	e9c42c23          	sw	t3,-360(s0)
    276e:	eb142823          	sw	a7,-336(s0)
    2772:	eca43027          	fsd	fa0,-320(s0)
    2776:	36d010ef          	jal	42e2 <_dtoa_r>
    277a:	04700713          	li	a4,71
    277e:	ec043507          	fld	fa0,-320(s0)
    2782:	eb042883          	lw	a7,-336(s0)
    2786:	e9842e03          	lw	t3,-360(s0)
    278a:	e9442803          	lw	a6,-364(s0)
    278e:	87aa                	mv	a5,a0
    2790:	a6ec88e3          	beq	s9,a4,2200 <__stack_size+0x1a00>
    2794:	d20007d3          	fcvt.d.w	fa5,zero
    2798:	a2f52753          	feq.d	a4,fa0,fa5
    279c:	48071063          	bnez	a4,2c1c <__stack_size+0x241c>
    27a0:	eb442683          	lw	a3,-332(s0)
    27a4:	efc42703          	lw	a4,-260(s0)
    27a8:	00d78633          	add	a2,a5,a3
    27ac:	98c763e3          	bltu	a4,a2,2132 <__stack_size+0x1932>
    27b0:	8f1d                	sub	a4,a4,a5
    27b2:	ef442f83          	lw	t6,-268(s0)
    27b6:	eae42a23          	sw	a4,-332(s0)
    27ba:	b4a5                	j	2222 <__stack_size+0x1a22>
    27bc:	4725                	li	a4,9
    27be:	b3d76163          	bltu	a4,t4,1ae0 <__stack_size+0x12e0>
    27c2:	d7aff06f          	j	1d3c <__stack_size+0x153c>
    27c6:	eda42423          	sw	s10,-312(s0)
    27ca:	14070463          	beqz	a4,2912 <__stack_size+0x2112>
    27ce:	001c0c93          	addi	s9,s8,1
    27d2:	8f62                	mv	t5,s8
    27d4:	ea042823          	sw	zero,-336(s0)
    27d8:	4c01                	li	s8,0
    27da:	ea042c23          	sw	zero,-328(s0)
    27de:	4f81                	li	t6,0
    27e0:	f29fd06f          	j	708 <_vfprintf_r+0x1e0>
    27e4:	8bce0e13          	addi	t3,t3,-1860
    27e8:	d1dfe06f          	j	1504 <__stack_size+0xd04>
    27ec:	eef44703          	lbu	a4,-273(s0)
    27f0:	9a0705e3          	beqz	a4,219a <__stack_size+0x199a>
    27f4:	0c85                	addi	s9,s9,1
    27f6:	b255                	j	219a <__stack_size+0x199a>
    27f8:	f1040613          	addi	a2,s0,-240
    27fc:	85d2                	mv	a1,s4
    27fe:	8556                	mv	a0,s5
    2800:	eb142c23          	sw	a7,-328(s0)
    2804:	2ba1                	jal	2d5c <__sprint_r>
    2806:	c119                	beqz	a0,280c <__stack_size+0x200c>
    2808:	83efe06f          	j	846 <__stack_size+0x46>
    280c:	ef442703          	lw	a4,-268(s0)
    2810:	eb442783          	lw	a5,-332(s0)
    2814:	f1842603          	lw	a2,-232(s0)
    2818:	eb842883          	lw	a7,-328(s0)
    281c:	84da                	mv	s1,s6
    281e:	40e78733          	sub	a4,a5,a4
    2822:	bd7fe06f          	j	13f8 <__stack_size+0xbf8>
    2826:	8e4a                	mv	t3,s2
    2828:	eb842883          	lw	a7,-328(s0)
    282c:	8962                	mv	s2,s8
    282e:	8c26                	mv	s8,s1
    2830:	84be                	mv	s1,a5
    2832:	eb042783          	lw	a5,-336(s0)
    2836:	9662                	add	a2,a2,s8
    2838:	0705                	addi	a4,a4,1
    283a:	f0c42c23          	sw	a2,-232(s0)
    283e:	f0e42a23          	sw	a4,-236(s0)
    2842:	01c4a023          	sw	t3,0(s1)
    2846:	0184a223          	sw	s8,4(s1)
    284a:	459d                	li	a1,7
    284c:	ece5d3e3          	bge	a1,a4,2712 <__stack_size+0x1f12>
    2850:	f1040613          	addi	a2,s0,-240
    2854:	85d2                	mv	a1,s4
    2856:	8556                	mv	a0,s5
    2858:	eaf42823          	sw	a5,-336(s0)
    285c:	eb142c23          	sw	a7,-328(s0)
    2860:	29f5                	jal	2d5c <__sprint_r>
    2862:	c119                	beqz	a0,2868 <__stack_size+0x2068>
    2864:	fe3fd06f          	j	846 <__stack_size+0x46>
    2868:	f1842603          	lw	a2,-232(s0)
    286c:	f1442703          	lw	a4,-236(s0)
    2870:	eb042783          	lw	a5,-336(s0)
    2874:	eb842883          	lw	a7,-328(s0)
    2878:	84da                	mv	s1,s6
    287a:	e09fe06f          	j	1682 <__stack_size+0xe82>
    287e:	836e                	mv	t1,s11
    2880:	e93fe06f          	j	1712 <__stack_size+0xf12>
    2884:	86ee                	mv	a3,s11
    2886:	e79fe06f          	j	16fe <__stack_size+0xefe>
    288a:	8bce0e13          	addi	t3,t3,-1860
    288e:	a3efe06f          	j	acc <__stack_size+0x2cc>
    2892:	836e                	mv	t1,s11
    2894:	e72fe06f          	j	f06 <__stack_size+0x706>
    2898:	67ad                	lui	a5,0xb
    289a:	cf078793          	addi	a5,a5,-784 # acf0 <zeroes.0+0x68>
    289e:	b46d                	j	2348 <__stack_size+0x1b48>
    28a0:	eb442703          	lw	a4,-332(s0)
    28a4:	ea442683          	lw	a3,-348(s0)
    28a8:	06700813          	li	a6,103
    28ac:	00d70f33          	add	t5,a4,a3
    28b0:	8df045e3          	bgtz	t6,217a <__stack_size+0x197a>
    28b4:	41ff0f33          	sub	t5,t5,t6
    28b8:	0f05                	addi	t5,t5,1
    28ba:	ffff4693          	not	a3,t5
    28be:	86fd                	srai	a3,a3,0x1f
    28c0:	00df7cb3          	and	s9,t5,a3
    28c4:	b0e1                	j	218c <__stack_size+0x198c>
    28c6:	d20007d3          	fcvt.d.w	fa5,zero
    28ca:	a2f52753          	feq.d	a4,fa0,fa5
    28ce:	ef01                	bnez	a4,28e6 <__stack_size+0x20e6>
    28d0:	eb442683          	lw	a3,-332(s0)
    28d4:	efc42703          	lw	a4,-260(s0)
    28d8:	00d78633          	add	a2,a5,a3
    28dc:	84c76be3          	bltu	a4,a2,2132 <__stack_size+0x1932>
    28e0:	8f1d                	sub	a4,a4,a5
    28e2:	eae42a23          	sw	a4,-332(s0)
    28e6:	ef442f83          	lw	t6,-268(s0)
    28ea:	b235                	j	2216 <__stack_size+0x1a16>
    28ec:	8cce0e13          	addi	t3,t3,-1844
    28f0:	93dfe06f          	j	122c <__stack_size+0xa2c>
    28f4:	eef44e83          	lbu	t4,-273(s0)
    28f8:	eb842c03          	lw	s8,-328(s0)
    28fc:	000e8463          	beqz	t4,2904 <__stack_size+0x2104>
    2900:	dd0fe06f          	j	ed0 <__stack_size+0x6d0>
    2904:	ab2fe06f          	j	bb6 <__stack_size+0x3b6>
    2908:	00ed7733          	and	a4,s10,a4
    290c:	9a070fe3          	beqz	a4,22ca <__stack_size+0x1aca>
    2910:	ba55                	j	22c4 <__stack_size+0x1ac4>
    2912:	8f62                	mv	t5,s8
    2914:	8ce2                	mv	s9,s8
    2916:	ea042823          	sw	zero,-336(s0)
    291a:	4c01                	li	s8,0
    291c:	ea042c23          	sw	zero,-328(s0)
    2920:	4f81                	li	t6,0
    2922:	de7fd06f          	j	708 <_vfprintf_r+0x1e0>
    2926:	ea843787          	fld	fa5,-344(s0)
    292a:	02d00e13          	li	t3,45
    292e:	ec042023          	sw	zero,-320(s0)
    2932:	22f79553          	fneg.d	fa0,fa5
    2936:	f5c40793          	addi	a5,s0,-164
    293a:	ea3fe06f          	j	17dc <__stack_size+0xfdc>
    293e:	40f60733          	sub	a4,a2,a5
    2942:	ef442f83          	lw	t6,-268(s0)
    2946:	eae42a23          	sw	a4,-332(s0)
    294a:	81bff06f          	j	2164 <__stack_size+0x1964>
    294e:	d20007d3          	fcvt.d.w	fa5,zero
    2952:	a2f52753          	feq.d	a4,fa0,fa5
    2956:	1a070c63          	beqz	a4,2b0e <__stack_size+0x230e>
    295a:	ef442f83          	lw	t6,-268(s0)
    295e:	967e                	add	a2,a2,t6
    2960:	40f60733          	sub	a4,a2,a5
    2964:	eae42a23          	sw	a4,-332(s0)
    2968:	ff4ff06f          	j	215c <__stack_size+0x195c>
    296c:	eac42783          	lw	a5,-340(s0)
    2970:	80000fb7          	lui	t6,0x80000
    2974:	f7fdfd93          	andi	s11,s11,-129
    2978:	00ffffb3          	and	t6,t6,a5
    297c:	140f8663          	beqz	t6,2ac8 <__stack_size+0x22c8>
    2980:	02d00793          	li	a5,45
    2984:	eef407a3          	sb	a5,-273(s0)
    2988:	04700793          	li	a5,71
    298c:	eb842c03          	lw	s8,-328(s0)
    2990:	2507da63          	bge	a5,a6,2be4 <__stack_size+0x23e4>
    2994:	67ad                	lui	a5,0xb
    2996:	eb842823          	sw	s8,-336(s0)
    299a:	8fe2                	mv	t6,s8
    299c:	cfc78793          	addi	a5,a5,-772 # acfc <zeroes.0+0x74>
    29a0:	ec042023          	sw	zero,-320(s0)
    29a4:	4f0d                	li	t5,3
    29a6:	4c91                	li	s9,4
    29a8:	d61fd06f          	j	708 <_vfprintf_r+0x1e0>
    29ac:	06700813          	li	a6,103
    29b0:	e9c42583          	lw	a1,-356(s0)
    29b4:	eb842603          	lw	a2,-328(s0)
    29b8:	0005c703          	lbu	a4,0(a1)
    29bc:	27f75a63          	bge	a4,t6,2c30 <__stack_size+0x2430>
    29c0:	f0170693          	addi	a3,a4,-255
    29c4:	26068663          	beqz	a3,2c30 <__stack_size+0x2430>
    29c8:	8532                	mv	a0,a2
    29ca:	86ae                	mv	a3,a1
    29cc:	a801                	j	29dc <__stack_size+0x21dc>
    29ce:	0605                	addi	a2,a2,1
    29d0:	0685                	addi	a3,a3,1
    29d2:	f0170593          	addi	a1,a4,-255
    29d6:	c58d                	beqz	a1,2a00 <__stack_size+0x2200>
    29d8:	03f75463          	bge	a4,t6,2a00 <__stack_size+0x2200>
    29dc:	40ef8fb3          	sub	t6,t6,a4
    29e0:	0016c703          	lbu	a4,1(a3)
    29e4:	f76d                	bnez	a4,29ce <__stack_size+0x21ce>
    29e6:	0006c703          	lbu	a4,0(a3)
    29ea:	0505                	addi	a0,a0,1
    29ec:	b7dd                	j	29d2 <__stack_size+0x21d2>
    29ee:	ea442703          	lw	a4,-348(s0)
    29f2:	01fc0f33          	add	t5,s8,t6
    29f6:	06600813          	li	a6,102
    29fa:	9f3a                	add	t5,t5,a4
    29fc:	f7eff06f          	j	217a <__stack_size+0x197a>
    2a00:	e8d42e23          	sw	a3,-356(s0)
    2a04:	e7c42683          	lw	a3,-388(s0)
    2a08:	00c50733          	add	a4,a0,a2
    2a0c:	eaa42823          	sw	a0,-336(s0)
    2a10:	02d70733          	mul	a4,a4,a3
    2a14:	9f3a                	add	t5,t5,a4
    2a16:	ffff4693          	not	a3,t5
    2a1a:	86fd                	srai	a3,a3,0x1f
    2a1c:	00df7cb3          	and	s9,t5,a3
    2a20:	0c0e0a63          	beqz	t3,2af4 <__stack_size+0x22f4>
    2a24:	02d00713          	li	a4,45
    2a28:	eb842c03          	lw	s8,-328(s0)
    2a2c:	0c85                	addi	s9,s9,1
    2a2e:	eac42c23          	sw	a2,-328(s0)
    2a32:	8dea                	mv	s11,s10
    2a34:	eee407a3          	sb	a4,-273(s0)
    2a38:	ec042023          	sw	zero,-320(s0)
    2a3c:	ccdfd06f          	j	708 <_vfprintf_r+0x1e0>
    2a40:	9c32                	add	s8,s8,a2
    2a42:	86b2                	mv	a3,a2
    2a44:	03000593          	li	a1,48
    2a48:	00075463          	bgez	a4,2a50 <__stack_size+0x2250>
    2a4c:	e7dfe06f          	j	18c8 <__stack_size+0x10c8>
    2a50:	0685                	addi	a3,a3,1
    2a52:	feb68fa3          	sb	a1,-1(a3)
    2a56:	ff869de3          	bne	a3,s8,2a50 <__stack_size+0x2250>
    2a5a:	9732                	add	a4,a4,a2
    2a5c:	00170613          	addi	a2,a4,1
    2a60:	e69fe06f          	j	18c8 <__stack_size+0x10c8>
    2a64:	02d00713          	li	a4,45
    2a68:	f0e400a3          	sb	a4,-255(s0)
    2a6c:	ffef8613          	addi	a2,t6,-2 # 7ffffffe <_eusrstack+0x5fff7ffe>
    2a70:	4705                	li	a4,1
    2a72:	56d9                	li	a3,-10
    2a74:	41f70733          	sub	a4,a4,t6
    2a78:	fcd64463          	blt	a2,a3,2240 <__stack_size+0x1a40>
    2a7c:	03000693          	li	a3,48
    2a80:	f0d40123          	sb	a3,-254(s0)
    2a84:	8d6e                	mv	s10,s11
    2a86:	ec042023          	sw	zero,-320(s0)
    2a8a:	f0340693          	addi	a3,s0,-253
    2a8e:	e6ffe06f          	j	18fc <__stack_size+0x10fc>
    2a92:	ea843787          	fld	fa5,-344(s0)
    2a96:	02d00e13          	li	t3,45
    2a9a:	4c19                	li	s8,6
    2a9c:	22f79553          	fneg.d	fa0,fa5
    2aa0:	e28ff06f          	j	20c8 <__stack_size+0x18c8>
    2aa4:	65ad                	lui	a1,0xb
    2aa6:	d0058593          	addi	a1,a1,-768 # ad00 <zeroes.0+0x78>
    2aaa:	d89fe06f          	j	1832 <__stack_size+0x1032>
    2aae:	02d00713          	li	a4,45
    2ab2:	f0e400a3          	sb	a4,-255(s0)
    2ab6:	4705                	li	a4,1
    2ab8:	ffe68613          	addi	a2,a3,-2
    2abc:	8f15                	sub	a4,a4,a3
    2abe:	56d9                	li	a3,-10
    2ac0:	f8d64363          	blt	a2,a3,2246 <__stack_size+0x1a46>
    2ac4:	e35fe06f          	j	18f8 <__stack_size+0x10f8>
    2ac8:	04700793          	li	a5,71
    2acc:	eef44703          	lbu	a4,-273(s0)
    2ad0:	1107d663          	bge	a5,a6,2bdc <__stack_size+0x23dc>
    2ad4:	67ad                	lui	a5,0xb
    2ad6:	cfc78793          	addi	a5,a5,-772 # acfc <zeroes.0+0x74>
    2ada:	12071663          	bnez	a4,2c06 <__stack_size+0x2406>
    2ade:	4f0d                	li	t5,3
    2ae0:	8cfa                	mv	s9,t5
    2ae2:	4c01                	li	s8,0
    2ae4:	ea042823          	sw	zero,-336(s0)
    2ae8:	ea042c23          	sw	zero,-328(s0)
    2aec:	ec042023          	sw	zero,-320(s0)
    2af0:	c19fd06f          	j	708 <_vfprintf_r+0x1e0>
    2af4:	eef44703          	lbu	a4,-273(s0)
    2af8:	eb842c03          	lw	s8,-328(s0)
    2afc:	c75d                	beqz	a4,2baa <__stack_size+0x23aa>
    2afe:	0c85                	addi	s9,s9,1
    2b00:	eac42c23          	sw	a2,-328(s0)
    2b04:	8dea                	mv	s11,s10
    2b06:	ec042023          	sw	zero,-320(s0)
    2b0a:	bfffd06f          	j	708 <_vfprintf_r+0x1e0>
    2b0e:	4705                	li	a4,1
    2b10:	41870733          	sub	a4,a4,s8
    2b14:	eee42a23          	sw	a4,-268(s0)
    2b18:	e04ff06f          	j	211c <__stack_size+0x191c>
    2b1c:	8cce0e13          	addi	t3,t3,-1844
    2b20:	af4ff06f          	j	1e14 <__stack_size+0x1614>
    2b24:	e30d                	bnez	a4,2b46 <__stack_size+0x2346>
    2b26:	4c85                	li	s9,1
    2b28:	8f66                	mv	t5,s9
    2b2a:	06600813          	li	a6,102
    2b2e:	e5eff06f          	j	218c <__stack_size+0x198c>
    2b32:	ea843787          	fld	fa5,-344(s0)
    2b36:	eca42023          	sw	a0,-320(s0)
    2b3a:	02d00e13          	li	t3,45
    2b3e:	22f79553          	fneg.d	fa0,fa5
    2b42:	c9bfe06f          	j	17dc <__stack_size+0xfdc>
    2b46:	ea442703          	lw	a4,-348(s0)
    2b4a:	06600813          	li	a6,102
    2b4e:	00170f13          	addi	t5,a4,1
    2b52:	9f62                	add	t5,t5,s8
    2b54:	ffff4693          	not	a3,t5
    2b58:	86fd                	srai	a3,a3,0x1f
    2b5a:	00df7cb3          	and	s9,t5,a3
    2b5e:	e2eff06f          	j	218c <__stack_size+0x198c>
    2b62:	064a2783          	lw	a5,100(s4)
    2b66:	8b85                	andi	a5,a5,1
    2b68:	c399                	beqz	a5,2b6e <__stack_size+0x236e>
    2b6a:	d7bfd06f          	j	8e4 <__stack_size+0xe4>
    2b6e:	d69fd06f          	j	8d6 <__stack_size+0xd6>
    2b72:	8b05                	andi	a4,a4,1
    2b74:	e319                	bnez	a4,2b7a <__stack_size+0x237a>
    2b76:	d61fd06f          	j	8d6 <__stack_size+0xd6>
    2b7a:	d6bfd06f          	j	8e4 <__stack_size+0xe4>
    2b7e:	ec842783          	lw	a5,-312(s0)
    2b82:	0007ac03          	lw	s8,0(a5)
    2b86:	0791                	addi	a5,a5,4
    2b88:	000c5363          	bgez	s8,2b8e <__stack_size+0x238e>
    2b8c:	5c7d                	li	s8,-1
    2b8e:	00194803          	lbu	a6,1(s2)
    2b92:	ecf42423          	sw	a5,-312(s0)
    2b96:	8936                	mv	s2,a3
    2b98:	b05fd06f          	j	69c <_vfprintf_r+0x174>
    2b9c:	8cce0e13          	addi	t3,t3,-1844
    2ba0:	ab8ff06f          	j	1e58 <__stack_size+0x1658>
    2ba4:	8cce0e13          	addi	t3,t3,-1844
    2ba8:	bebd                	j	2726 <__stack_size+0x1f26>
    2baa:	8dea                	mv	s11,s10
    2bac:	eac42c23          	sw	a2,-328(s0)
    2bb0:	ec042023          	sw	zero,-320(s0)
    2bb4:	b55fd06f          	j	708 <_vfprintf_r+0x1e0>
    2bb8:	058a2503          	lw	a0,88(s4)
    2bbc:	2a4010ef          	jal	3e60 <__retarget_lock_release_recursive>
    2bc0:	d25fd06f          	j	8e4 <__stack_size+0xe4>
    2bc4:	4709                	li	a4,2
    2bc6:	e8e42223          	sw	a4,-380(s0)
    2bca:	ee8ff06f          	j	22b2 <__stack_size+0x1ab2>
    2bce:	8cce0e13          	addi	t3,t3,-1844
    2bd2:	b195                	j	2836 <__stack_size+0x2036>
    2bd4:	8cce0e13          	addi	t3,t3,-1844
    2bd8:	fb4ff06f          	j	238c <__stack_size+0x1b8c>
    2bdc:	67ad                	lui	a5,0xb
    2bde:	cf878793          	addi	a5,a5,-776 # acf8 <zeroes.0+0x70>
    2be2:	bde5                	j	2ada <__stack_size+0x22da>
    2be4:	67ad                	lui	a5,0xb
    2be6:	eb842823          	sw	s8,-336(s0)
    2bea:	8fe2                	mv	t6,s8
    2bec:	cf878793          	addi	a5,a5,-776 # acf8 <zeroes.0+0x70>
    2bf0:	ec042023          	sw	zero,-320(s0)
    2bf4:	4f0d                	li	t5,3
    2bf6:	4c91                	li	s9,4
    2bf8:	b11fd06f          	j	708 <_vfprintf_r+0x1e0>
    2bfc:	eb442703          	lw	a4,-332(s0)
    2c00:	00e78f33          	add	t5,a5,a4
    2c04:	b0e9                	j	24ce <__stack_size+0x1cce>
    2c06:	4c01                	li	s8,0
    2c08:	ea042823          	sw	zero,-336(s0)
    2c0c:	ea042c23          	sw	zero,-328(s0)
    2c10:	ec042023          	sw	zero,-320(s0)
    2c14:	4f0d                	li	t5,3
    2c16:	4c91                	li	s9,4
    2c18:	af1fd06f          	j	708 <_vfprintf_r+0x1e0>
    2c1c:	ef442f83          	lw	t6,-268(s0)
    2c20:	e02ff06f          	j	2222 <__stack_size+0x1a22>
    2c24:	ea042823          	sw	zero,-336(s0)
    2c28:	ea042c23          	sw	zero,-328(s0)
    2c2c:	addfd06f          	j	708 <_vfprintf_r+0x1e0>
    2c30:	eac42823          	sw	a2,-336(s0)
    2c34:	4701                	li	a4,0
    2c36:	bbf9                	j	2a14 <__stack_size+0x2214>
    2c38:	8f1d                	sub	a4,a4,a5
    2c3a:	ef442f83          	lw	t6,-268(s0)
    2c3e:	eae42a23          	sw	a4,-332(s0)
    2c42:	d1aff06f          	j	215c <__stack_size+0x195c>
    2c46:	00ca5783          	lhu	a5,12(s4)
    2c4a:	0407e793          	ori	a5,a5,64
    2c4e:	00fa1623          	sh	a5,12(s4)
    2c52:	c01fd06f          	j	852 <__stack_size+0x52>

00002c56 <vfprintf>:
    2c56:	1141                	addi	sp,sp,-16
    2c58:	c422                	sw	s0,8(sp)
    2c5a:	c606                	sw	ra,12(sp)
    2c5c:	0800                	addi	s0,sp,16
    2c5e:	200007b7          	lui	a5,0x20000
    2c62:	4422                	lw	s0,8(sp)
    2c64:	40b2                	lw	ra,12(sp)
    2c66:	872a                	mv	a4,a0
    2c68:	6c87a503          	lw	a0,1736(a5) # 200006c8 <_impure_ptr>
    2c6c:	86b2                	mv	a3,a2
    2c6e:	862e                	mv	a2,a1
    2c70:	0141                	addi	sp,sp,16
    2c72:	85ba                	mv	a1,a4
    2c74:	8b5fd06f          	j	528 <_vfprintf_r>

00002c78 <__sbprintf>:
    2c78:	b6010113          	addi	sp,sp,-1184
    2c7c:	48112e23          	sw	ra,1180(sp)
    2c80:	48812c23          	sw	s0,1176(sp)
    2c84:	48912a23          	sw	s1,1172(sp)
    2c88:	4a010413          	addi	s0,sp,1184
    2c8c:	49212823          	sw	s2,1168(sp)
    2c90:	49312623          	sw	s3,1164(sp)
    2c94:	00c5d783          	lhu	a5,12(a1)
    2c98:	0645ae03          	lw	t3,100(a1)
    2c9c:	00e5d303          	lhu	t1,14(a1)
    2ca0:	01c5a883          	lw	a7,28(a1)
    2ca4:	0245a803          	lw	a6,36(a1)
    2ca8:	40000713          	li	a4,1024
    2cac:	9bf5                	andi	a5,a5,-3
    2cae:	89aa                	mv	s3,a0
    2cb0:	84ae                	mv	s1,a1
    2cb2:	bd040513          	addi	a0,s0,-1072
    2cb6:	be040593          	addi	a1,s0,-1056
    2cba:	8932                	mv	s2,a2
    2cbc:	b6d42623          	sw	a3,-1172(s0)
    2cc0:	b8f41223          	sh	a5,-1148(s0)
    2cc4:	bdc42e23          	sw	t3,-1060(s0)
    2cc8:	b8641323          	sh	t1,-1146(s0)
    2ccc:	b9142a23          	sw	a7,-1132(s0)
    2cd0:	b9042e23          	sw	a6,-1124(s0)
    2cd4:	b6b42c23          	sw	a1,-1160(s0)
    2cd8:	b8b42423          	sw	a1,-1144(s0)
    2cdc:	b8e42023          	sw	a4,-1152(s0)
    2ce0:	b8e42623          	sw	a4,-1140(s0)
    2ce4:	b8042823          	sw	zero,-1136(s0)
    2ce8:	0f4010ef          	jal	3ddc <__retarget_lock_init_recursive>
    2cec:	b6c42683          	lw	a3,-1172(s0)
    2cf0:	864a                	mv	a2,s2
    2cf2:	b7840593          	addi	a1,s0,-1160
    2cf6:	854e                	mv	a0,s3
    2cf8:	831fd0ef          	jal	528 <_vfprintf_r>
    2cfc:	892a                	mv	s2,a0
    2cfe:	04055863          	bgez	a0,2d4e <__sbprintf+0xd6>
    2d02:	b8445783          	lhu	a5,-1148(s0)
    2d06:	0407f793          	andi	a5,a5,64
    2d0a:	c799                	beqz	a5,2d18 <__sbprintf+0xa0>
    2d0c:	00c4d783          	lhu	a5,12(s1)
    2d10:	0407e793          	ori	a5,a5,64
    2d14:	00f49623          	sh	a5,12(s1)
    2d18:	bd042503          	lw	a0,-1072(s0)
    2d1c:	0e0010ef          	jal	3dfc <__retarget_lock_close_recursive>
    2d20:	49c12083          	lw	ra,1180(sp)
    2d24:	49812403          	lw	s0,1176(sp)
    2d28:	49412483          	lw	s1,1172(sp)
    2d2c:	48c12983          	lw	s3,1164(sp)
    2d30:	854a                	mv	a0,s2
    2d32:	49012903          	lw	s2,1168(sp)
    2d36:	4a010113          	addi	sp,sp,1184
    2d3a:	4301                	li	t1,0
    2d3c:	4581                	li	a1,0
    2d3e:	4601                	li	a2,0
    2d40:	4681                	li	a3,0
    2d42:	4701                	li	a4,0
    2d44:	4781                	li	a5,0
    2d46:	4801                	li	a6,0
    2d48:	4881                	li	a7,0
    2d4a:	4e01                	li	t3,0
    2d4c:	8082                	ret
    2d4e:	b7840593          	addi	a1,s0,-1160
    2d52:	854e                	mv	a0,s3
    2d54:	2421                	jal	2f5c <_fflush_r>
    2d56:	d555                	beqz	a0,2d02 <__sbprintf+0x8a>
    2d58:	597d                	li	s2,-1
    2d5a:	b765                	j	2d02 <__sbprintf+0x8a>

00002d5c <__sprint_r>:
    2d5c:	4618                	lw	a4,8(a2)
    2d5e:	eb09                	bnez	a4,2d70 <__sprint_r+0x14>
    2d60:	4501                	li	a0,0
    2d62:	00062223          	sw	zero,4(a2)
    2d66:	4581                	li	a1,0
    2d68:	4601                	li	a2,0
    2d6a:	4701                	li	a4,0
    2d6c:	4781                	li	a5,0
    2d6e:	8082                	ret
    2d70:	1101                	addi	sp,sp,-32
    2d72:	cc22                	sw	s0,24(sp)
    2d74:	ce06                	sw	ra,28(sp)
    2d76:	1000                	addi	s0,sp,32
    2d78:	fec42623          	sw	a2,-20(s0)
    2d7c:	732000ef          	jal	34ae <__sfvwrite_r>
    2d80:	fec42783          	lw	a5,-20(s0)
    2d84:	40f2                	lw	ra,28(sp)
    2d86:	4462                	lw	s0,24(sp)
    2d88:	0007a423          	sw	zero,8(a5)
    2d8c:	0007a223          	sw	zero,4(a5)
    2d90:	6105                	addi	sp,sp,32
    2d92:	4581                	li	a1,0
    2d94:	4601                	li	a2,0
    2d96:	4701                	li	a4,0
    2d98:	4781                	li	a5,0
    2d9a:	8082                	ret

00002d9c <__sflush_r>:
    2d9c:	1101                	addi	sp,sp,-32
    2d9e:	cc22                	sw	s0,24(sp)
    2da0:	ca26                	sw	s1,20(sp)
    2da2:	c452                	sw	s4,8(sp)
    2da4:	ce06                	sw	ra,28(sp)
    2da6:	1000                	addi	s0,sp,32
    2da8:	00c59703          	lh	a4,12(a1)
    2dac:	84ae                	mv	s1,a1
    2dae:	8a2a                	mv	s4,a0
    2db0:	00877793          	andi	a5,a4,8
    2db4:	eff1                	bnez	a5,2e90 <__sflush_r+0xf4>
    2db6:	6785                	lui	a5,0x1
    2db8:	80078793          	addi	a5,a5,-2048 # 800 <__stack_size>
    2dbc:	41d4                	lw	a3,4(a1)
    2dbe:	8fd9                	or	a5,a5,a4
    2dc0:	00f59623          	sh	a5,12(a1)
    2dc4:	12d05c63          	blez	a3,2efc <__sflush_r+0x160>
    2dc8:	0284a803          	lw	a6,40(s1)
    2dcc:	0a080563          	beqz	a6,2e76 <__sflush_r+0xda>
    2dd0:	c84a                	sw	s2,16(sp)
    2dd2:	01371693          	slli	a3,a4,0x13
    2dd6:	000a2903          	lw	s2,0(s4)
    2dda:	000a2023          	sw	zero,0(s4)
    2dde:	1206c663          	bltz	a3,2f0a <__sflush_r+0x16e>
    2de2:	4ccc                	lw	a1,28(s1)
    2de4:	4601                	li	a2,0
    2de6:	4685                	li	a3,1
    2de8:	8552                	mv	a0,s4
    2dea:	9802                	jalr	a6
    2dec:	57fd                	li	a5,-1
    2dee:	862a                	mv	a2,a0
    2df0:	14f50463          	beq	a0,a5,2f38 <__sflush_r+0x19c>
    2df4:	00c49783          	lh	a5,12(s1)
    2df8:	0284a803          	lw	a6,40(s1)
    2dfc:	8b91                	andi	a5,a5,4
    2dfe:	c799                	beqz	a5,2e0c <__sflush_r+0x70>
    2e00:	40d8                	lw	a4,4(s1)
    2e02:	589c                	lw	a5,48(s1)
    2e04:	8e19                	sub	a2,a2,a4
    2e06:	c399                	beqz	a5,2e0c <__sflush_r+0x70>
    2e08:	5cdc                	lw	a5,60(s1)
    2e0a:	8e1d                	sub	a2,a2,a5
    2e0c:	4ccc                	lw	a1,28(s1)
    2e0e:	4681                	li	a3,0
    2e10:	8552                	mv	a0,s4
    2e12:	9802                	jalr	a6
    2e14:	577d                	li	a4,-1
    2e16:	00c49783          	lh	a5,12(s1)
    2e1a:	0ee51a63          	bne	a0,a4,2f0e <__sflush_r+0x172>
    2e1e:	000a2683          	lw	a3,0(s4)
    2e22:	4775                	li	a4,29
    2e24:	12d76563          	bltu	a4,a3,2f4e <__sflush_r+0x1b2>
    2e28:	20400737          	lui	a4,0x20400
    2e2c:	0705                	addi	a4,a4,1 # 20400001 <_eusrstack+0x3f8001>
    2e2e:	00d75733          	srl	a4,a4,a3
    2e32:	8b05                	andi	a4,a4,1
    2e34:	10070d63          	beqz	a4,2f4e <__sflush_r+0x1b2>
    2e38:	4894                	lw	a3,16(s1)
    2e3a:	777d                	lui	a4,0xfffff
    2e3c:	7ff70713          	addi	a4,a4,2047 # fffff7ff <_eusrstack+0xdfff77ff>
    2e40:	8f7d                	and	a4,a4,a5
    2e42:	00e49623          	sh	a4,12(s1)
    2e46:	0004a223          	sw	zero,4(s1)
    2e4a:	c094                	sw	a3,0(s1)
    2e4c:	01379713          	slli	a4,a5,0x13
    2e50:	00075563          	bgez	a4,2e5a <__sflush_r+0xbe>
    2e54:	000a2783          	lw	a5,0(s4)
    2e58:	cbe9                	beqz	a5,2f2a <__sflush_r+0x18e>
    2e5a:	588c                	lw	a1,48(s1)
    2e5c:	012a2023          	sw	s2,0(s4)
    2e60:	c9f1                	beqz	a1,2f34 <__sflush_r+0x198>
    2e62:	04048793          	addi	a5,s1,64
    2e66:	00f58563          	beq	a1,a5,2e70 <__sflush_r+0xd4>
    2e6a:	8552                	mv	a0,s4
    2e6c:	426020ef          	jal	5292 <_free_r>
    2e70:	4942                	lw	s2,16(sp)
    2e72:	0204a823          	sw	zero,48(s1)
    2e76:	40f2                	lw	ra,28(sp)
    2e78:	4462                	lw	s0,24(sp)
    2e7a:	44d2                	lw	s1,20(sp)
    2e7c:	4a22                	lw	s4,8(sp)
    2e7e:	4501                	li	a0,0
    2e80:	6105                	addi	sp,sp,32
    2e82:	4581                	li	a1,0
    2e84:	4601                	li	a2,0
    2e86:	4681                	li	a3,0
    2e88:	4701                	li	a4,0
    2e8a:	4781                	li	a5,0
    2e8c:	4801                	li	a6,0
    2e8e:	8082                	ret
    2e90:	c64e                	sw	s3,12(sp)
    2e92:	0105a983          	lw	s3,16(a1)
    2e96:	06098863          	beqz	s3,2f06 <__sflush_r+0x16a>
    2e9a:	c84a                	sw	s2,16(sp)
    2e9c:	0005a903          	lw	s2,0(a1)
    2ea0:	8b0d                	andi	a4,a4,3
    2ea2:	0135a023          	sw	s3,0(a1)
    2ea6:	41390933          	sub	s2,s2,s3
    2eaa:	4781                	li	a5,0
    2eac:	e311                	bnez	a4,2eb0 <__sflush_r+0x114>
    2eae:	49dc                	lw	a5,20(a1)
    2eb0:	c49c                	sw	a5,8(s1)
    2eb2:	01204663          	bgtz	s2,2ebe <__sflush_r+0x122>
    2eb6:	a0b9                	j	2f04 <__sflush_r+0x168>
    2eb8:	99aa                	add	s3,s3,a0
    2eba:	05205563          	blez	s2,2f04 <__sflush_r+0x168>
    2ebe:	50dc                	lw	a5,36(s1)
    2ec0:	4ccc                	lw	a1,28(s1)
    2ec2:	86ca                	mv	a3,s2
    2ec4:	864e                	mv	a2,s3
    2ec6:	8552                	mv	a0,s4
    2ec8:	9782                	jalr	a5
    2eca:	40a90933          	sub	s2,s2,a0
    2ece:	fea045e3          	bgtz	a0,2eb8 <__sflush_r+0x11c>
    2ed2:	00c4d783          	lhu	a5,12(s1)
    2ed6:	49b2                	lw	s3,12(sp)
    2ed8:	0407e793          	ori	a5,a5,64
    2edc:	40f2                	lw	ra,28(sp)
    2ede:	4462                	lw	s0,24(sp)
    2ee0:	00f49623          	sh	a5,12(s1)
    2ee4:	4942                	lw	s2,16(sp)
    2ee6:	44d2                	lw	s1,20(sp)
    2ee8:	4a22                	lw	s4,8(sp)
    2eea:	557d                	li	a0,-1
    2eec:	6105                	addi	sp,sp,32
    2eee:	4581                	li	a1,0
    2ef0:	4601                	li	a2,0
    2ef2:	4681                	li	a3,0
    2ef4:	4701                	li	a4,0
    2ef6:	4781                	li	a5,0
    2ef8:	4801                	li	a6,0
    2efa:	8082                	ret
    2efc:	5dd4                	lw	a3,60(a1)
    2efe:	ecd045e3          	bgtz	a3,2dc8 <__sflush_r+0x2c>
    2f02:	bf95                	j	2e76 <__sflush_r+0xda>
    2f04:	4942                	lw	s2,16(sp)
    2f06:	49b2                	lw	s3,12(sp)
    2f08:	b7bd                	j	2e76 <__sflush_r+0xda>
    2f0a:	48b0                	lw	a2,80(s1)
    2f0c:	bdc5                	j	2dfc <__sflush_r+0x60>
    2f0e:	4894                	lw	a3,16(s1)
    2f10:	777d                	lui	a4,0xfffff
    2f12:	7ff70713          	addi	a4,a4,2047 # fffff7ff <_eusrstack+0xdfff77ff>
    2f16:	8f7d                	and	a4,a4,a5
    2f18:	00e49623          	sh	a4,12(s1)
    2f1c:	0004a223          	sw	zero,4(s1)
    2f20:	c094                	sw	a3,0(s1)
    2f22:	01379713          	slli	a4,a5,0x13
    2f26:	f2075ae3          	bgez	a4,2e5a <__sflush_r+0xbe>
    2f2a:	588c                	lw	a1,48(s1)
    2f2c:	c8a8                	sw	a0,80(s1)
    2f2e:	012a2023          	sw	s2,0(s4)
    2f32:	f985                	bnez	a1,2e62 <__sflush_r+0xc6>
    2f34:	4942                	lw	s2,16(sp)
    2f36:	b781                	j	2e76 <__sflush_r+0xda>
    2f38:	000a2783          	lw	a5,0(s4)
    2f3c:	ea078ce3          	beqz	a5,2df4 <__sflush_r+0x58>
    2f40:	fe378713          	addi	a4,a5,-29
    2f44:	cb01                	beqz	a4,2f54 <__sflush_r+0x1b8>
    2f46:	17a9                	addi	a5,a5,-22
    2f48:	c791                	beqz	a5,2f54 <__sflush_r+0x1b8>
    2f4a:	00c4d783          	lhu	a5,12(s1)
    2f4e:	0407e793          	ori	a5,a5,64
    2f52:	b769                	j	2edc <__sflush_r+0x140>
    2f54:	012a2023          	sw	s2,0(s4)
    2f58:	4942                	lw	s2,16(sp)
    2f5a:	bf31                	j	2e76 <__sflush_r+0xda>

00002f5c <_fflush_r>:
    2f5c:	1101                	addi	sp,sp,-32
    2f5e:	cc22                	sw	s0,24(sp)
    2f60:	ce06                	sw	ra,28(sp)
    2f62:	1000                	addi	s0,sp,32
    2f64:	872a                	mv	a4,a0
    2f66:	c119                	beqz	a0,2f6c <_fflush_r+0x10>
    2f68:	595c                	lw	a5,52(a0)
    2f6a:	cfbd                	beqz	a5,2fe8 <_fflush_r+0x8c>
    2f6c:	00c59683          	lh	a3,12(a1)
    2f70:	4781                	li	a5,0
    2f72:	c695                	beqz	a3,2f9e <_fflush_r+0x42>
    2f74:	51fc                	lw	a5,100(a1)
    2f76:	8b85                	andi	a5,a5,1
    2f78:	e781                	bnez	a5,2f80 <_fflush_r+0x24>
    2f7a:	2006f693          	andi	a3,a3,512
    2f7e:	ca8d                	beqz	a3,2fb0 <_fflush_r+0x54>
    2f80:	853a                	mv	a0,a4
    2f82:	feb42623          	sw	a1,-20(s0)
    2f86:	3d19                	jal	2d9c <__sflush_r>
    2f88:	fec42583          	lw	a1,-20(s0)
    2f8c:	87aa                	mv	a5,a0
    2f8e:	51f8                	lw	a4,100(a1)
    2f90:	8b05                	andi	a4,a4,1
    2f92:	e711                	bnez	a4,2f9e <_fflush_r+0x42>
    2f94:	00c5d703          	lhu	a4,12(a1)
    2f98:	20077713          	andi	a4,a4,512
    2f9c:	c715                	beqz	a4,2fc8 <_fflush_r+0x6c>
    2f9e:	40f2                	lw	ra,28(sp)
    2fa0:	4462                	lw	s0,24(sp)
    2fa2:	853e                	mv	a0,a5
    2fa4:	6105                	addi	sp,sp,32
    2fa6:	4581                	li	a1,0
    2fa8:	4681                	li	a3,0
    2faa:	4701                	li	a4,0
    2fac:	4781                	li	a5,0
    2fae:	8082                	ret
    2fb0:	4da8                	lw	a0,88(a1)
    2fb2:	fee42423          	sw	a4,-24(s0)
    2fb6:	feb42623          	sw	a1,-20(s0)
    2fba:	663000ef          	jal	3e1c <__retarget_lock_acquire_recursive>
    2fbe:	fe842703          	lw	a4,-24(s0)
    2fc2:	fec42583          	lw	a1,-20(s0)
    2fc6:	bf6d                	j	2f80 <_fflush_r+0x24>
    2fc8:	fea42623          	sw	a0,-20(s0)
    2fcc:	4da8                	lw	a0,88(a1)
    2fce:	693000ef          	jal	3e60 <__retarget_lock_release_recursive>
    2fd2:	fec42783          	lw	a5,-20(s0)
    2fd6:	40f2                	lw	ra,28(sp)
    2fd8:	4462                	lw	s0,24(sp)
    2fda:	853e                	mv	a0,a5
    2fdc:	6105                	addi	sp,sp,32
    2fde:	4581                	li	a1,0
    2fe0:	4681                	li	a3,0
    2fe2:	4701                	li	a4,0
    2fe4:	4781                	li	a5,0
    2fe6:	8082                	ret
    2fe8:	feb42423          	sw	a1,-24(s0)
    2fec:	fea42623          	sw	a0,-20(s0)
    2ff0:	2ec5                	jal	33e0 <__sinit>
    2ff2:	fe842583          	lw	a1,-24(s0)
    2ff6:	fec42703          	lw	a4,-20(s0)
    2ffa:	bf8d                	j	2f6c <_fflush_r+0x10>

00002ffc <fflush>:
    2ffc:	cd59                	beqz	a0,309a <fflush+0x9e>
    2ffe:	1101                	addi	sp,sp,-32
    3000:	cc22                	sw	s0,24(sp)
    3002:	ce06                	sw	ra,28(sp)
    3004:	1000                	addi	s0,sp,32
    3006:	200007b7          	lui	a5,0x20000
    300a:	6c87a703          	lw	a4,1736(a5) # 200006c8 <_impure_ptr>
    300e:	85aa                	mv	a1,a0
    3010:	c319                	beqz	a4,3016 <fflush+0x1a>
    3012:	5b5c                	lw	a5,52(a4)
    3014:	c7a1                	beqz	a5,305c <fflush+0x60>
    3016:	00c59683          	lh	a3,12(a1)
    301a:	4781                	li	a5,0
    301c:	c695                	beqz	a3,3048 <fflush+0x4c>
    301e:	51fc                	lw	a5,100(a1)
    3020:	8b85                	andi	a5,a5,1
    3022:	e781                	bnez	a5,302a <fflush+0x2e>
    3024:	2006f693          	andi	a3,a3,512
    3028:	c6a9                	beqz	a3,3072 <fflush+0x76>
    302a:	853a                	mv	a0,a4
    302c:	feb42623          	sw	a1,-20(s0)
    3030:	33b5                	jal	2d9c <__sflush_r>
    3032:	fec42583          	lw	a1,-20(s0)
    3036:	87aa                	mv	a5,a0
    3038:	51f8                	lw	a4,100(a1)
    303a:	8b05                	andi	a4,a4,1
    303c:	e711                	bnez	a4,3048 <fflush+0x4c>
    303e:	00c5d703          	lhu	a4,12(a1)
    3042:	20077713          	andi	a4,a4,512
    3046:	c331                	beqz	a4,308a <fflush+0x8e>
    3048:	40f2                	lw	ra,28(sp)
    304a:	4462                	lw	s0,24(sp)
    304c:	853e                	mv	a0,a5
    304e:	6105                	addi	sp,sp,32
    3050:	4581                	li	a1,0
    3052:	4601                	li	a2,0
    3054:	4681                	li	a3,0
    3056:	4701                	li	a4,0
    3058:	4781                	li	a5,0
    305a:	8082                	ret
    305c:	fea42423          	sw	a0,-24(s0)
    3060:	853a                	mv	a0,a4
    3062:	fee42623          	sw	a4,-20(s0)
    3066:	2ead                	jal	33e0 <__sinit>
    3068:	fe842583          	lw	a1,-24(s0)
    306c:	fec42703          	lw	a4,-20(s0)
    3070:	b75d                	j	3016 <fflush+0x1a>
    3072:	4da8                	lw	a0,88(a1)
    3074:	fee42423          	sw	a4,-24(s0)
    3078:	feb42623          	sw	a1,-20(s0)
    307c:	5a1000ef          	jal	3e1c <__retarget_lock_acquire_recursive>
    3080:	fe842703          	lw	a4,-24(s0)
    3084:	fec42583          	lw	a1,-20(s0)
    3088:	b74d                	j	302a <fflush+0x2e>
    308a:	fea42623          	sw	a0,-20(s0)
    308e:	4da8                	lw	a0,88(a1)
    3090:	5d1000ef          	jal	3e60 <__retarget_lock_release_recursive>
    3094:	fec42783          	lw	a5,-20(s0)
    3098:	bf45                	j	3048 <fflush+0x4c>
    309a:	20000637          	lui	a2,0x20000
    309e:	658d                	lui	a1,0x3
    30a0:	20000537          	lui	a0,0x20000
    30a4:	14060613          	addi	a2,a2,320 # 20000140 <__sglue>
    30a8:	f5c58593          	addi	a1,a1,-164 # 2f5c <_fflush_r>
    30ac:	00050513          	mv	a0,a0
    30b0:	7520006f          	j	3802 <_fwalk_sglue>

000030b4 <stdio_exit_handler>:
    30b4:	1141                	addi	sp,sp,-16
    30b6:	c422                	sw	s0,8(sp)
    30b8:	c606                	sw	ra,12(sp)
    30ba:	0800                	addi	s0,sp,16
    30bc:	4422                	lw	s0,8(sp)
    30be:	40b2                	lw	ra,12(sp)
    30c0:	20000637          	lui	a2,0x20000
    30c4:	659d                	lui	a1,0x7
    30c6:	20000537          	lui	a0,0x20000
    30ca:	14060613          	addi	a2,a2,320 # 20000140 <__sglue>
    30ce:	04e58593          	addi	a1,a1,78 # 704e <_fclose_r>
    30d2:	00050513          	mv	a0,a0
    30d6:	0141                	addi	sp,sp,16
    30d8:	72a0006f          	j	3802 <_fwalk_sglue>

000030dc <cleanup_stdio>:
    30dc:	1141                	addi	sp,sp,-16
    30de:	c422                	sw	s0,8(sp)
    30e0:	c226                	sw	s1,4(sp)
    30e2:	c04a                	sw	s2,0(sp)
    30e4:	c606                	sw	ra,12(sp)
    30e6:	0800                	addi	s0,sp,16
    30e8:	414c                	lw	a1,4(a0)
    30ea:	e5018493          	addi	s1,gp,-432 # 20000d10 <__sf>
    30ee:	892a                	mv	s2,a0
    30f0:	00958463          	beq	a1,s1,30f8 <cleanup_stdio+0x1c>
    30f4:	75b030ef          	jal	704e <_fclose_r>
    30f8:	00892583          	lw	a1,8(s2)
    30fc:	06848793          	addi	a5,s1,104
    3100:	00f58563          	beq	a1,a5,310a <cleanup_stdio+0x2e>
    3104:	854a                	mv	a0,s2
    3106:	749030ef          	jal	704e <_fclose_r>
    310a:	00c92583          	lw	a1,12(s2)
    310e:	0d048493          	addi	s1,s1,208
    3112:	00958a63          	beq	a1,s1,3126 <cleanup_stdio+0x4a>
    3116:	4422                	lw	s0,8(sp)
    3118:	40b2                	lw	ra,12(sp)
    311a:	4492                	lw	s1,4(sp)
    311c:	854a                	mv	a0,s2
    311e:	4902                	lw	s2,0(sp)
    3120:	0141                	addi	sp,sp,16
    3122:	72d0306f          	j	704e <_fclose_r>
    3126:	40b2                	lw	ra,12(sp)
    3128:	4422                	lw	s0,8(sp)
    312a:	4492                	lw	s1,4(sp)
    312c:	4902                	lw	s2,0(sp)
    312e:	0141                	addi	sp,sp,16
    3130:	4501                	li	a0,0
    3132:	4581                	li	a1,0
    3134:	4781                	li	a5,0
    3136:	8082                	ret

00003138 <__fp_lock>:
    3138:	51fc                	lw	a5,100(a1)
    313a:	8b85                	andi	a5,a5,1
    313c:	e791                	bnez	a5,3148 <__fp_lock+0x10>
    313e:	00c5d783          	lhu	a5,12(a1)
    3142:	2007f793          	andi	a5,a5,512
    3146:	c789                	beqz	a5,3150 <__fp_lock+0x18>
    3148:	4501                	li	a0,0
    314a:	4581                	li	a1,0
    314c:	4781                	li	a5,0
    314e:	8082                	ret
    3150:	1141                	addi	sp,sp,-16
    3152:	c422                	sw	s0,8(sp)
    3154:	c606                	sw	ra,12(sp)
    3156:	0800                	addi	s0,sp,16
    3158:	4da8                	lw	a0,88(a1)
    315a:	4c3000ef          	jal	3e1c <__retarget_lock_acquire_recursive>
    315e:	40b2                	lw	ra,12(sp)
    3160:	4422                	lw	s0,8(sp)
    3162:	4501                	li	a0,0
    3164:	0141                	addi	sp,sp,16
    3166:	4581                	li	a1,0
    3168:	4781                	li	a5,0
    316a:	8082                	ret

0000316c <__fp_unlock>:
    316c:	51fc                	lw	a5,100(a1)
    316e:	8b85                	andi	a5,a5,1
    3170:	e791                	bnez	a5,317c <__fp_unlock+0x10>
    3172:	00c5d783          	lhu	a5,12(a1)
    3176:	2007f793          	andi	a5,a5,512
    317a:	c789                	beqz	a5,3184 <__fp_unlock+0x18>
    317c:	4501                	li	a0,0
    317e:	4581                	li	a1,0
    3180:	4781                	li	a5,0
    3182:	8082                	ret
    3184:	1141                	addi	sp,sp,-16
    3186:	c422                	sw	s0,8(sp)
    3188:	c606                	sw	ra,12(sp)
    318a:	0800                	addi	s0,sp,16
    318c:	4da8                	lw	a0,88(a1)
    318e:	4d3000ef          	jal	3e60 <__retarget_lock_release_recursive>
    3192:	40b2                	lw	ra,12(sp)
    3194:	4422                	lw	s0,8(sp)
    3196:	4501                	li	a0,0
    3198:	0141                	addi	sp,sp,16
    319a:	4581                	li	a1,0
    319c:	4781                	li	a5,0
    319e:	8082                	ret

000031a0 <global_stdio_init.part.0>:
    31a0:	1101                	addi	sp,sp,-32
    31a2:	ce06                	sw	ra,28(sp)
    31a4:	cc22                	sw	s0,24(sp)
    31a6:	ca26                	sw	s1,20(sp)
    31a8:	c84a                	sw	s2,16(sp)
    31aa:	c64e                	sw	s3,12(sp)
    31ac:	c452                	sw	s4,8(sp)
    31ae:	c256                	sw	s5,4(sp)
    31b0:	1000                	addi	s0,sp,32
    31b2:	e5018493          	addi	s1,gp,-432 # 20000d10 <__sf>
    31b6:	4711                	li	a4,4
    31b8:	678d                	lui	a5,0x3
    31ba:	0b478793          	addi	a5,a5,180 # 30b4 <stdio_exit_handler>
    31be:	c4d8                	sw	a4,12(s1)
    31c0:	4621                	li	a2,8
    31c2:	4581                	li	a1,0
    31c4:	05c48513          	addi	a0,s1,92
    31c8:	88f1a623          	sw	a5,-1908(gp) # 2000074c <__stdio_exit_handler>
    31cc:	0004a023          	sw	zero,0(s1)
    31d0:	0004a223          	sw	zero,4(s1)
    31d4:	0004a423          	sw	zero,8(s1)
    31d8:	0604a223          	sw	zero,100(s1)
    31dc:	0004a823          	sw	zero,16(s1)
    31e0:	0004aa23          	sw	zero,20(s1)
    31e4:	0004ac23          	sw	zero,24(s1)
    31e8:	6a91                	lui	s5,0x4
    31ea:	597000ef          	jal	3f80 <memset>
    31ee:	6a11                	lui	s4,0x4
    31f0:	6991                	lui	s3,0x4
    31f2:	6911                	lui	s2,0x4
    31f4:	880a8a93          	addi	s5,s5,-1920 # 3880 <__sread>
    31f8:	8e4a0a13          	addi	s4,s4,-1820 # 38e4 <__swrite>
    31fc:	94a98993          	addi	s3,s3,-1718 # 394a <__sseek>
    3200:	9a690913          	addi	s2,s2,-1626 # 39a6 <__sclose>
    3204:	05848513          	addi	a0,s1,88
    3208:	0354a023          	sw	s5,32(s1)
    320c:	0344a223          	sw	s4,36(s1)
    3210:	0334a423          	sw	s3,40(s1)
    3214:	0324a623          	sw	s2,44(s1)
    3218:	ccc4                	sw	s1,28(s1)
    321a:	3c3000ef          	jal	3ddc <__retarget_lock_init_recursive>
    321e:	67c1                	lui	a5,0x10
    3220:	07a5                	addi	a5,a5,9 # 10009 <_data_lma+0x4ff5>
    3222:	4621                	li	a2,8
    3224:	4581                	li	a1,0
    3226:	0c448513          	addi	a0,s1,196
    322a:	d8fc                	sw	a5,116(s1)
    322c:	0604a423          	sw	zero,104(s1)
    3230:	0604a623          	sw	zero,108(s1)
    3234:	0604a823          	sw	zero,112(s1)
    3238:	0c04a623          	sw	zero,204(s1)
    323c:	0604ac23          	sw	zero,120(s1)
    3240:	0604ae23          	sw	zero,124(s1)
    3244:	0804a023          	sw	zero,128(s1)
    3248:	539000ef          	jal	3f80 <memset>
    324c:	06848793          	addi	a5,s1,104
    3250:	0c048513          	addi	a0,s1,192
    3254:	08f4a223          	sw	a5,132(s1)
    3258:	0954a423          	sw	s5,136(s1)
    325c:	0944a623          	sw	s4,140(s1)
    3260:	0934a823          	sw	s3,144(s1)
    3264:	0924aa23          	sw	s2,148(s1)
    3268:	375000ef          	jal	3ddc <__retarget_lock_init_recursive>
    326c:	000207b7          	lui	a5,0x20
    3270:	07c9                	addi	a5,a5,18 # 20012 <_data_lma+0x14ffe>
    3272:	12c48513          	addi	a0,s1,300
    3276:	4621                	li	a2,8
    3278:	4581                	li	a1,0
    327a:	0cf4ae23          	sw	a5,220(s1)
    327e:	0c04a823          	sw	zero,208(s1)
    3282:	0c04aa23          	sw	zero,212(s1)
    3286:	0c04ac23          	sw	zero,216(s1)
    328a:	1204aa23          	sw	zero,308(s1)
    328e:	0e04a023          	sw	zero,224(s1)
    3292:	0e04a223          	sw	zero,228(s1)
    3296:	0e04a423          	sw	zero,232(s1)
    329a:	4e7000ef          	jal	3f80 <memset>
    329e:	0d048793          	addi	a5,s1,208
    32a2:	4462                	lw	s0,24(sp)
    32a4:	0f54a823          	sw	s5,240(s1)
    32a8:	0f44aa23          	sw	s4,244(s1)
    32ac:	0f34ac23          	sw	s3,248(s1)
    32b0:	0f24ae23          	sw	s2,252(s1)
    32b4:	40f2                	lw	ra,28(sp)
    32b6:	4942                	lw	s2,16(sp)
    32b8:	49b2                	lw	s3,12(sp)
    32ba:	4a22                	lw	s4,8(sp)
    32bc:	4a92                	lw	s5,4(sp)
    32be:	0ef4a623          	sw	a5,236(s1)
    32c2:	12848513          	addi	a0,s1,296
    32c6:	44d2                	lw	s1,20(sp)
    32c8:	6105                	addi	sp,sp,32
    32ca:	3130006f          	j	3ddc <__retarget_lock_init_recursive>

000032ce <__sfp>:
    32ce:	7179                	addi	sp,sp,-48
    32d0:	d04a                	sw	s2,32(sp)
    32d2:	d422                	sw	s0,40(sp)
    32d4:	ce4e                	sw	s3,28(sp)
    32d6:	d606                	sw	ra,44(sp)
    32d8:	d226                	sw	s1,36(sp)
    32da:	1800                	addi	s0,sp,48
    32dc:	89aa                	mv	s3,a0
    32de:	8b018513          	addi	a0,gp,-1872 # 20000770 <__lock___sfp_recursive_mutex>
    32e2:	33b000ef          	jal	3e1c <__retarget_lock_acquire_recursive>
    32e6:	88c1a783          	lw	a5,-1908(gp) # 2000074c <__stdio_exit_handler>
    32ea:	cff9                	beqz	a5,33c8 <__sfp+0xfa>
    32ec:	20000837          	lui	a6,0x20000
    32f0:	14080813          	addi	a6,a6,320 # 20000140 <__sglue>
    32f4:	56fd                	li	a3,-1
    32f6:	00482783          	lw	a5,4(a6)
    32fa:	17fd                	addi	a5,a5,-1
    32fc:	0807c263          	bltz	a5,3380 <__sfp+0xb2>
    3300:	00882483          	lw	s1,8(a6)
    3304:	a029                	j	330e <__sfp+0x40>
    3306:	06848493          	addi	s1,s1,104
    330a:	06d78b63          	beq	a5,a3,3380 <__sfp+0xb2>
    330e:	00c49703          	lh	a4,12(s1)
    3312:	17fd                	addi	a5,a5,-1
    3314:	fb6d                	bnez	a4,3306 <__sfp+0x38>
    3316:	77c1                	lui	a5,0xffff0
    3318:	0785                	addi	a5,a5,1 # ffff0001 <_eusrstack+0xdffe8001>
    331a:	c4dc                	sw	a5,12(s1)
    331c:	05848513          	addi	a0,s1,88
    3320:	0604a223          	sw	zero,100(s1)
    3324:	2b9000ef          	jal	3ddc <__retarget_lock_init_recursive>
    3328:	8b018513          	addi	a0,gp,-1872 # 20000770 <__lock___sfp_recursive_mutex>
    332c:	335000ef          	jal	3e60 <__retarget_lock_release_recursive>
    3330:	05c48513          	addi	a0,s1,92
    3334:	0004a023          	sw	zero,0(s1)
    3338:	0004a423          	sw	zero,8(s1)
    333c:	0004a223          	sw	zero,4(s1)
    3340:	0004a823          	sw	zero,16(s1)
    3344:	0004aa23          	sw	zero,20(s1)
    3348:	0004ac23          	sw	zero,24(s1)
    334c:	4621                	li	a2,8
    334e:	4581                	li	a1,0
    3350:	431000ef          	jal	3f80 <memset>
    3354:	0204a823          	sw	zero,48(s1)
    3358:	0204aa23          	sw	zero,52(s1)
    335c:	0404a223          	sw	zero,68(s1)
    3360:	0404a423          	sw	zero,72(s1)
    3364:	50b2                	lw	ra,44(sp)
    3366:	5422                	lw	s0,40(sp)
    3368:	5902                	lw	s2,32(sp)
    336a:	49f2                	lw	s3,28(sp)
    336c:	8526                	mv	a0,s1
    336e:	5492                	lw	s1,36(sp)
    3370:	6145                	addi	sp,sp,48
    3372:	4581                	li	a1,0
    3374:	4601                	li	a2,0
    3376:	4681                	li	a3,0
    3378:	4701                	li	a4,0
    337a:	4781                	li	a5,0
    337c:	4801                	li	a6,0
    337e:	8082                	ret
    3380:	00082483          	lw	s1,0(a6)
    3384:	c099                	beqz	s1,338a <__sfp+0xbc>
    3386:	8826                	mv	a6,s1
    3388:	b7bd                	j	32f6 <__sfp+0x28>
    338a:	1ac00593          	li	a1,428
    338e:	854e                	mv	a0,s3
    3390:	fd042e23          	sw	a6,-36(s0)
    3394:	13e020ef          	jal	54d2 <_malloc_r>
    3398:	fdc42803          	lw	a6,-36(s0)
    339c:	84aa                	mv	s1,a0
    339e:	c51d                	beqz	a0,33cc <__sfp+0xfe>
    33a0:	4791                	li	a5,4
    33a2:	c15c                	sw	a5,4(a0)
    33a4:	0531                	addi	a0,a0,12 # 2000000c <_impure_data+0xc>
    33a6:	0004a023          	sw	zero,0(s1)
    33aa:	c488                	sw	a0,8(s1)
    33ac:	1a000613          	li	a2,416
    33b0:	4581                	li	a1,0
    33b2:	fd042e23          	sw	a6,-36(s0)
    33b6:	3cb000ef          	jal	3f80 <memset>
    33ba:	fdc42803          	lw	a6,-36(s0)
    33be:	56fd                	li	a3,-1
    33c0:	00982023          	sw	s1,0(a6)
    33c4:	8826                	mv	a6,s1
    33c6:	bf05                	j	32f6 <__sfp+0x28>
    33c8:	3be1                	jal	31a0 <global_stdio_init.part.0>
    33ca:	b70d                	j	32ec <__sfp+0x1e>
    33cc:	00082023          	sw	zero,0(a6)
    33d0:	8b018513          	addi	a0,gp,-1872 # 20000770 <__lock___sfp_recursive_mutex>
    33d4:	28d000ef          	jal	3e60 <__retarget_lock_release_recursive>
    33d8:	47b1                	li	a5,12
    33da:	00f9a023          	sw	a5,0(s3)
    33de:	b759                	j	3364 <__sfp+0x96>

000033e0 <__sinit>:
    33e0:	1141                	addi	sp,sp,-16
    33e2:	c226                	sw	s1,4(sp)
    33e4:	c422                	sw	s0,8(sp)
    33e6:	c04a                	sw	s2,0(sp)
    33e8:	c606                	sw	ra,12(sp)
    33ea:	0800                	addi	s0,sp,16
    33ec:	892a                	mv	s2,a0
    33ee:	8b018513          	addi	a0,gp,-1872 # 20000770 <__lock___sfp_recursive_mutex>
    33f2:	22b000ef          	jal	3e1c <__retarget_lock_acquire_recursive>
    33f6:	03492783          	lw	a5,52(s2)
    33fa:	eb89                	bnez	a5,340c <__sinit+0x2c>
    33fc:	678d                	lui	a5,0x3
    33fe:	88c1a703          	lw	a4,-1908(gp) # 2000074c <__stdio_exit_handler>
    3402:	0dc78793          	addi	a5,a5,220 # 30dc <cleanup_stdio>
    3406:	02f92a23          	sw	a5,52(s2)
    340a:	cb11                	beqz	a4,341e <__sinit+0x3e>
    340c:	4422                	lw	s0,8(sp)
    340e:	40b2                	lw	ra,12(sp)
    3410:	4902                	lw	s2,0(sp)
    3412:	8b018513          	addi	a0,gp,-1872 # 20000770 <__lock___sfp_recursive_mutex>
    3416:	4492                	lw	s1,4(sp)
    3418:	0141                	addi	sp,sp,16
    341a:	2470006f          	j	3e60 <__retarget_lock_release_recursive>
    341e:	3349                	jal	31a0 <global_stdio_init.part.0>
    3420:	4422                	lw	s0,8(sp)
    3422:	40b2                	lw	ra,12(sp)
    3424:	4902                	lw	s2,0(sp)
    3426:	8b018513          	addi	a0,gp,-1872 # 20000770 <__lock___sfp_recursive_mutex>
    342a:	4492                	lw	s1,4(sp)
    342c:	0141                	addi	sp,sp,16
    342e:	2330006f          	j	3e60 <__retarget_lock_release_recursive>

00003432 <__sfp_lock_acquire>:
    3432:	1141                	addi	sp,sp,-16
    3434:	c422                	sw	s0,8(sp)
    3436:	c606                	sw	ra,12(sp)
    3438:	0800                	addi	s0,sp,16
    343a:	4422                	lw	s0,8(sp)
    343c:	40b2                	lw	ra,12(sp)
    343e:	8b018513          	addi	a0,gp,-1872 # 20000770 <__lock___sfp_recursive_mutex>
    3442:	0141                	addi	sp,sp,16
    3444:	1d90006f          	j	3e1c <__retarget_lock_acquire_recursive>

00003448 <__sfp_lock_release>:
    3448:	1141                	addi	sp,sp,-16
    344a:	c422                	sw	s0,8(sp)
    344c:	c606                	sw	ra,12(sp)
    344e:	0800                	addi	s0,sp,16
    3450:	4422                	lw	s0,8(sp)
    3452:	40b2                	lw	ra,12(sp)
    3454:	8b018513          	addi	a0,gp,-1872 # 20000770 <__lock___sfp_recursive_mutex>
    3458:	0141                	addi	sp,sp,16
    345a:	2070006f          	j	3e60 <__retarget_lock_release_recursive>

0000345e <__fp_lock_all>:
    345e:	1141                	addi	sp,sp,-16
    3460:	c422                	sw	s0,8(sp)
    3462:	c606                	sw	ra,12(sp)
    3464:	0800                	addi	s0,sp,16
    3466:	8b018513          	addi	a0,gp,-1872 # 20000770 <__lock___sfp_recursive_mutex>
    346a:	1b3000ef          	jal	3e1c <__retarget_lock_acquire_recursive>
    346e:	4422                	lw	s0,8(sp)
    3470:	40b2                	lw	ra,12(sp)
    3472:	20000637          	lui	a2,0x20000
    3476:	658d                	lui	a1,0x3
    3478:	14060613          	addi	a2,a2,320 # 20000140 <__sglue>
    347c:	13858593          	addi	a1,a1,312 # 3138 <__fp_lock>
    3480:	4501                	li	a0,0
    3482:	0141                	addi	sp,sp,16
    3484:	aebd                	j	3802 <_fwalk_sglue>

00003486 <__fp_unlock_all>:
    3486:	1141                	addi	sp,sp,-16
    3488:	20000637          	lui	a2,0x20000
    348c:	658d                	lui	a1,0x3
    348e:	c422                	sw	s0,8(sp)
    3490:	c606                	sw	ra,12(sp)
    3492:	0800                	addi	s0,sp,16
    3494:	14060613          	addi	a2,a2,320 # 20000140 <__sglue>
    3498:	16c58593          	addi	a1,a1,364 # 316c <__fp_unlock>
    349c:	4501                	li	a0,0
    349e:	2695                	jal	3802 <_fwalk_sglue>
    34a0:	4422                	lw	s0,8(sp)
    34a2:	40b2                	lw	ra,12(sp)
    34a4:	8b018513          	addi	a0,gp,-1872 # 20000770 <__lock___sfp_recursive_mutex>
    34a8:	0141                	addi	sp,sp,16
    34aa:	1b70006f          	j	3e60 <__retarget_lock_release_recursive>

000034ae <__sfvwrite_r>:
    34ae:	461c                	lw	a5,8(a2)
    34b0:	1a078163          	beqz	a5,3652 <__sfvwrite_r+0x1a4>
    34b4:	7139                	addi	sp,sp,-64
    34b6:	dc22                	sw	s0,56(sp)
    34b8:	da26                	sw	s1,52(sp)
    34ba:	d256                	sw	s5,36(sp)
    34bc:	d05a                	sw	s6,32(sp)
    34be:	de06                	sw	ra,60(sp)
    34c0:	0080                	addi	s0,sp,64
    34c2:	00c59683          	lh	a3,12(a1)
    34c6:	84ae                	mv	s1,a1
    34c8:	8aaa                	mv	s5,a0
    34ca:	0086f793          	andi	a5,a3,8
    34ce:	8b32                	mv	s6,a2
    34d0:	cfa5                	beqz	a5,3548 <__sfvwrite_r+0x9a>
    34d2:	499c                	lw	a5,16(a1)
    34d4:	cbb5                	beqz	a5,3548 <__sfvwrite_r+0x9a>
    34d6:	d84a                	sw	s2,48(sp)
    34d8:	d64e                	sw	s3,44(sp)
    34da:	d452                	sw	s4,40(sp)
    34dc:	ce5e                	sw	s7,28(sp)
    34de:	0026f793          	andi	a5,a3,2
    34e2:	000b2903          	lw	s2,0(s6)
    34e6:	c3c9                	beqz	a5,3568 <__sfvwrite_r+0xba>
    34e8:	80000bb7          	lui	s7,0x80000
    34ec:	c00b8b93          	addi	s7,s7,-1024 # 7ffffc00 <_eusrstack+0x5fff7c00>
    34f0:	4a01                	li	s4,0
    34f2:	4981                	li	s3,0
    34f4:	8652                	mv	a2,s4
    34f6:	8556                	mv	a0,s5
    34f8:	14098763          	beqz	s3,3646 <__sfvwrite_r+0x198>
    34fc:	86ce                	mv	a3,s3
    34fe:	013bf663          	bgeu	s7,s3,350a <__sfvwrite_r+0x5c>
    3502:	800006b7          	lui	a3,0x80000
    3506:	c0068693          	addi	a3,a3,-1024 # 7ffffc00 <_eusrstack+0x5fff7c00>
    350a:	50dc                	lw	a5,36(s1)
    350c:	4ccc                	lw	a1,28(s1)
    350e:	9782                	jalr	a5
    3510:	2ca05e63          	blez	a0,37ec <__sfvwrite_r+0x33e>
    3514:	008b2783          	lw	a5,8(s6)
    3518:	9a2a                	add	s4,s4,a0
    351a:	40a989b3          	sub	s3,s3,a0
    351e:	8f89                	sub	a5,a5,a0
    3520:	00fb2423          	sw	a5,8(s6)
    3524:	fbe1                	bnez	a5,34f4 <__sfvwrite_r+0x46>
    3526:	5942                	lw	s2,48(sp)
    3528:	59b2                	lw	s3,44(sp)
    352a:	5a22                	lw	s4,40(sp)
    352c:	4bf2                	lw	s7,28(sp)
    352e:	4501                	li	a0,0
    3530:	50f2                	lw	ra,60(sp)
    3532:	5462                	lw	s0,56(sp)
    3534:	54d2                	lw	s1,52(sp)
    3536:	5a92                	lw	s5,36(sp)
    3538:	5b02                	lw	s6,32(sp)
    353a:	6121                	addi	sp,sp,64
    353c:	4581                	li	a1,0
    353e:	4601                	li	a2,0
    3540:	4681                	li	a3,0
    3542:	4701                	li	a4,0
    3544:	4781                	li	a5,0
    3546:	8082                	ret
    3548:	85a6                	mv	a1,s1
    354a:	8556                	mv	a0,s5
    354c:	21bd                	jal	39ba <__swsetup_r>
    354e:	1c051463          	bnez	a0,3716 <__sfvwrite_r+0x268>
    3552:	00c49683          	lh	a3,12(s1)
    3556:	d84a                	sw	s2,48(sp)
    3558:	d64e                	sw	s3,44(sp)
    355a:	d452                	sw	s4,40(sp)
    355c:	ce5e                	sw	s7,28(sp)
    355e:	0026f793          	andi	a5,a3,2
    3562:	000b2903          	lw	s2,0(s6)
    3566:	f3c9                	bnez	a5,34e8 <__sfvwrite_r+0x3a>
    3568:	cc62                	sw	s8,24(sp)
    356a:	ca66                	sw	s9,20(sp)
    356c:	0016f793          	andi	a5,a3,1
    3570:	ebe5                	bnez	a5,3660 <__sfvwrite_r+0x1b2>
    3572:	409c                	lw	a5,0(s1)
    3574:	80000737          	lui	a4,0x80000
    3578:	fff70c93          	addi	s9,a4,-1 # 7fffffff <_eusrstack+0x5fff7fff>
    357c:	4b81                	li	s7,0
    357e:	4a01                	li	s4,0
    3580:	0a0a0d63          	beqz	s4,363a <__sfvwrite_r+0x18c>
    3584:	2006f713          	andi	a4,a3,512
    3588:	0084a983          	lw	s3,8(s1)
    358c:	853e                	mv	a0,a5
    358e:	18070663          	beqz	a4,371a <__sfvwrite_r+0x26c>
    3592:	8c4e                	mv	s8,s3
    3594:	1f3a6b63          	bltu	s4,s3,378a <__sfvwrite_r+0x2dc>
    3598:	4806f713          	andi	a4,a3,1152
    359c:	cb35                	beqz	a4,3610 <__sfvwrite_r+0x162>
    359e:	48d0                	lw	a2,20(s1)
    35a0:	488c                	lw	a1,16(s1)
    35a2:	00161713          	slli	a4,a2,0x1
    35a6:	9732                	add	a4,a4,a2
    35a8:	01f75993          	srli	s3,a4,0x1f
    35ac:	40b78c33          	sub	s8,a5,a1
    35b0:	99ba                	add	s3,s3,a4
    35b2:	001c0793          	addi	a5,s8,1
    35b6:	4019d993          	srai	s3,s3,0x1
    35ba:	97d2                	add	a5,a5,s4
    35bc:	864e                	mv	a2,s3
    35be:	00f9f463          	bgeu	s3,a5,35c6 <__sfvwrite_r+0x118>
    35c2:	89be                	mv	s3,a5
    35c4:	863e                	mv	a2,a5
    35c6:	4006f693          	andi	a3,a3,1024
    35ca:	1e068663          	beqz	a3,37b6 <__sfvwrite_r+0x308>
    35ce:	85b2                	mv	a1,a2
    35d0:	8556                	mv	a0,s5
    35d2:	701010ef          	jal	54d2 <_malloc_r>
    35d6:	20050e63          	beqz	a0,37f2 <__sfvwrite_r+0x344>
    35da:	488c                	lw	a1,16(s1)
    35dc:	8662                	mv	a2,s8
    35de:	fca42623          	sw	a0,-52(s0)
    35e2:	d71fc0ef          	jal	352 <memcpy>
    35e6:	00c4d783          	lhu	a5,12(s1)
    35ea:	fcc42703          	lw	a4,-52(s0)
    35ee:	b7f7f793          	andi	a5,a5,-1153
    35f2:	0807e793          	ori	a5,a5,128
    35f6:	00f49623          	sh	a5,12(s1)
    35fa:	418987b3          	sub	a5,s3,s8
    35fe:	01870533          	add	a0,a4,s8
    3602:	0134aa23          	sw	s3,20(s1)
    3606:	c898                	sw	a4,16(s1)
    3608:	c088                	sw	a0,0(s1)
    360a:	c49c                	sw	a5,8(s1)
    360c:	89d2                	mv	s3,s4
    360e:	8c52                	mv	s8,s4
    3610:	85de                	mv	a1,s7
    3612:	8662                	mv	a2,s8
    3614:	05d000ef          	jal	3e70 <memmove>
    3618:	4498                	lw	a4,8(s1)
    361a:	409c                	lw	a5,0(s1)
    361c:	41370733          	sub	a4,a4,s3
    3620:	c498                	sw	a4,8(s1)
    3622:	008b2703          	lw	a4,8(s6)
    3626:	97e2                	add	a5,a5,s8
    3628:	c09c                	sw	a5,0(s1)
    362a:	41470733          	sub	a4,a4,s4
    362e:	00eb2423          	sw	a4,8(s6)
    3632:	1a070a63          	beqz	a4,37e6 <__sfvwrite_r+0x338>
    3636:	00c49683          	lh	a3,12(s1)
    363a:	00092b83          	lw	s7,0(s2)
    363e:	00492a03          	lw	s4,4(s2)
    3642:	0921                	addi	s2,s2,8
    3644:	bf35                	j	3580 <__sfvwrite_r+0xd2>
    3646:	00092a03          	lw	s4,0(s2)
    364a:	00492983          	lw	s3,4(s2)
    364e:	0921                	addi	s2,s2,8
    3650:	b555                	j	34f4 <__sfvwrite_r+0x46>
    3652:	4501                	li	a0,0
    3654:	4581                	li	a1,0
    3656:	4601                	li	a2,0
    3658:	4681                	li	a3,0
    365a:	4701                	li	a4,0
    365c:	4781                	li	a5,0
    365e:	8082                	ret
    3660:	4b81                	li	s7,0
    3662:	4c01                	li	s8,0
    3664:	4501                	li	a0,0
    3666:	4c81                	li	s9,0
    3668:	040b8e63          	beqz	s7,36c4 <__sfvwrite_r+0x216>
    366c:	c525                	beqz	a0,36d4 <__sfvwrite_r+0x226>
    366e:	87e2                	mv	a5,s8
    3670:	8a5e                	mv	s4,s7
    3672:	0177f363          	bgeu	a5,s7,3678 <__sfvwrite_r+0x1ca>
    3676:	8a3e                	mv	s4,a5
    3678:	48d4                	lw	a3,20(s1)
    367a:	0084a983          	lw	s3,8(s1)
    367e:	4088                	lw	a0,0(s1)
    3680:	489c                	lw	a5,16(s1)
    3682:	99b6                	add	s3,s3,a3
    3684:	00a7f463          	bgeu	a5,a0,368c <__sfvwrite_r+0x1de>
    3688:	0749c063          	blt	s3,s4,36e8 <__sfvwrite_r+0x23a>
    368c:	10da4963          	blt	s4,a3,379e <__sfvwrite_r+0x2f0>
    3690:	50dc                	lw	a5,36(s1)
    3692:	4ccc                	lw	a1,28(s1)
    3694:	8666                	mv	a2,s9
    3696:	8556                	mv	a0,s5
    3698:	9782                	jalr	a5
    369a:	89aa                	mv	s3,a0
    369c:	06a05163          	blez	a0,36fe <__sfvwrite_r+0x250>
    36a0:	413c0c33          	sub	s8,s8,s3
    36a4:	4505                	li	a0,1
    36a6:	0e0c0563          	beqz	s8,3790 <__sfvwrite_r+0x2e2>
    36aa:	008b2783          	lw	a5,8(s6)
    36ae:	413787b3          	sub	a5,a5,s3
    36b2:	00fb2423          	sw	a5,8(s6)
    36b6:	12078863          	beqz	a5,37e6 <__sfvwrite_r+0x338>
    36ba:	413b8bb3          	sub	s7,s7,s3
    36be:	9cce                	add	s9,s9,s3
    36c0:	fa0b96e3          	bnez	s7,366c <__sfvwrite_r+0x1be>
    36c4:	00492b83          	lw	s7,4(s2)
    36c8:	87ca                	mv	a5,s2
    36ca:	0921                	addi	s2,s2,8
    36cc:	fe0b8ce3          	beqz	s7,36c4 <__sfvwrite_r+0x216>
    36d0:	0007ac83          	lw	s9,0(a5)
    36d4:	865e                	mv	a2,s7
    36d6:	45a9                	li	a1,10
    36d8:	8566                	mv	a0,s9
    36da:	2ee5                	jal	3ad2 <memchr>
    36dc:	10050163          	beqz	a0,37de <__sfvwrite_r+0x330>
    36e0:	0505                	addi	a0,a0,1
    36e2:	41950c33          	sub	s8,a0,s9
    36e6:	b761                	j	366e <__sfvwrite_r+0x1c0>
    36e8:	85e6                	mv	a1,s9
    36ea:	864e                	mv	a2,s3
    36ec:	2751                	jal	3e70 <memmove>
    36ee:	409c                	lw	a5,0(s1)
    36f0:	85a6                	mv	a1,s1
    36f2:	8556                	mv	a0,s5
    36f4:	97ce                	add	a5,a5,s3
    36f6:	c09c                	sw	a5,0(s1)
    36f8:	865ff0ef          	jal	2f5c <_fflush_r>
    36fc:	d155                	beqz	a0,36a0 <__sfvwrite_r+0x1f2>
    36fe:	00c49783          	lh	a5,12(s1)
    3702:	4c62                	lw	s8,24(sp)
    3704:	4cd2                	lw	s9,20(sp)
    3706:	5942                	lw	s2,48(sp)
    3708:	59b2                	lw	s3,44(sp)
    370a:	5a22                	lw	s4,40(sp)
    370c:	4bf2                	lw	s7,28(sp)
    370e:	0407e793          	ori	a5,a5,64
    3712:	00f49623          	sh	a5,12(s1)
    3716:	557d                	li	a0,-1
    3718:	bd21                	j	3530 <__sfvwrite_r+0x82>
    371a:	4898                	lw	a4,16(s1)
    371c:	04f76263          	bltu	a4,a5,3760 <__sfvwrite_r+0x2b2>
    3720:	48d8                	lw	a4,20(s1)
    3722:	02ea6f63          	bltu	s4,a4,3760 <__sfvwrite_r+0x2b2>
    3726:	86d2                	mv	a3,s4
    3728:	014cf363          	bgeu	s9,s4,372e <__sfvwrite_r+0x280>
    372c:	86e6                	mv	a3,s9
    372e:	02e6e733          	rem	a4,a3,a4
    3732:	50dc                	lw	a5,36(s1)
    3734:	4ccc                	lw	a1,28(s1)
    3736:	865e                	mv	a2,s7
    3738:	8556                	mv	a0,s5
    373a:	8e99                	sub	a3,a3,a4
    373c:	9782                	jalr	a5
    373e:	fca050e3          	blez	a0,36fe <__sfvwrite_r+0x250>
    3742:	89aa                	mv	s3,a0
    3744:	008b2783          	lw	a5,8(s6)
    3748:	413a0a33          	sub	s4,s4,s3
    374c:	413787b3          	sub	a5,a5,s3
    3750:	00fb2423          	sw	a5,8(s6)
    3754:	cbc9                	beqz	a5,37e6 <__sfvwrite_r+0x338>
    3756:	00c49683          	lh	a3,12(s1)
    375a:	409c                	lw	a5,0(s1)
    375c:	9bce                	add	s7,s7,s3
    375e:	b50d                	j	3580 <__sfvwrite_r+0xd2>
    3760:	013a7363          	bgeu	s4,s3,3766 <__sfvwrite_r+0x2b8>
    3764:	89d2                	mv	s3,s4
    3766:	853e                	mv	a0,a5
    3768:	864e                	mv	a2,s3
    376a:	85de                	mv	a1,s7
    376c:	2711                	jal	3e70 <memmove>
    376e:	409c                	lw	a5,0(s1)
    3770:	4498                	lw	a4,8(s1)
    3772:	97ce                	add	a5,a5,s3
    3774:	41370733          	sub	a4,a4,s3
    3778:	c09c                	sw	a5,0(s1)
    377a:	c498                	sw	a4,8(s1)
    377c:	f761                	bnez	a4,3744 <__sfvwrite_r+0x296>
    377e:	85a6                	mv	a1,s1
    3780:	8556                	mv	a0,s5
    3782:	fdaff0ef          	jal	2f5c <_fflush_r>
    3786:	dd5d                	beqz	a0,3744 <__sfvwrite_r+0x296>
    3788:	bf9d                	j	36fe <__sfvwrite_r+0x250>
    378a:	89d2                	mv	s3,s4
    378c:	8c52                	mv	s8,s4
    378e:	b549                	j	3610 <__sfvwrite_r+0x162>
    3790:	85a6                	mv	a1,s1
    3792:	8556                	mv	a0,s5
    3794:	fc8ff0ef          	jal	2f5c <_fflush_r>
    3798:	f00509e3          	beqz	a0,36aa <__sfvwrite_r+0x1fc>
    379c:	b78d                	j	36fe <__sfvwrite_r+0x250>
    379e:	8652                	mv	a2,s4
    37a0:	85e6                	mv	a1,s9
    37a2:	25f9                	jal	3e70 <memmove>
    37a4:	4498                	lw	a4,8(s1)
    37a6:	409c                	lw	a5,0(s1)
    37a8:	89d2                	mv	s3,s4
    37aa:	41470733          	sub	a4,a4,s4
    37ae:	97d2                	add	a5,a5,s4
    37b0:	c498                	sw	a4,8(s1)
    37b2:	c09c                	sw	a5,0(s1)
    37b4:	b5f5                	j	36a0 <__sfvwrite_r+0x1f2>
    37b6:	8556                	mv	a0,s5
    37b8:	3ac030ef          	jal	6b64 <_realloc_r>
    37bc:	872a                	mv	a4,a0
    37be:	e2051ee3          	bnez	a0,35fa <__sfvwrite_r+0x14c>
    37c2:	488c                	lw	a1,16(s1)
    37c4:	8556                	mv	a0,s5
    37c6:	2cd010ef          	jal	5292 <_free_r>
    37ca:	00c4d783          	lhu	a5,12(s1)
    37ce:	4731                	li	a4,12
    37d0:	4c62                	lw	s8,24(sp)
    37d2:	4cd2                	lw	s9,20(sp)
    37d4:	00eaa023          	sw	a4,0(s5)
    37d8:	f7f7f793          	andi	a5,a5,-129
    37dc:	b72d                	j	3706 <__sfvwrite_r+0x258>
    37de:	001b8793          	addi	a5,s7,1
    37e2:	8c3e                	mv	s8,a5
    37e4:	b571                	j	3670 <__sfvwrite_r+0x1c2>
    37e6:	4c62                	lw	s8,24(sp)
    37e8:	4cd2                	lw	s9,20(sp)
    37ea:	bb35                	j	3526 <__sfvwrite_r+0x78>
    37ec:	00c49783          	lh	a5,12(s1)
    37f0:	bf19                	j	3706 <__sfvwrite_r+0x258>
    37f2:	47b1                	li	a5,12
    37f4:	00faa023          	sw	a5,0(s5)
    37f8:	4c62                	lw	s8,24(sp)
    37fa:	00c49783          	lh	a5,12(s1)
    37fe:	4cd2                	lw	s9,20(sp)
    3800:	b719                	j	3706 <__sfvwrite_r+0x258>

00003802 <_fwalk_sglue>:
    3802:	7179                	addi	sp,sp,-48
    3804:	d422                	sw	s0,40(sp)
    3806:	ce4e                	sw	s3,28(sp)
    3808:	cc52                	sw	s4,24(sp)
    380a:	ca56                	sw	s5,20(sp)
    380c:	c85a                	sw	s6,16(sp)
    380e:	c65e                	sw	s7,12(sp)
    3810:	c462                	sw	s8,8(sp)
    3812:	d606                	sw	ra,44(sp)
    3814:	d226                	sw	s1,36(sp)
    3816:	d04a                	sw	s2,32(sp)
    3818:	1800                	addi	s0,sp,48
    381a:	8b32                	mv	s6,a2
    381c:	8baa                	mv	s7,a0
    381e:	8c2e                	mv	s8,a1
    3820:	4a81                	li	s5,0
    3822:	4a05                	li	s4,1
    3824:	59fd                	li	s3,-1
    3826:	004b2903          	lw	s2,4(s6)
    382a:	197d                	addi	s2,s2,-1
    382c:	02094663          	bltz	s2,3858 <_fwalk_sglue+0x56>
    3830:	008b2483          	lw	s1,8(s6)
    3834:	00c4d783          	lhu	a5,12(s1)
    3838:	00fa7b63          	bgeu	s4,a5,384e <_fwalk_sglue+0x4c>
    383c:	00e49783          	lh	a5,14(s1)
    3840:	85a6                	mv	a1,s1
    3842:	855e                	mv	a0,s7
    3844:	01378563          	beq	a5,s3,384e <_fwalk_sglue+0x4c>
    3848:	9c02                	jalr	s8
    384a:	00aaeab3          	or	s5,s5,a0
    384e:	197d                	addi	s2,s2,-1
    3850:	06848493          	addi	s1,s1,104
    3854:	ff3910e3          	bne	s2,s3,3834 <_fwalk_sglue+0x32>
    3858:	000b2b03          	lw	s6,0(s6)
    385c:	fc0b15e3          	bnez	s6,3826 <_fwalk_sglue+0x24>
    3860:	50b2                	lw	ra,44(sp)
    3862:	5422                	lw	s0,40(sp)
    3864:	5492                	lw	s1,36(sp)
    3866:	5902                	lw	s2,32(sp)
    3868:	49f2                	lw	s3,28(sp)
    386a:	4a62                	lw	s4,24(sp)
    386c:	4b42                	lw	s6,16(sp)
    386e:	4bb2                	lw	s7,12(sp)
    3870:	4c22                	lw	s8,8(sp)
    3872:	8556                	mv	a0,s5
    3874:	4ad2                	lw	s5,20(sp)
    3876:	6145                	addi	sp,sp,48
    3878:	4581                	li	a1,0
    387a:	4601                	li	a2,0
    387c:	4781                	li	a5,0
    387e:	8082                	ret

00003880 <__sread>:
    3880:	1141                	addi	sp,sp,-16
    3882:	c422                	sw	s0,8(sp)
    3884:	c226                	sw	s1,4(sp)
    3886:	c606                	sw	ra,12(sp)
    3888:	0800                	addi	s0,sp,16
    388a:	84ae                	mv	s1,a1
    388c:	00e59583          	lh	a1,14(a1)
    3890:	2161                	jal	3d18 <_read_r>
    3892:	00054f63          	bltz	a0,38b0 <__sread+0x30>
    3896:	48bc                	lw	a5,80(s1)
    3898:	40b2                	lw	ra,12(sp)
    389a:	4422                	lw	s0,8(sp)
    389c:	97aa                	add	a5,a5,a0
    389e:	c8bc                	sw	a5,80(s1)
    38a0:	4492                	lw	s1,4(sp)
    38a2:	0141                	addi	sp,sp,16
    38a4:	4581                	li	a1,0
    38a6:	4601                	li	a2,0
    38a8:	4681                	li	a3,0
    38aa:	4701                	li	a4,0
    38ac:	4781                	li	a5,0
    38ae:	8082                	ret
    38b0:	00c4d783          	lhu	a5,12(s1)
    38b4:	777d                	lui	a4,0xfffff
    38b6:	40b2                	lw	ra,12(sp)
    38b8:	4422                	lw	s0,8(sp)
    38ba:	177d                	addi	a4,a4,-1 # ffffefff <_eusrstack+0xdfff6fff>
    38bc:	8ff9                	and	a5,a5,a4
    38be:	00f49623          	sh	a5,12(s1)
    38c2:	4492                	lw	s1,4(sp)
    38c4:	0141                	addi	sp,sp,16
    38c6:	4581                	li	a1,0
    38c8:	4601                	li	a2,0
    38ca:	4681                	li	a3,0
    38cc:	4701                	li	a4,0
    38ce:	4781                	li	a5,0
    38d0:	8082                	ret

000038d2 <__seofread>:
    38d2:	1141                	addi	sp,sp,-16
    38d4:	c422                	sw	s0,8(sp)
    38d6:	c606                	sw	ra,12(sp)
    38d8:	0800                	addi	s0,sp,16
    38da:	40b2                	lw	ra,12(sp)
    38dc:	4422                	lw	s0,8(sp)
    38de:	4501                	li	a0,0
    38e0:	0141                	addi	sp,sp,16
    38e2:	8082                	ret

000038e4 <__swrite>:
    38e4:	1101                	addi	sp,sp,-32
    38e6:	cc22                	sw	s0,24(sp)
    38e8:	ce06                	sw	ra,28(sp)
    38ea:	1000                	addi	s0,sp,32
    38ec:	00c59783          	lh	a5,12(a1)
    38f0:	8336                	mv	t1,a3
    38f2:	872e                	mv	a4,a1
    38f4:	1007f693          	andi	a3,a5,256
    38f8:	88b2                	mv	a7,a2
    38fa:	882a                	mv	a6,a0
    38fc:	ee99                	bnez	a3,391a <__swrite+0x36>
    38fe:	76fd                	lui	a3,0xfffff
    3900:	4462                	lw	s0,24(sp)
    3902:	16fd                	addi	a3,a3,-1 # ffffefff <_eusrstack+0xdfff6fff>
    3904:	40f2                	lw	ra,28(sp)
    3906:	8ff5                	and	a5,a5,a3
    3908:	00e71583          	lh	a1,14(a4)
    390c:	00f71623          	sh	a5,12(a4)
    3910:	869a                	mv	a3,t1
    3912:	8646                	mv	a2,a7
    3914:	8542                	mv	a0,a6
    3916:	6105                	addi	sp,sp,32
    3918:	a9a9                	j	3d72 <_write_r>
    391a:	00e59583          	lh	a1,14(a1)
    391e:	fec42223          	sw	a2,-28(s0)
    3922:	4689                	li	a3,2
    3924:	4601                	li	a2,0
    3926:	fe642023          	sw	t1,-32(s0)
    392a:	fee42623          	sw	a4,-20(s0)
    392e:	fea42423          	sw	a0,-24(s0)
    3932:	2671                	jal	3cbe <_lseek_r>
    3934:	fec42703          	lw	a4,-20(s0)
    3938:	fe042303          	lw	t1,-32(s0)
    393c:	fe442883          	lw	a7,-28(s0)
    3940:	00c71783          	lh	a5,12(a4)
    3944:	fe842803          	lw	a6,-24(s0)
    3948:	bf5d                	j	38fe <__swrite+0x1a>

0000394a <__sseek>:
    394a:	1141                	addi	sp,sp,-16
    394c:	c422                	sw	s0,8(sp)
    394e:	c226                	sw	s1,4(sp)
    3950:	c606                	sw	ra,12(sp)
    3952:	0800                	addi	s0,sp,16
    3954:	84ae                	mv	s1,a1
    3956:	00e59583          	lh	a1,14(a1)
    395a:	2695                	jal	3cbe <_lseek_r>
    395c:	577d                	li	a4,-1
    395e:	00c49783          	lh	a5,12(s1)
    3962:	02e50163          	beq	a0,a4,3984 <__sseek+0x3a>
    3966:	40b2                	lw	ra,12(sp)
    3968:	4422                	lw	s0,8(sp)
    396a:	6705                	lui	a4,0x1
    396c:	8fd9                	or	a5,a5,a4
    396e:	c8a8                	sw	a0,80(s1)
    3970:	00f49623          	sh	a5,12(s1)
    3974:	4492                	lw	s1,4(sp)
    3976:	0141                	addi	sp,sp,16
    3978:	4581                	li	a1,0
    397a:	4601                	li	a2,0
    397c:	4681                	li	a3,0
    397e:	4701                	li	a4,0
    3980:	4781                	li	a5,0
    3982:	8082                	ret
    3984:	80050713          	addi	a4,a0,-2048
    3988:	40b2                	lw	ra,12(sp)
    398a:	4422                	lw	s0,8(sp)
    398c:	80070713          	addi	a4,a4,-2048 # 800 <__stack_size>
    3990:	8ff9                	and	a5,a5,a4
    3992:	00f49623          	sh	a5,12(s1)
    3996:	4492                	lw	s1,4(sp)
    3998:	0141                	addi	sp,sp,16
    399a:	4581                	li	a1,0
    399c:	4601                	li	a2,0
    399e:	4681                	li	a3,0
    39a0:	4701                	li	a4,0
    39a2:	4781                	li	a5,0
    39a4:	8082                	ret

000039a6 <__sclose>:
    39a6:	1141                	addi	sp,sp,-16
    39a8:	c422                	sw	s0,8(sp)
    39aa:	c606                	sw	ra,12(sp)
    39ac:	0800                	addi	s0,sp,16
    39ae:	4422                	lw	s0,8(sp)
    39b0:	40b2                	lw	ra,12(sp)
    39b2:	00e59583          	lh	a1,14(a1)
    39b6:	0141                	addi	sp,sp,16
    39b8:	ac6d                	j	3c72 <_close_r>

000039ba <__swsetup_r>:
    39ba:	1101                	addi	sp,sp,-32
    39bc:	cc22                	sw	s0,24(sp)
    39be:	200007b7          	lui	a5,0x20000
    39c2:	ce06                	sw	ra,28(sp)
    39c4:	1000                	addi	s0,sp,32
    39c6:	6c87a703          	lw	a4,1736(a5) # 200006c8 <_impure_ptr>
    39ca:	862a                	mv	a2,a0
    39cc:	87ae                	mv	a5,a1
    39ce:	c319                	beqz	a4,39d4 <__swsetup_r+0x1a>
    39d0:	5b54                	lw	a3,52(a4)
    39d2:	cee1                	beqz	a3,3aaa <__swsetup_r+0xf0>
    39d4:	00c79703          	lh	a4,12(a5)
    39d8:	00877693          	andi	a3,a4,8
    39dc:	ca8d                	beqz	a3,3a0e <__swsetup_r+0x54>
    39de:	4b94                	lw	a3,16(a5)
    39e0:	c2b9                	beqz	a3,3a26 <__swsetup_r+0x6c>
    39e2:	00c79703          	lh	a4,12(a5)
    39e6:	00177613          	andi	a2,a4,1
    39ea:	c23d                	beqz	a2,3a50 <__swsetup_r+0x96>
    39ec:	4bd0                	lw	a2,20(a5)
    39ee:	0007a423          	sw	zero,8(a5)
    39f2:	4501                	li	a0,0
    39f4:	40c00633          	neg	a2,a2
    39f8:	cf90                	sw	a2,24(a5)
    39fa:	c2bd                	beqz	a3,3a60 <__swsetup_r+0xa6>
    39fc:	40f2                	lw	ra,28(sp)
    39fe:	4462                	lw	s0,24(sp)
    3a00:	6105                	addi	sp,sp,32
    3a02:	4581                	li	a1,0
    3a04:	4601                	li	a2,0
    3a06:	4681                	li	a3,0
    3a08:	4701                	li	a4,0
    3a0a:	4781                	li	a5,0
    3a0c:	8082                	ret
    3a0e:	01077693          	andi	a3,a4,16
    3a12:	cac5                	beqz	a3,3ac2 <__swsetup_r+0x108>
    3a14:	00477693          	andi	a3,a4,4
    3a18:	eea9                	bnez	a3,3a72 <__swsetup_r+0xb8>
    3a1a:	4b94                	lw	a3,16(a5)
    3a1c:	00876713          	ori	a4,a4,8
    3a20:	00e79623          	sh	a4,12(a5)
    3a24:	fedd                	bnez	a3,39e2 <__swsetup_r+0x28>
    3a26:	47d8                	lw	a4,12(a5)
    3a28:	20000593          	li	a1,512
    3a2c:	28077713          	andi	a4,a4,640
    3a30:	fab709e3          	beq	a4,a1,39e2 <__swsetup_r+0x28>
    3a34:	8532                	mv	a0,a2
    3a36:	85be                	mv	a1,a5
    3a38:	fef42623          	sw	a5,-20(s0)
    3a3c:	726030ef          	jal	7162 <__smakebuf_r>
    3a40:	fec42783          	lw	a5,-20(s0)
    3a44:	00c79703          	lh	a4,12(a5)
    3a48:	4b94                	lw	a3,16(a5)
    3a4a:	00177613          	andi	a2,a4,1
    3a4e:	fe59                	bnez	a2,39ec <__swsetup_r+0x32>
    3a50:	00277613          	andi	a2,a4,2
    3a54:	4581                	li	a1,0
    3a56:	e211                	bnez	a2,3a5a <__swsetup_r+0xa0>
    3a58:	4bcc                	lw	a1,20(a5)
    3a5a:	c78c                	sw	a1,8(a5)
    3a5c:	4501                	li	a0,0
    3a5e:	fed9                	bnez	a3,39fc <__swsetup_r+0x42>
    3a60:	08077693          	andi	a3,a4,128
    3a64:	dec1                	beqz	a3,39fc <__swsetup_r+0x42>
    3a66:	04076713          	ori	a4,a4,64
    3a6a:	00e79623          	sh	a4,12(a5)
    3a6e:	557d                	li	a0,-1
    3a70:	b771                	j	39fc <__swsetup_r+0x42>
    3a72:	5b8c                	lw	a1,48(a5)
    3a74:	c585                	beqz	a1,3a9c <__swsetup_r+0xe2>
    3a76:	04078693          	addi	a3,a5,64
    3a7a:	00d58f63          	beq	a1,a3,3a98 <__swsetup_r+0xde>
    3a7e:	8532                	mv	a0,a2
    3a80:	fef42423          	sw	a5,-24(s0)
    3a84:	fec42623          	sw	a2,-20(s0)
    3a88:	00b010ef          	jal	5292 <_free_r>
    3a8c:	fe842783          	lw	a5,-24(s0)
    3a90:	fec42603          	lw	a2,-20(s0)
    3a94:	00c79703          	lh	a4,12(a5)
    3a98:	0207a823          	sw	zero,48(a5)
    3a9c:	4b94                	lw	a3,16(a5)
    3a9e:	fdb77713          	andi	a4,a4,-37
    3aa2:	0007a223          	sw	zero,4(a5)
    3aa6:	c394                	sw	a3,0(a5)
    3aa8:	bf95                	j	3a1c <__swsetup_r+0x62>
    3aaa:	fea42623          	sw	a0,-20(s0)
    3aae:	853a                	mv	a0,a4
    3ab0:	feb42423          	sw	a1,-24(s0)
    3ab4:	92dff0ef          	jal	33e0 <__sinit>
    3ab8:	fe842783          	lw	a5,-24(s0)
    3abc:	fec42603          	lw	a2,-20(s0)
    3ac0:	bf11                	j	39d4 <__swsetup_r+0x1a>
    3ac2:	46a5                	li	a3,9
    3ac4:	04076713          	ori	a4,a4,64
    3ac8:	c214                	sw	a3,0(a2)
    3aca:	00e79623          	sh	a4,12(a5)
    3ace:	557d                	li	a0,-1
    3ad0:	b735                	j	39fc <__swsetup_r+0x42>

00003ad2 <memchr>:
    3ad2:	1141                	addi	sp,sp,-16
    3ad4:	c422                	sw	s0,8(sp)
    3ad6:	c606                	sw	ra,12(sp)
    3ad8:	0800                	addi	s0,sp,16
    3ada:	00357793          	andi	a5,a0,3
    3ade:	0ff5f713          	zext.b	a4,a1
    3ae2:	cb99                	beqz	a5,3af8 <memchr+0x26>
    3ae4:	c249                	beqz	a2,3b66 <memchr+0x94>
    3ae6:	00054783          	lbu	a5,0(a0)
    3aea:	167d                	addi	a2,a2,-1
    3aec:	06e78163          	beq	a5,a4,3b4e <memchr+0x7c>
    3af0:	0505                	addi	a0,a0,1
    3af2:	00357793          	andi	a5,a0,3
    3af6:	f7fd                	bnez	a5,3ae4 <memchr+0x12>
    3af8:	480d                	li	a6,3
    3afa:	04c87063          	bgeu	a6,a2,3b3a <memchr+0x68>
    3afe:	0ff5f593          	zext.b	a1,a1
    3b02:	00859793          	slli	a5,a1,0x8
    3b06:	97ae                	add	a5,a5,a1
    3b08:	01079313          	slli	t1,a5,0x10
    3b0c:	feff08b7          	lui	a7,0xfeff0
    3b10:	808085b7          	lui	a1,0x80808
    3b14:	933e                	add	t1,t1,a5
    3b16:	eff88893          	addi	a7,a7,-257 # fefefeff <_eusrstack+0xdefe7eff>
    3b1a:	08058593          	addi	a1,a1,128 # 80808080 <_eusrstack+0x60800080>
    3b1e:	411c                	lw	a5,0(a0)
    3b20:	00f347b3          	xor	a5,t1,a5
    3b24:	011786b3          	add	a3,a5,a7
    3b28:	fff7c793          	not	a5,a5
    3b2c:	8ff5                	and	a5,a5,a3
    3b2e:	8fed                	and	a5,a5,a1
    3b30:	e791                	bnez	a5,3b3c <memchr+0x6a>
    3b32:	1671                	addi	a2,a2,-4
    3b34:	0511                	addi	a0,a0,4
    3b36:	fec864e3          	bltu	a6,a2,3b1e <memchr+0x4c>
    3b3a:	c615                	beqz	a2,3b66 <memchr+0x94>
    3b3c:	962a                	add	a2,a2,a0
    3b3e:	a021                	j	3b46 <memchr+0x74>
    3b40:	0505                	addi	a0,a0,1
    3b42:	02c50263          	beq	a0,a2,3b66 <memchr+0x94>
    3b46:	00054783          	lbu	a5,0(a0)
    3b4a:	fee79be3          	bne	a5,a4,3b40 <memchr+0x6e>
    3b4e:	40b2                	lw	ra,12(sp)
    3b50:	4422                	lw	s0,8(sp)
    3b52:	0141                	addi	sp,sp,16
    3b54:	4301                	li	t1,0
    3b56:	4581                	li	a1,0
    3b58:	4601                	li	a2,0
    3b5a:	4681                	li	a3,0
    3b5c:	4701                	li	a4,0
    3b5e:	4781                	li	a5,0
    3b60:	4801                	li	a6,0
    3b62:	4881                	li	a7,0
    3b64:	8082                	ret
    3b66:	40b2                	lw	ra,12(sp)
    3b68:	4422                	lw	s0,8(sp)
    3b6a:	4501                	li	a0,0
    3b6c:	0141                	addi	sp,sp,16
    3b6e:	4301                	li	t1,0
    3b70:	4581                	li	a1,0
    3b72:	4601                	li	a2,0
    3b74:	4681                	li	a3,0
    3b76:	4701                	li	a4,0
    3b78:	4781                	li	a5,0
    3b7a:	4801                	li	a6,0
    3b7c:	4881                	li	a7,0
    3b7e:	8082                	ret

00003b80 <strncpy>:
    3b80:	1141                	addi	sp,sp,-16
    3b82:	c422                	sw	s0,8(sp)
    3b84:	c606                	sw	ra,12(sp)
    3b86:	0800                	addi	s0,sp,16
    3b88:	00a5e7b3          	or	a5,a1,a0
    3b8c:	8b8d                	andi	a5,a5,3
    3b8e:	e781                	bnez	a5,3b96 <strncpy+0x16>
    3b90:	00463793          	sltiu	a5,a2,4
    3b94:	c3b5                	beqz	a5,3bf8 <strncpy+0x78>
    3b96:	872a                	mv	a4,a0
    3b98:	a811                	j	3bac <strncpy+0x2c>
    3b9a:	fff5c683          	lbu	a3,-1(a1)
    3b9e:	fff60813          	addi	a6,a2,-1
    3ba2:	fed78fa3          	sb	a3,-1(a5)
    3ba6:	c685                	beqz	a3,3bce <strncpy+0x4e>
    3ba8:	873e                	mv	a4,a5
    3baa:	8642                	mv	a2,a6
    3bac:	0585                	addi	a1,a1,1
    3bae:	00170793          	addi	a5,a4,1
    3bb2:	f665                	bnez	a2,3b9a <strncpy+0x1a>
    3bb4:	40b2                	lw	ra,12(sp)
    3bb6:	4422                	lw	s0,8(sp)
    3bb8:	0141                	addi	sp,sp,16
    3bba:	4301                	li	t1,0
    3bbc:	4581                	li	a1,0
    3bbe:	4601                	li	a2,0
    3bc0:	4681                	li	a3,0
    3bc2:	4701                	li	a4,0
    3bc4:	4781                	li	a5,0
    3bc6:	4801                	li	a6,0
    3bc8:	4881                	li	a7,0
    3bca:	4e01                	li	t3,0
    3bcc:	8082                	ret
    3bce:	9732                	add	a4,a4,a2
    3bd0:	fe0802e3          	beqz	a6,3bb4 <strncpy+0x34>
    3bd4:	0785                	addi	a5,a5,1
    3bd6:	fe078fa3          	sb	zero,-1(a5)
    3bda:	fee79de3          	bne	a5,a4,3bd4 <strncpy+0x54>
    3bde:	40b2                	lw	ra,12(sp)
    3be0:	4422                	lw	s0,8(sp)
    3be2:	0141                	addi	sp,sp,16
    3be4:	4301                	li	t1,0
    3be6:	4581                	li	a1,0
    3be8:	4601                	li	a2,0
    3bea:	4681                	li	a3,0
    3bec:	4701                	li	a4,0
    3bee:	4781                	li	a5,0
    3bf0:	4801                	li	a6,0
    3bf2:	4881                	li	a7,0
    3bf4:	4e01                	li	t3,0
    3bf6:	8082                	ret
    3bf8:	feff0337          	lui	t1,0xfeff0
    3bfc:	808088b7          	lui	a7,0x80808
    3c00:	eff30313          	addi	t1,t1,-257 # fefefeff <_eusrstack+0xdefe7eff>
    3c04:	08088893          	addi	a7,a7,128 # 80808080 <_eusrstack+0x60800080>
    3c08:	872a                	mv	a4,a0
    3c0a:	4e0d                	li	t3,3
    3c0c:	4194                	lw	a3,0(a1)
    3c0e:	006687b3          	add	a5,a3,t1
    3c12:	fff6c813          	not	a6,a3
    3c16:	0107f7b3          	and	a5,a5,a6
    3c1a:	0117f7b3          	and	a5,a5,a7
    3c1e:	f7d9                	bnez	a5,3bac <strncpy+0x2c>
    3c20:	1671                	addi	a2,a2,-4
    3c22:	c314                	sw	a3,0(a4)
    3c24:	0711                	addi	a4,a4,4
    3c26:	0591                	addi	a1,a1,4
    3c28:	fece62e3          	bltu	t3,a2,3c0c <strncpy+0x8c>
    3c2c:	b741                	j	3bac <strncpy+0x2c>

00003c2e <__localeconv_l>:
    3c2e:	1141                	addi	sp,sp,-16
    3c30:	c422                	sw	s0,8(sp)
    3c32:	c606                	sw	ra,12(sp)
    3c34:	0800                	addi	s0,sp,16
    3c36:	40b2                	lw	ra,12(sp)
    3c38:	4422                	lw	s0,8(sp)
    3c3a:	0f050513          	addi	a0,a0,240
    3c3e:	0141                	addi	sp,sp,16
    3c40:	8082                	ret

00003c42 <_localeconv_r>:
    3c42:	1141                	addi	sp,sp,-16
    3c44:	c422                	sw	s0,8(sp)
    3c46:	c606                	sw	ra,12(sp)
    3c48:	0800                	addi	s0,sp,16
    3c4a:	40b2                	lw	ra,12(sp)
    3c4c:	4422                	lw	s0,8(sp)
    3c4e:	20000537          	lui	a0,0x20000
    3c52:	64450513          	addi	a0,a0,1604 # 20000644 <__global_locale+0xf0>
    3c56:	0141                	addi	sp,sp,16
    3c58:	8082                	ret

00003c5a <localeconv>:
    3c5a:	1141                	addi	sp,sp,-16
    3c5c:	c422                	sw	s0,8(sp)
    3c5e:	c606                	sw	ra,12(sp)
    3c60:	0800                	addi	s0,sp,16
    3c62:	40b2                	lw	ra,12(sp)
    3c64:	4422                	lw	s0,8(sp)
    3c66:	20000537          	lui	a0,0x20000
    3c6a:	64450513          	addi	a0,a0,1604 # 20000644 <__global_locale+0xf0>
    3c6e:	0141                	addi	sp,sp,16
    3c70:	8082                	ret

00003c72 <_close_r>:
    3c72:	1141                	addi	sp,sp,-16
    3c74:	c422                	sw	s0,8(sp)
    3c76:	c226                	sw	s1,4(sp)
    3c78:	c04a                	sw	s2,0(sp)
    3c7a:	c606                	sw	ra,12(sp)
    3c7c:	0800                	addi	s0,sp,16
    3c7e:	892a                	mv	s2,a0
    3c80:	852e                	mv	a0,a1
    3c82:	8801a823          	sw	zero,-1904(gp) # 20000750 <errno>
    3c86:	184050ef          	jal	8e0a <_close>
    3c8a:	57fd                	li	a5,-1
    3c8c:	00f50b63          	beq	a0,a5,3ca2 <_close_r+0x30>
    3c90:	40b2                	lw	ra,12(sp)
    3c92:	4422                	lw	s0,8(sp)
    3c94:	4492                	lw	s1,4(sp)
    3c96:	4902                	lw	s2,0(sp)
    3c98:	0141                	addi	sp,sp,16
    3c9a:	4581                	li	a1,0
    3c9c:	4701                	li	a4,0
    3c9e:	4781                	li	a5,0
    3ca0:	8082                	ret
    3ca2:	8901a783          	lw	a5,-1904(gp) # 20000750 <errno>
    3ca6:	d7ed                	beqz	a5,3c90 <_close_r+0x1e>
    3ca8:	40b2                	lw	ra,12(sp)
    3caa:	4422                	lw	s0,8(sp)
    3cac:	00f92023          	sw	a5,0(s2)
    3cb0:	4492                	lw	s1,4(sp)
    3cb2:	4902                	lw	s2,0(sp)
    3cb4:	0141                	addi	sp,sp,16
    3cb6:	4581                	li	a1,0
    3cb8:	4701                	li	a4,0
    3cba:	4781                	li	a5,0
    3cbc:	8082                	ret

00003cbe <_lseek_r>:
    3cbe:	1141                	addi	sp,sp,-16
    3cc0:	87ae                	mv	a5,a1
    3cc2:	c422                	sw	s0,8(sp)
    3cc4:	c226                	sw	s1,4(sp)
    3cc6:	c04a                	sw	s2,0(sp)
    3cc8:	c606                	sw	ra,12(sp)
    3cca:	0800                	addi	s0,sp,16
    3ccc:	85b2                	mv	a1,a2
    3cce:	8636                	mv	a2,a3
    3cd0:	892a                	mv	s2,a0
    3cd2:	853e                	mv	a0,a5
    3cd4:	8801a823          	sw	zero,-1904(gp) # 20000750 <errno>
    3cd8:	24a050ef          	jal	8f22 <_lseek>
    3cdc:	57fd                	li	a5,-1
    3cde:	00f50d63          	beq	a0,a5,3cf8 <_lseek_r+0x3a>
    3ce2:	40b2                	lw	ra,12(sp)
    3ce4:	4422                	lw	s0,8(sp)
    3ce6:	4492                	lw	s1,4(sp)
    3ce8:	4902                	lw	s2,0(sp)
    3cea:	0141                	addi	sp,sp,16
    3cec:	4581                	li	a1,0
    3cee:	4601                	li	a2,0
    3cf0:	4681                	li	a3,0
    3cf2:	4701                	li	a4,0
    3cf4:	4781                	li	a5,0
    3cf6:	8082                	ret
    3cf8:	8901a783          	lw	a5,-1904(gp) # 20000750 <errno>
    3cfc:	d3fd                	beqz	a5,3ce2 <_lseek_r+0x24>
    3cfe:	40b2                	lw	ra,12(sp)
    3d00:	4422                	lw	s0,8(sp)
    3d02:	00f92023          	sw	a5,0(s2)
    3d06:	4492                	lw	s1,4(sp)
    3d08:	4902                	lw	s2,0(sp)
    3d0a:	0141                	addi	sp,sp,16
    3d0c:	4581                	li	a1,0
    3d0e:	4601                	li	a2,0
    3d10:	4681                	li	a3,0
    3d12:	4701                	li	a4,0
    3d14:	4781                	li	a5,0
    3d16:	8082                	ret

00003d18 <_read_r>:
    3d18:	1141                	addi	sp,sp,-16
    3d1a:	87ae                	mv	a5,a1
    3d1c:	c422                	sw	s0,8(sp)
    3d1e:	c226                	sw	s1,4(sp)
    3d20:	c04a                	sw	s2,0(sp)
    3d22:	c606                	sw	ra,12(sp)
    3d24:	0800                	addi	s0,sp,16
    3d26:	85b2                	mv	a1,a2
    3d28:	8636                	mv	a2,a3
    3d2a:	892a                	mv	s2,a0
    3d2c:	853e                	mv	a0,a5
    3d2e:	8801a823          	sw	zero,-1904(gp) # 20000750 <errno>
    3d32:	234050ef          	jal	8f66 <_read>
    3d36:	57fd                	li	a5,-1
    3d38:	00f50d63          	beq	a0,a5,3d52 <_read_r+0x3a>
    3d3c:	40b2                	lw	ra,12(sp)
    3d3e:	4422                	lw	s0,8(sp)
    3d40:	4492                	lw	s1,4(sp)
    3d42:	4902                	lw	s2,0(sp)
    3d44:	0141                	addi	sp,sp,16
    3d46:	4581                	li	a1,0
    3d48:	4601                	li	a2,0
    3d4a:	4681                	li	a3,0
    3d4c:	4701                	li	a4,0
    3d4e:	4781                	li	a5,0
    3d50:	8082                	ret
    3d52:	8901a783          	lw	a5,-1904(gp) # 20000750 <errno>
    3d56:	d3fd                	beqz	a5,3d3c <_read_r+0x24>
    3d58:	40b2                	lw	ra,12(sp)
    3d5a:	4422                	lw	s0,8(sp)
    3d5c:	00f92023          	sw	a5,0(s2)
    3d60:	4492                	lw	s1,4(sp)
    3d62:	4902                	lw	s2,0(sp)
    3d64:	0141                	addi	sp,sp,16
    3d66:	4581                	li	a1,0
    3d68:	4601                	li	a2,0
    3d6a:	4681                	li	a3,0
    3d6c:	4701                	li	a4,0
    3d6e:	4781                	li	a5,0
    3d70:	8082                	ret

00003d72 <_write_r>:
    3d72:	1141                	addi	sp,sp,-16
    3d74:	87ae                	mv	a5,a1
    3d76:	c422                	sw	s0,8(sp)
    3d78:	c226                	sw	s1,4(sp)
    3d7a:	c04a                	sw	s2,0(sp)
    3d7c:	c606                	sw	ra,12(sp)
    3d7e:	0800                	addi	s0,sp,16
    3d80:	85b2                	mv	a1,a2
    3d82:	8636                	mv	a2,a3
    3d84:	892a                	mv	s2,a0
    3d86:	853e                	mv	a0,a5
    3d88:	8801a823          	sw	zero,-1904(gp) # 20000750 <errno>
    3d8c:	61e060ef          	jal	a3aa <_write>
    3d90:	57fd                	li	a5,-1
    3d92:	00f50d63          	beq	a0,a5,3dac <_write_r+0x3a>
    3d96:	40b2                	lw	ra,12(sp)
    3d98:	4422                	lw	s0,8(sp)
    3d9a:	4492                	lw	s1,4(sp)
    3d9c:	4902                	lw	s2,0(sp)
    3d9e:	0141                	addi	sp,sp,16
    3da0:	4581                	li	a1,0
    3da2:	4601                	li	a2,0
    3da4:	4681                	li	a3,0
    3da6:	4701                	li	a4,0
    3da8:	4781                	li	a5,0
    3daa:	8082                	ret
    3dac:	8901a783          	lw	a5,-1904(gp) # 20000750 <errno>
    3db0:	d3fd                	beqz	a5,3d96 <_write_r+0x24>
    3db2:	40b2                	lw	ra,12(sp)
    3db4:	4422                	lw	s0,8(sp)
    3db6:	00f92023          	sw	a5,0(s2)
    3dba:	4492                	lw	s1,4(sp)
    3dbc:	4902                	lw	s2,0(sp)
    3dbe:	0141                	addi	sp,sp,16
    3dc0:	4581                	li	a1,0
    3dc2:	4601                	li	a2,0
    3dc4:	4681                	li	a3,0
    3dc6:	4701                	li	a4,0
    3dc8:	4781                	li	a5,0
    3dca:	8082                	ret

00003dcc <__retarget_lock_init>:
    3dcc:	1141                	addi	sp,sp,-16
    3dce:	c422                	sw	s0,8(sp)
    3dd0:	c606                	sw	ra,12(sp)
    3dd2:	0800                	addi	s0,sp,16
    3dd4:	40b2                	lw	ra,12(sp)
    3dd6:	4422                	lw	s0,8(sp)
    3dd8:	0141                	addi	sp,sp,16
    3dda:	8082                	ret

00003ddc <__retarget_lock_init_recursive>:
    3ddc:	1141                	addi	sp,sp,-16
    3dde:	c422                	sw	s0,8(sp)
    3de0:	c606                	sw	ra,12(sp)
    3de2:	0800                	addi	s0,sp,16
    3de4:	40b2                	lw	ra,12(sp)
    3de6:	4422                	lw	s0,8(sp)
    3de8:	0141                	addi	sp,sp,16
    3dea:	8082                	ret

00003dec <__retarget_lock_close>:
    3dec:	1141                	addi	sp,sp,-16
    3dee:	c422                	sw	s0,8(sp)
    3df0:	c606                	sw	ra,12(sp)
    3df2:	0800                	addi	s0,sp,16
    3df4:	40b2                	lw	ra,12(sp)
    3df6:	4422                	lw	s0,8(sp)
    3df8:	0141                	addi	sp,sp,16
    3dfa:	8082                	ret

00003dfc <__retarget_lock_close_recursive>:
    3dfc:	1141                	addi	sp,sp,-16
    3dfe:	c422                	sw	s0,8(sp)
    3e00:	c606                	sw	ra,12(sp)
    3e02:	0800                	addi	s0,sp,16
    3e04:	40b2                	lw	ra,12(sp)
    3e06:	4422                	lw	s0,8(sp)
    3e08:	0141                	addi	sp,sp,16
    3e0a:	8082                	ret

00003e0c <__retarget_lock_acquire>:
    3e0c:	1141                	addi	sp,sp,-16
    3e0e:	c422                	sw	s0,8(sp)
    3e10:	c606                	sw	ra,12(sp)
    3e12:	0800                	addi	s0,sp,16
    3e14:	40b2                	lw	ra,12(sp)
    3e16:	4422                	lw	s0,8(sp)
    3e18:	0141                	addi	sp,sp,16
    3e1a:	8082                	ret

00003e1c <__retarget_lock_acquire_recursive>:
    3e1c:	1141                	addi	sp,sp,-16
    3e1e:	c422                	sw	s0,8(sp)
    3e20:	c606                	sw	ra,12(sp)
    3e22:	0800                	addi	s0,sp,16
    3e24:	40b2                	lw	ra,12(sp)
    3e26:	4422                	lw	s0,8(sp)
    3e28:	0141                	addi	sp,sp,16
    3e2a:	8082                	ret

00003e2c <__retarget_lock_try_acquire>:
    3e2c:	1141                	addi	sp,sp,-16
    3e2e:	c422                	sw	s0,8(sp)
    3e30:	c606                	sw	ra,12(sp)
    3e32:	0800                	addi	s0,sp,16
    3e34:	40b2                	lw	ra,12(sp)
    3e36:	4422                	lw	s0,8(sp)
    3e38:	4505                	li	a0,1
    3e3a:	0141                	addi	sp,sp,16
    3e3c:	8082                	ret

00003e3e <__retarget_lock_try_acquire_recursive>:
    3e3e:	1141                	addi	sp,sp,-16
    3e40:	c422                	sw	s0,8(sp)
    3e42:	c606                	sw	ra,12(sp)
    3e44:	0800                	addi	s0,sp,16
    3e46:	40b2                	lw	ra,12(sp)
    3e48:	4422                	lw	s0,8(sp)
    3e4a:	4505                	li	a0,1
    3e4c:	0141                	addi	sp,sp,16
    3e4e:	8082                	ret

00003e50 <__retarget_lock_release>:
    3e50:	1141                	addi	sp,sp,-16
    3e52:	c422                	sw	s0,8(sp)
    3e54:	c606                	sw	ra,12(sp)
    3e56:	0800                	addi	s0,sp,16
    3e58:	40b2                	lw	ra,12(sp)
    3e5a:	4422                	lw	s0,8(sp)
    3e5c:	0141                	addi	sp,sp,16
    3e5e:	8082                	ret

00003e60 <__retarget_lock_release_recursive>:
    3e60:	1141                	addi	sp,sp,-16
    3e62:	c422                	sw	s0,8(sp)
    3e64:	c606                	sw	ra,12(sp)
    3e66:	0800                	addi	s0,sp,16
    3e68:	40b2                	lw	ra,12(sp)
    3e6a:	4422                	lw	s0,8(sp)
    3e6c:	0141                	addi	sp,sp,16
    3e6e:	8082                	ret

00003e70 <memmove>:
    3e70:	1141                	addi	sp,sp,-16
    3e72:	c422                	sw	s0,8(sp)
    3e74:	c606                	sw	ra,12(sp)
    3e76:	0800                	addi	s0,sp,16
    3e78:	02a5fd63          	bgeu	a1,a0,3eb2 <memmove+0x42>
    3e7c:	00c587b3          	add	a5,a1,a2
    3e80:	02f57963          	bgeu	a0,a5,3eb2 <memmove+0x42>
    3e84:	ca11                	beqz	a2,3e98 <memmove+0x28>
    3e86:	962a                	add	a2,a2,a0
    3e88:	fff7c703          	lbu	a4,-1(a5)
    3e8c:	167d                	addi	a2,a2,-1
    3e8e:	17fd                	addi	a5,a5,-1
    3e90:	00e60023          	sb	a4,0(a2)
    3e94:	fec51ae3          	bne	a0,a2,3e88 <memmove+0x18>
    3e98:	40b2                	lw	ra,12(sp)
    3e9a:	4422                	lw	s0,8(sp)
    3e9c:	0141                	addi	sp,sp,16
    3e9e:	4301                	li	t1,0
    3ea0:	4581                	li	a1,0
    3ea2:	4601                	li	a2,0
    3ea4:	4681                	li	a3,0
    3ea6:	4701                	li	a4,0
    3ea8:	4781                	li	a5,0
    3eaa:	4801                	li	a6,0
    3eac:	4881                	li	a7,0
    3eae:	4e01                	li	t3,0
    3eb0:	8082                	ret
    3eb2:	47bd                	li	a5,15
    3eb4:	02c7ed63          	bltu	a5,a2,3eee <memmove+0x7e>
    3eb8:	87aa                	mv	a5,a0
    3eba:	fff60693          	addi	a3,a2,-1
    3ebe:	de69                	beqz	a2,3e98 <memmove+0x28>
    3ec0:	0685                	addi	a3,a3,1
    3ec2:	96be                	add	a3,a3,a5
    3ec4:	0005c703          	lbu	a4,0(a1)
    3ec8:	0785                	addi	a5,a5,1
    3eca:	0585                	addi	a1,a1,1
    3ecc:	fee78fa3          	sb	a4,-1(a5)
    3ed0:	fed79ae3          	bne	a5,a3,3ec4 <memmove+0x54>
    3ed4:	40b2                	lw	ra,12(sp)
    3ed6:	4422                	lw	s0,8(sp)
    3ed8:	0141                	addi	sp,sp,16
    3eda:	4301                	li	t1,0
    3edc:	4581                	li	a1,0
    3ede:	4601                	li	a2,0
    3ee0:	4681                	li	a3,0
    3ee2:	4701                	li	a4,0
    3ee4:	4781                	li	a5,0
    3ee6:	4801                	li	a6,0
    3ee8:	4881                	li	a7,0
    3eea:	4e01                	li	t3,0
    3eec:	8082                	ret
    3eee:	00b567b3          	or	a5,a0,a1
    3ef2:	8b8d                	andi	a5,a5,3
    3ef4:	88ae                	mv	a7,a1
    3ef6:	efbd                	bnez	a5,3f74 <memmove+0x104>
    3ef8:	00465793          	srli	a5,a2,0x4
    3efc:	00479813          	slli	a6,a5,0x4
    3f00:	982a                	add	a6,a6,a0
    3f02:	17fd                	addi	a5,a5,-1
    3f04:	872a                	mv	a4,a0
    3f06:	4194                	lw	a3,0(a1)
    3f08:	05c1                	addi	a1,a1,16
    3f0a:	0741                	addi	a4,a4,16
    3f0c:	fed72823          	sw	a3,-16(a4)
    3f10:	ff45a683          	lw	a3,-12(a1)
    3f14:	fed72a23          	sw	a3,-12(a4)
    3f18:	ff85a683          	lw	a3,-8(a1)
    3f1c:	fed72c23          	sw	a3,-8(a4)
    3f20:	ffc5a683          	lw	a3,-4(a1)
    3f24:	fed72e23          	sw	a3,-4(a4)
    3f28:	fd071fe3          	bne	a4,a6,3f06 <memmove+0x96>
    3f2c:	0792                	slli	a5,a5,0x4
    3f2e:	01178733          	add	a4,a5,a7
    3f32:	01070593          	addi	a1,a4,16
    3f36:	97aa                	add	a5,a5,a0
    3f38:	00c67813          	andi	a6,a2,12
    3f3c:	07c1                	addi	a5,a5,16
    3f3e:	8e2e                	mv	t3,a1
    3f40:	00f67693          	andi	a3,a2,15
    3f44:	02080c63          	beqz	a6,3f7c <memmove+0x10c>
    3f48:	16f1                	addi	a3,a3,-4
    3f4a:	9af1                	andi	a3,a3,-4
    3f4c:	9736                	add	a4,a4,a3
    3f4e:	0751                	addi	a4,a4,20
    3f50:	41150833          	sub	a6,a0,a7
    3f54:	0005a303          	lw	t1,0(a1)
    3f58:	010588b3          	add	a7,a1,a6
    3f5c:	0591                	addi	a1,a1,4
    3f5e:	0068a023          	sw	t1,0(a7)
    3f62:	fee599e3          	bne	a1,a4,3f54 <memmove+0xe4>
    3f66:	00468713          	addi	a4,a3,4
    3f6a:	01c705b3          	add	a1,a4,t3
    3f6e:	97ba                	add	a5,a5,a4
    3f70:	8a0d                	andi	a2,a2,3
    3f72:	b7a1                	j	3eba <memmove+0x4a>
    3f74:	fff60693          	addi	a3,a2,-1
    3f78:	87aa                	mv	a5,a0
    3f7a:	b799                	j	3ec0 <memmove+0x50>
    3f7c:	8636                	mv	a2,a3
    3f7e:	bf35                	j	3eba <memmove+0x4a>

00003f80 <memset>:
    3f80:	433d                	li	t1,15
    3f82:	872a                	mv	a4,a0
    3f84:	02c37363          	bgeu	t1,a2,3faa <memset+0x2a>
    3f88:	00f77793          	andi	a5,a4,15
    3f8c:	efbd                	bnez	a5,400a <memset+0x8a>
    3f8e:	e5ad                	bnez	a1,3ff8 <memset+0x78>
    3f90:	ff067693          	andi	a3,a2,-16
    3f94:	8a3d                	andi	a2,a2,15
    3f96:	96ba                	add	a3,a3,a4
    3f98:	c30c                	sw	a1,0(a4)
    3f9a:	c34c                	sw	a1,4(a4)
    3f9c:	c70c                	sw	a1,8(a4)
    3f9e:	c74c                	sw	a1,12(a4)
    3fa0:	0741                	addi	a4,a4,16
    3fa2:	fed76be3          	bltu	a4,a3,3f98 <memset+0x18>
    3fa6:	e211                	bnez	a2,3faa <memset+0x2a>
    3fa8:	8082                	ret
    3faa:	40c306b3          	sub	a3,t1,a2
    3fae:	068a                	slli	a3,a3,0x2
    3fb0:	00000297          	auipc	t0,0x0
    3fb4:	9696                	add	a3,a3,t0
    3fb6:	00a68067          	jr	10(a3)
    3fba:	00b70723          	sb	a1,14(a4)
    3fbe:	00b706a3          	sb	a1,13(a4)
    3fc2:	00b70623          	sb	a1,12(a4)
    3fc6:	00b705a3          	sb	a1,11(a4)
    3fca:	00b70523          	sb	a1,10(a4)
    3fce:	00b704a3          	sb	a1,9(a4)
    3fd2:	00b70423          	sb	a1,8(a4)
    3fd6:	00b703a3          	sb	a1,7(a4)
    3fda:	00b70323          	sb	a1,6(a4)
    3fde:	00b702a3          	sb	a1,5(a4)
    3fe2:	00b70223          	sb	a1,4(a4)
    3fe6:	00b701a3          	sb	a1,3(a4)
    3fea:	00b70123          	sb	a1,2(a4)
    3fee:	00b700a3          	sb	a1,1(a4)
    3ff2:	00b70023          	sb	a1,0(a4)
    3ff6:	8082                	ret
    3ff8:	0ff5f593          	zext.b	a1,a1
    3ffc:	00859693          	slli	a3,a1,0x8
    4000:	8dd5                	or	a1,a1,a3
    4002:	01059693          	slli	a3,a1,0x10
    4006:	8dd5                	or	a1,a1,a3
    4008:	b761                	j	3f90 <memset+0x10>
    400a:	00279693          	slli	a3,a5,0x2
    400e:	00000297          	auipc	t0,0x0
    4012:	9696                	add	a3,a3,t0
    4014:	8286                	mv	t0,ra
    4016:	fa8680e7          	jalr	-88(a3)
    401a:	8096                	mv	ra,t0
    401c:	17c1                	addi	a5,a5,-16
    401e:	8f1d                	sub	a4,a4,a5
    4020:	963e                	add	a2,a2,a5
    4022:	f8c374e3          	bgeu	t1,a2,3faa <memset+0x2a>
    4026:	b7a5                	j	3f8e <memset+0xe>

00004028 <strlen>:
    4028:	1141                	addi	sp,sp,-16
    402a:	c422                	sw	s0,8(sp)
    402c:	c606                	sw	ra,12(sp)
    402e:	0800                	addi	s0,sp,16
    4030:	00357793          	andi	a5,a0,3
    4034:	872a                	mv	a4,a0
    4036:	ebb9                	bnez	a5,408c <strlen+0x64>
    4038:	7f7f86b7          	lui	a3,0x7f7f8
    403c:	f7f68693          	addi	a3,a3,-129 # 7f7f7f7f <_eusrstack+0x5f7eff7f>
    4040:	55fd                	li	a1,-1
    4042:	4310                	lw	a2,0(a4)
    4044:	0711                	addi	a4,a4,4
    4046:	00d677b3          	and	a5,a2,a3
    404a:	97b6                	add	a5,a5,a3
    404c:	8fd1                	or	a5,a5,a2
    404e:	8fd5                	or	a5,a5,a3
    4050:	feb789e3          	beq	a5,a1,4042 <strlen+0x1a>
    4054:	ffc74683          	lbu	a3,-4(a4)
    4058:	40a707b3          	sub	a5,a4,a0
    405c:	ffc78513          	addi	a0,a5,-4
    4060:	ce81                	beqz	a3,4078 <strlen+0x50>
    4062:	ffd74683          	lbu	a3,-3(a4)
    4066:	ffd78513          	addi	a0,a5,-3
    406a:	c699                	beqz	a3,4078 <strlen+0x50>
    406c:	ffe74503          	lbu	a0,-2(a4)
    4070:	00a03533          	snez	a0,a0
    4074:	953e                	add	a0,a0,a5
    4076:	1579                	addi	a0,a0,-2
    4078:	40b2                	lw	ra,12(sp)
    407a:	4422                	lw	s0,8(sp)
    407c:	0141                	addi	sp,sp,16
    407e:	4581                	li	a1,0
    4080:	4601                	li	a2,0
    4082:	4681                	li	a3,0
    4084:	4701                	li	a4,0
    4086:	4781                	li	a5,0
    4088:	8082                	ret
    408a:	d6dd                	beqz	a3,4038 <strlen+0x10>
    408c:	00074783          	lbu	a5,0(a4)
    4090:	0705                	addi	a4,a4,1
    4092:	00377693          	andi	a3,a4,3
    4096:	fbf5                	bnez	a5,408a <strlen+0x62>
    4098:	8f09                	sub	a4,a4,a0
    409a:	fff70513          	addi	a0,a4,-1
    409e:	bfe9                	j	4078 <strlen+0x50>

000040a0 <frexp>:
    40a0:	1101                	addi	sp,sp,-32
    40a2:	cc22                	sw	s0,24(sp)
    40a4:	ce06                	sw	ra,28(sp)
    40a6:	1000                	addi	s0,sp,32
    40a8:	fea43427          	fsd	fa0,-24(s0)
    40ac:	fec42783          	lw	a5,-20(s0)
    40b0:	80000637          	lui	a2,0x80000
    40b4:	167d                	addi	a2,a2,-1 # 7fffffff <_eusrstack+0x5fff7fff>
    40b6:	00052023          	sw	zero,0(a0)
    40ba:	00f676b3          	and	a3,a2,a5
    40be:	7ff00837          	lui	a6,0x7ff00
    40c2:	fe842703          	lw	a4,-24(s0)
    40c6:	0506f963          	bgeu	a3,a6,4118 <frexp+0x78>
    40ca:	00e6e833          	or	a6,a3,a4
    40ce:	04080563          	beqz	a6,4118 <frexp+0x78>
    40d2:	0147d893          	srli	a7,a5,0x14
    40d6:	7ff8f893          	andi	a7,a7,2047
    40da:	85be                	mv	a1,a5
    40dc:	c0200813          	li	a6,-1022
    40e0:	02089163          	bnez	a7,4102 <frexp+0x62>
    40e4:	8301b787          	fld	fa5,-2000(gp) # 200006f0 <__malloc_trim_threshold+0x1c>
    40e8:	bcc00813          	li	a6,-1076
    40ec:	12f577d3          	fmul.d	fa5,fa0,fa5
    40f0:	fef43427          	fsd	fa5,-24(s0)
    40f4:	fec42783          	lw	a5,-20(s0)
    40f8:	fe842703          	lw	a4,-24(s0)
    40fc:	00f676b3          	and	a3,a2,a5
    4100:	85be                	mv	a1,a5
    4102:	80100637          	lui	a2,0x80100
    4106:	167d                	addi	a2,a2,-1 # 800fffff <_eusrstack+0x600f7fff>
    4108:	86d1                	srai	a3,a3,0x14
    410a:	8df1                	and	a1,a1,a2
    410c:	96c2                	add	a3,a3,a6
    410e:	3fe00637          	lui	a2,0x3fe00
    4112:	00c5e7b3          	or	a5,a1,a2
    4116:	c114                	sw	a3,0(a0)
    4118:	fee42423          	sw	a4,-24(s0)
    411c:	fef42623          	sw	a5,-20(s0)
    4120:	fe843507          	fld	fa0,-24(s0)
    4124:	40f2                	lw	ra,28(sp)
    4126:	4462                	lw	s0,24(sp)
    4128:	6105                	addi	sp,sp,32
    412a:	4501                	li	a0,0
    412c:	4581                	li	a1,0
    412e:	4601                	li	a2,0
    4130:	4681                	li	a3,0
    4132:	4701                	li	a4,0
    4134:	4781                	li	a5,0
    4136:	4801                	li	a6,0
    4138:	4881                	li	a7,0
    413a:	8082                	ret

0000413c <quorem>:
    413c:	0105a803          	lw	a6,16(a1)
    4140:	491c                	lw	a5,16(a0)
    4142:	1907c063          	blt	a5,a6,42c2 <quorem+0x186>
    4146:	187d                	addi	a6,a6,-1 # 7fefffff <_eusrstack+0x5fef7fff>
    4148:	7179                	addi	sp,sp,-48
    414a:	00281293          	slli	t0,a6,0x2
    414e:	01458613          	addi	a2,a1,20
    4152:	d422                	sw	s0,40(sp)
    4154:	00560333          	add	t1,a2,t0
    4158:	d606                	sw	ra,44(sp)
    415a:	d226                	sw	s1,36(sp)
    415c:	1800                	addi	s0,sp,48
    415e:	01450e13          	addi	t3,a0,20
    4162:	92f2                	add	t0,t0,t3
    4164:	00032783          	lw	a5,0(t1)
    4168:	0002a703          	lw	a4,0(t0) # 400e <memset+0x8e>
    416c:	0785                	addi	a5,a5,1
    416e:	02f758b3          	divu	a7,a4,a5
    4172:	08f76963          	bltu	a4,a5,4204 <quorem+0xc8>
    4176:	8fb2                	mv	t6,a2
    4178:	8f72                	mv	t5,t3
    417a:	4481                	li	s1,0
    417c:	4701                	li	a4,0
    417e:	000fa783          	lw	a5,0(t6)
    4182:	000f2383          	lw	t2,0(t5)
    4186:	0f11                	addi	t5,t5,4
    4188:	01079e93          	slli	t4,a5,0x10
    418c:	010ede93          	srli	t4,t4,0x10
    4190:	83c1                	srli	a5,a5,0x10
    4192:	01039693          	slli	a3,t2,0x10
    4196:	82c1                	srli	a3,a3,0x10
    4198:	0103d393          	srli	t2,t2,0x10
    419c:	0f91                	addi	t6,t6,4
    419e:	031e8eb3          	mul	t4,t4,a7
    41a2:	031787b3          	mul	a5,a5,a7
    41a6:	9ea6                	add	t4,t4,s1
    41a8:	010e9493          	slli	s1,t4,0x10
    41ac:	80c1                	srli	s1,s1,0x10
    41ae:	010ede93          	srli	t4,t4,0x10
    41b2:	8e85                	sub	a3,a3,s1
    41b4:	96ba                	add	a3,a3,a4
    41b6:	4106d713          	srai	a4,a3,0x10
    41ba:	06c2                	slli	a3,a3,0x10
    41bc:	82c1                	srli	a3,a3,0x10
    41be:	97f6                	add	a5,a5,t4
    41c0:	01079e93          	slli	t4,a5,0x10
    41c4:	010ede93          	srli	t4,t4,0x10
    41c8:	0107d493          	srli	s1,a5,0x10
    41cc:	41d707b3          	sub	a5,a4,t4
    41d0:	979e                	add	a5,a5,t2
    41d2:	01079713          	slli	a4,a5,0x10
    41d6:	8f55                	or	a4,a4,a3
    41d8:	feef2e23          	sw	a4,-4(t5)
    41dc:	4107d713          	srai	a4,a5,0x10
    41e0:	f9f37fe3          	bgeu	t1,t6,417e <quorem+0x42>
    41e4:	0002a783          	lw	a5,0(t0)
    41e8:	ef91                	bnez	a5,4204 <quorem+0xc8>
    41ea:	12f1                	addi	t0,t0,-4
    41ec:	005e6663          	bltu	t3,t0,41f8 <quorem+0xbc>
    41f0:	a801                	j	4200 <quorem+0xc4>
    41f2:	187d                	addi	a6,a6,-1
    41f4:	005e7663          	bgeu	t3,t0,4200 <quorem+0xc4>
    41f8:	0002a783          	lw	a5,0(t0)
    41fc:	12f1                	addi	t0,t0,-4
    41fe:	dbf5                	beqz	a5,41f2 <quorem+0xb6>
    4200:	01052823          	sw	a6,16(a0)
    4204:	ff142623          	sw	a7,-20(s0)
    4208:	fdc42e23          	sw	t3,-36(s0)
    420c:	fe642023          	sw	t1,-32(s0)
    4210:	fec42223          	sw	a2,-28(s0)
    4214:	ff042423          	sw	a6,-24(s0)
    4218:	84aa                	mv	s1,a0
    421a:	2c6020ef          	jal	64e0 <__mcmp>
    421e:	fec42883          	lw	a7,-20(s0)
    4222:	06054c63          	bltz	a0,429a <quorem+0x15e>
    4226:	fdc42e03          	lw	t3,-36(s0)
    422a:	fe042303          	lw	t1,-32(s0)
    422e:	fe442603          	lw	a2,-28(s0)
    4232:	fe842803          	lw	a6,-24(s0)
    4236:	0885                	addi	a7,a7,1
    4238:	8572                	mv	a0,t3
    423a:	4781                	li	a5,0
    423c:	4114                	lw	a3,0(a0)
    423e:	420c                	lw	a1,0(a2)
    4240:	0511                	addi	a0,a0,4
    4242:	01069713          	slli	a4,a3,0x10
    4246:	01059e93          	slli	t4,a1,0x10
    424a:	010ede93          	srli	t4,t4,0x10
    424e:	8341                	srli	a4,a4,0x10
    4250:	41d70733          	sub	a4,a4,t4
    4254:	973e                	add	a4,a4,a5
    4256:	41075793          	srai	a5,a4,0x10
    425a:	81c1                	srli	a1,a1,0x10
    425c:	82c1                	srli	a3,a3,0x10
    425e:	8f8d                	sub	a5,a5,a1
    4260:	97b6                	add	a5,a5,a3
    4262:	0742                	slli	a4,a4,0x10
    4264:	01079693          	slli	a3,a5,0x10
    4268:	8341                	srli	a4,a4,0x10
    426a:	8f55                	or	a4,a4,a3
    426c:	0611                	addi	a2,a2,4 # 3fe00004 <_eusrstack+0x1fdf8004>
    426e:	fee52e23          	sw	a4,-4(a0)
    4272:	87c1                	srai	a5,a5,0x10
    4274:	fcc374e3          	bgeu	t1,a2,423c <quorem+0x100>
    4278:	00281793          	slli	a5,a6,0x2
    427c:	97f2                	add	a5,a5,t3
    427e:	4398                	lw	a4,0(a5)
    4280:	ef09                	bnez	a4,429a <quorem+0x15e>
    4282:	17f1                	addi	a5,a5,-4
    4284:	00fe6663          	bltu	t3,a5,4290 <quorem+0x154>
    4288:	a039                	j	4296 <quorem+0x15a>
    428a:	187d                	addi	a6,a6,-1
    428c:	00fe7563          	bgeu	t3,a5,4296 <quorem+0x15a>
    4290:	4398                	lw	a4,0(a5)
    4292:	17f1                	addi	a5,a5,-4
    4294:	db7d                	beqz	a4,428a <quorem+0x14e>
    4296:	0104a823          	sw	a6,16(s1)
    429a:	50b2                	lw	ra,44(sp)
    429c:	5422                	lw	s0,40(sp)
    429e:	5492                	lw	s1,36(sp)
    42a0:	8546                	mv	a0,a7
    42a2:	6145                	addi	sp,sp,48
    42a4:	4281                	li	t0,0
    42a6:	4301                	li	t1,0
    42a8:	4381                	li	t2,0
    42aa:	4581                	li	a1,0
    42ac:	4601                	li	a2,0
    42ae:	4681                	li	a3,0
    42b0:	4701                	li	a4,0
    42b2:	4781                	li	a5,0
    42b4:	4801                	li	a6,0
    42b6:	4881                	li	a7,0
    42b8:	4e01                	li	t3,0
    42ba:	4e81                	li	t4,0
    42bc:	4f01                	li	t5,0
    42be:	4f81                	li	t6,0
    42c0:	8082                	ret
    42c2:	4501                	li	a0,0
    42c4:	4281                	li	t0,0
    42c6:	4301                	li	t1,0
    42c8:	4381                	li	t2,0
    42ca:	4581                	li	a1,0
    42cc:	4601                	li	a2,0
    42ce:	4681                	li	a3,0
    42d0:	4701                	li	a4,0
    42d2:	4781                	li	a5,0
    42d4:	4801                	li	a6,0
    42d6:	4881                	li	a7,0
    42d8:	4e01                	li	t3,0
    42da:	4e81                	li	t4,0
    42dc:	4f01                	li	t5,0
    42de:	4f81                	li	t6,0
    42e0:	8082                	ret

000042e2 <_dtoa_r>:
    42e2:	7119                	addi	sp,sp,-128
    42e4:	dca2                	sw	s0,120(sp)
    42e6:	daa6                	sw	s1,116(sp)
    42e8:	0100                	addi	s0,sp,128
    42ea:	d8ca                	sw	s2,112(sp)
    42ec:	d4d2                	sw	s4,104(sp)
    42ee:	d0da                	sw	s6,96(sp)
    42f0:	cede                	sw	s7,92(sp)
    42f2:	c8ea                	sw	s10,80(sp)
    42f4:	c6ee                	sw	s11,76(sp)
    42f6:	de86                	sw	ra,124(sp)
    42f8:	d6ce                	sw	s3,108(sp)
    42fa:	faa43427          	fsd	fa0,-88(s0)
    42fe:	fa842b03          	lw	s6,-88(s0)
    4302:	fac42b83          	lw	s7,-84(s0)
    4306:	03852803          	lw	a6,56(a0)
    430a:	f8d42e23          	sw	a3,-100(s0)
    430e:	fb642423          	sw	s6,-88(s0)
    4312:	fb742623          	sw	s7,-84(s0)
    4316:	84aa                	mv	s1,a0
    4318:	8a2e                	mv	s4,a1
    431a:	8db2                	mv	s11,a2
    431c:	893a                	mv	s2,a4
    431e:	8d3e                	mv	s10,a5
    4320:	00080f63          	beqz	a6,433e <_dtoa_r+0x5c>
    4324:	5d58                	lw	a4,60(a0)
    4326:	4785                	li	a5,1
    4328:	85c2                	mv	a1,a6
    432a:	00e797b3          	sll	a5,a5,a4
    432e:	00e82223          	sw	a4,4(a6)
    4332:	00f82423          	sw	a5,8(a6)
    4336:	14d010ef          	jal	5c82 <_Bfree>
    433a:	0204ac23          	sw	zero,56(s1)
    433e:	89de                	mv	s3,s7
    4340:	4681                	li	a3,0
    4342:	000bd963          	bgez	s7,4354 <_dtoa_r+0x72>
    4346:	001b9993          	slli	s3,s7,0x1
    434a:	0019d993          	srli	s3,s3,0x1
    434e:	fb342623          	sw	s3,-84(s0)
    4352:	4685                	li	a3,1
    4354:	7ff007b7          	lui	a5,0x7ff00
    4358:	00d92023          	sw	a3,0(s2)
    435c:	00f9f733          	and	a4,s3,a5
    4360:	22f70563          	beq	a4,a5,458a <_dtoa_r+0x2a8>
    4364:	fa843787          	fld	fa5,-88(s0)
    4368:	faf43027          	fsd	fa5,-96(s0)
    436c:	fa043707          	fld	fa4,-96(s0)
    4370:	d20007d3          	fcvt.d.w	fa5,zero
    4374:	a2f727d3          	feq.d	a5,fa4,fa5
    4378:	c7a9                	beqz	a5,43c2 <_dtoa_r+0xe0>
    437a:	f9c42703          	lw	a4,-100(s0)
    437e:	4785                	li	a5,1
    4380:	c31c                	sw	a5,0(a4)
    4382:	000d0763          	beqz	s10,4390 <_dtoa_r+0xae>
    4386:	67ad                	lui	a5,0xb
    4388:	d3178793          	addi	a5,a5,-719 # ad31 <zeroes.0+0xa9>
    438c:	00fd2023          	sw	a5,0(s10)
    4390:	69ad                	lui	s3,0xb
    4392:	d3098993          	addi	s3,s3,-720 # ad30 <zeroes.0+0xa8>
    4396:	50f6                	lw	ra,124(sp)
    4398:	5466                	lw	s0,120(sp)
    439a:	54d6                	lw	s1,116(sp)
    439c:	5946                	lw	s2,112(sp)
    439e:	5a26                	lw	s4,104(sp)
    43a0:	5b06                	lw	s6,96(sp)
    43a2:	4bf6                	lw	s7,92(sp)
    43a4:	4d46                	lw	s10,80(sp)
    43a6:	4db6                	lw	s11,76(sp)
    43a8:	854e                	mv	a0,s3
    43aa:	59b6                	lw	s3,108(sp)
    43ac:	6109                	addi	sp,sp,128
    43ae:	4301                	li	t1,0
    43b0:	4381                	li	t2,0
    43b2:	4581                	li	a1,0
    43b4:	4601                	li	a2,0
    43b6:	4681                	li	a3,0
    43b8:	4701                	li	a4,0
    43ba:	4781                	li	a5,0
    43bc:	4801                	li	a6,0
    43be:	4881                	li	a7,0
    43c0:	8082                	ret
    43c2:	fa843507          	fld	fa0,-88(s0)
    43c6:	fb840613          	addi	a2,s0,-72
    43ca:	fbc40593          	addi	a1,s0,-68
    43ce:	8526                	mv	a0,s1
    43d0:	d2d6                	sw	s5,100(sp)
    43d2:	cce2                	sw	s8,88(sp)
    43d4:	cae6                	sw	s9,84(sp)
    43d6:	4c4020ef          	jal	689a <__d2b>
    43da:	0149d713          	srli	a4,s3,0x14
    43de:	fb842603          	lw	a2,-72(s0)
    43e2:	892a                	mv	s2,a0
    43e4:	1c071a63          	bnez	a4,45b8 <_dtoa_r+0x2d6>
    43e8:	fbc42703          	lw	a4,-68(s0)
    43ec:	02000793          	li	a5,32
    43f0:	9732                	add	a4,a4,a2
    43f2:	43270693          	addi	a3,a4,1074
    43f6:	3ed7dc63          	bge	a5,a3,47ee <_dtoa_r+0x50c>
    43fa:	04000793          	li	a5,64
    43fe:	40d786b3          	sub	a3,a5,a3
    4402:	41270793          	addi	a5,a4,1042
    4406:	00d999b3          	sll	s3,s3,a3
    440a:	00fb57b3          	srl	a5,s6,a5
    440e:	00f9eb33          	or	s6,s3,a5
    4412:	d21b07d3          	fcvt.d.wu	fa5,s6
    4416:	fe1007b7          	lui	a5,0xfe100
    441a:	177d                	addi	a4,a4,-1
    441c:	f8f43827          	fsd	fa5,-112(s0)
    4420:	f9442583          	lw	a1,-108(s0)
    4424:	f9042503          	lw	a0,-112(s0)
    4428:	4a85                	li	s5,1
    442a:	97ae                	add	a5,a5,a1
    442c:	f8f42a23          	sw	a5,-108(s0)
    4430:	f8a42823          	sw	a0,-112(s0)
    4434:	8381b787          	fld	fa5,-1992(gp) # 200006f8 <__malloc_trim_threshold+0x24>
    4438:	f9043707          	fld	fa4,-112(s0)
    443c:	0af77753          	fsub.d	fa4,fa4,fa5
    4440:	8401b687          	fld	fa3,-1984(gp) # 20000700 <__malloc_trim_threshold+0x2c>
    4444:	8481b787          	fld	fa5,-1976(gp) # 20000708 <__malloc_trim_threshold+0x34>
    4448:	8501b607          	fld	fa2,-1968(gp) # 20000710 <__malloc_trim_threshold+0x3c>
    444c:	7ad77743          	fmadd.d	fa4,fa4,fa3,fa5
    4450:	d20707d3          	fcvt.d.w	fa5,a4
    4454:	d20006d3          	fcvt.d.w	fa3,zero
    4458:	72c7f7c3          	fmadd.d	fa5,fa5,fa2,fa4
    445c:	a2d797d3          	flt.d	a5,fa5,fa3
    4460:	c2079bd3          	fcvt.w.d	s7,fa5,rtz
    4464:	cb89                	beqz	a5,4476 <_dtoa_r+0x194>
    4466:	d20b8753          	fcvt.d.w	fa4,s7
    446a:	a2f727d3          	feq.d	a5,fa4,fa5
    446e:	0017b793          	seqz	a5,a5
    4472:	40fb8bb3          	sub	s7,s7,a5
    4476:	fff60813          	addi	a6,a2,-1
    447a:	47d9                	li	a5,22
    447c:	40e80833          	sub	a6,a6,a4
    4480:	1577ef63          	bltu	a5,s7,45de <_dtoa_r+0x2fc>
    4484:	66ad                	lui	a3,0xb
    4486:	8f068593          	addi	a1,a3,-1808 # a8f0 <__mprec_tens>
    448a:	003b9793          	slli	a5,s7,0x3
    448e:	97ae                	add	a5,a5,a1
    4490:	239c                	fld	fa5,0(a5)
    4492:	fa043707          	fld	fa4,-96(s0)
    4496:	a2f717d3          	flt.d	a5,fa4,fa5
    449a:	34079663          	bnez	a5,47e6 <_dtoa_r+0x504>
    449e:	2c0840e3          	bltz	a6,4f5e <_dtoa_r+0xc7c>
    44a2:	985e                	add	a6,a6,s7
    44a4:	f9742823          	sw	s7,-112(s0)
    44a8:	f8042c23          	sw	zero,-104(s0)
    44ac:	4c81                	li	s9,0
    44ae:	47a5                	li	a5,9
    44b0:	4c01                	li	s8,0
    44b2:	1547e763          	bltu	a5,s4,4600 <_dtoa_r+0x31e>
    44b6:	4795                	li	a5,5
    44b8:	3147d863          	bge	a5,s4,47c8 <_dtoa_r+0x4e6>
    44bc:	1a71                	addi	s4,s4,-4
    44be:	4711                	li	a4,4
    44c0:	36ea00e3          	beq	s4,a4,5020 <_dtoa_r+0xd3e>
    44c4:	4efa0b63          	beq	s4,a5,49ba <_dtoa_r+0x6d8>
    44c8:	4789                	li	a5,2
    44ca:	4b01                	li	s6,0
    44cc:	26fa06e3          	beq	s4,a5,4f38 <_dtoa_r+0xc56>
    44d0:	4a0d                	li	s4,3
    44d2:	f8042423          	sw	zero,-120(s0)
    44d6:	017d87b3          	add	a5,s11,s7
    44da:	00178a93          	addi	s5,a5,1 # fe100001 <_eusrstack+0xde0f8001>
    44de:	f8f42623          	sw	a5,-116(s0)
    44e2:	8656                	mv	a2,s5
    44e4:	01504363          	bgtz	s5,44ea <_dtoa_r+0x208>
    44e8:	4605                	li	a2,1
    44ea:	46dd                	li	a3,23
    44ec:	4705                	li	a4,1
    44ee:	4791                	li	a5,4
    44f0:	48c6d7e3          	bge	a3,a2,517e <_dtoa_r+0xe9c>
    44f4:	0786                	slli	a5,a5,0x1
    44f6:	01478693          	addi	a3,a5,20
    44fa:	85ba                	mv	a1,a4
    44fc:	0705                	addi	a4,a4,1
    44fe:	fed67be3          	bgeu	a2,a3,44f4 <_dtoa_r+0x212>
    4502:	dccc                	sw	a1,60(s1)
    4504:	8526                	mv	a0,s1
    4506:	f9042023          	sw	a6,-128(s0)
    450a:	6f2010ef          	jal	5bfc <_Balloc>
    450e:	f8042803          	lw	a6,-128(s0)
    4512:	89aa                	mv	s3,a0
    4514:	3a0503e3          	beqz	a0,50ba <_dtoa_r+0xdd8>
    4518:	dc88                	sw	a0,56(s1)
    451a:	00fab793          	sltiu	a5,s5,15
    451e:	60078463          	beqz	a5,4b26 <_dtoa_r+0x844>
    4522:	600b0263          	beqz	s6,4b26 <_dtoa_r+0x844>
    4526:	69705663          	blez	s7,4bb2 <_dtoa_r+0x8d0>
    452a:	66ad                	lui	a3,0xb
    452c:	00fbf793          	andi	a5,s7,15
    4530:	8f068593          	addi	a1,a3,-1808 # a8f0 <__mprec_tens>
    4534:	078e                	slli	a5,a5,0x3
    4536:	97ae                	add	a5,a5,a1
    4538:	2398                	fld	fa4,0(a5)
    453a:	404bd793          	srai	a5,s7,0x4
    453e:	0107f713          	andi	a4,a5,16
    4542:	78070763          	beqz	a4,4cd0 <_dtoa_r+0x9ee>
    4546:	672d                	lui	a4,0xb
    4548:	a0073787          	fld	fa5,-1536(a4) # aa00 <__mprec_bigtens+0x20>
    454c:	fa043687          	fld	fa3,-96(s0)
    4550:	8bbd                	andi	a5,a5,15
    4552:	468d                	li	a3,3
    4554:	1af6f7d3          	fdiv.d	fa5,fa3,fa5
    4558:	48078863          	beqz	a5,49e8 <_dtoa_r+0x706>
    455c:	672d                	lui	a4,0xb
    455e:	9e070713          	addi	a4,a4,-1568 # a9e0 <__mprec_bigtens>
    4562:	a019                	j	4568 <_dtoa_r+0x286>
    4564:	8785                	srai	a5,a5,0x1
    4566:	0721                	addi	a4,a4,8
    4568:	0017f613          	andi	a2,a5,1
    456c:	e611                	bnez	a2,4578 <_dtoa_r+0x296>
    456e:	8785                	srai	a5,a5,0x1
    4570:	0721                	addi	a4,a4,8
    4572:	0017f613          	andi	a2,a5,1
    4576:	d67d                	beqz	a2,4564 <_dtoa_r+0x282>
    4578:	2314                	fld	fa3,0(a4)
    457a:	8785                	srai	a5,a5,0x1
    457c:	0685                	addi	a3,a3,1
    457e:	12d77753          	fmul.d	fa4,fa4,fa3
    4582:	46078363          	beqz	a5,49e8 <_dtoa_r+0x706>
    4586:	0721                	addi	a4,a4,8
    4588:	b7ed                	j	4572 <_dtoa_r+0x290>
    458a:	f9c42683          	lw	a3,-100(s0)
    458e:	00c99793          	slli	a5,s3,0xc
    4592:	6709                	lui	a4,0x2
    4594:	83b1                	srli	a5,a5,0xc
    4596:	70f70713          	addi	a4,a4,1807 # 270f <__stack_size+0x1f0f>
    459a:	0167e7b3          	or	a5,a5,s6
    459e:	c298                	sw	a4,0(a3)
    45a0:	eb8d                	bnez	a5,45d2 <_dtoa_r+0x2f0>
    45a2:	69ad                	lui	s3,0xb
    45a4:	3e0d0de3          	beqz	s10,519e <_dtoa_r+0xebc>
    45a8:	67ad                	lui	a5,0xb
    45aa:	d3c78793          	addi	a5,a5,-708 # ad3c <zeroes.0+0xb4>
    45ae:	d3498993          	addi	s3,s3,-716 # ad34 <zeroes.0+0xac>
    45b2:	00fd2023          	sw	a5,0(s10)
    45b6:	b3c5                	j	4396 <_dtoa_r+0xb4>
    45b8:	fa442783          	lw	a5,-92(s0)
    45bc:	3ff006b7          	lui	a3,0x3ff00
    45c0:	fa842503          	lw	a0,-88(s0)
    45c4:	07b2                	slli	a5,a5,0xc
    45c6:	83b1                	srli	a5,a5,0xc
    45c8:	8fd5                	or	a5,a5,a3
    45ca:	c0170713          	addi	a4,a4,-1023
    45ce:	4a81                	li	s5,0
    45d0:	bdb1                	j	442c <_dtoa_r+0x14a>
    45d2:	69ad                	lui	s3,0xb
    45d4:	220d1163          	bnez	s10,47f6 <_dtoa_r+0x514>
    45d8:	d4098993          	addi	s3,s3,-704 # ad40 <zeroes.0+0xb8>
    45dc:	bb6d                	j	4396 <_dtoa_r+0xb4>
    45de:	4785                	li	a5,1
    45e0:	f8f42c23          	sw	a5,-104(s0)
    45e4:	4c81                	li	s9,0
    45e6:	1c084663          	bltz	a6,47b2 <_dtoa_r+0x4d0>
    45ea:	1c0bdb63          	bgez	s7,47c0 <_dtoa_r+0x4de>
    45ee:	f8042823          	sw	zero,-112(s0)
    45f2:	47a5                	li	a5,9
    45f4:	417c8cb3          	sub	s9,s9,s7
    45f8:	41700c33          	neg	s8,s7
    45fc:	eb47fde3          	bgeu	a5,s4,44b6 <_dtoa_r+0x1d4>
    4600:	4a01                	li	s4,0
    4602:	0204ae23          	sw	zero,60(s1)
    4606:	4581                	li	a1,0
    4608:	8526                	mv	a0,s1
    460a:	f9042623          	sw	a6,-116(s0)
    460e:	5ee010ef          	jal	5bfc <_Balloc>
    4612:	f8c42803          	lw	a6,-116(s0)
    4616:	89aa                	mv	s3,a0
    4618:	2a0501e3          	beqz	a0,50ba <_dtoa_r+0xdd8>
    461c:	0334ac23          	sw	s3,56(s1)
    4620:	00fba793          	slti	a5,s7,15
    4624:	fbc42703          	lw	a4,-68(s0)
    4628:	c399                	beqz	a5,462e <_dtoa_r+0x34c>
    462a:	1c075e63          	bgez	a4,4806 <_dtoa_r+0x524>
    462e:	340a9d63          	bnez	s5,4988 <_dtoa_r+0x6a6>
    4632:	fb842783          	lw	a5,-72(s0)
    4636:	03600713          	li	a4,54
    463a:	5afd                	li	s5,-1
    463c:	8f1d                	sub	a4,a4,a5
    463e:	f9042783          	lw	a5,-112(s0)
    4642:	983a                	add	a6,a6,a4
    4644:	f9542623          	sw	s5,-116(s0)
    4648:	f8f42023          	sw	a5,-128(s0)
    464c:	9766                	add	a4,a4,s9
    464e:	4d81                	li	s11,0
    4650:	8662                	mv	a2,s8
    4652:	4585                	li	a1,1
    4654:	8526                	mv	a0,s1
    4656:	f9042423          	sw	a6,-120(s0)
    465a:	f8c42823          	sw	a2,-112(s0)
    465e:	fae42023          	sw	a4,-96(s0)
    4662:	1e1010ef          	jal	6042 <__i2b>
    4666:	fa042703          	lw	a4,-96(s0)
    466a:	f9042603          	lw	a2,-112(s0)
    466e:	f8842803          	lw	a6,-120(s0)
    4672:	8b2a                	mv	s6,a0
    4674:	01905d63          	blez	s9,468e <_dtoa_r+0x3ac>
    4678:	01005b63          	blez	a6,468e <_dtoa_r+0x3ac>
    467c:	87e6                	mv	a5,s9
    467e:	01985363          	bge	a6,s9,4684 <_dtoa_r+0x3a2>
    4682:	87c2                	mv	a5,a6
    4684:	8f1d                	sub	a4,a4,a5
    4686:	40fc8cb3          	sub	s9,s9,a5
    468a:	40f80833          	sub	a6,a6,a5
    468e:	03805463          	blez	s8,46b6 <_dtoa_r+0x3d4>
    4692:	40cc0c33          	sub	s8,s8,a2
    4696:	12c041e3          	bgtz	a2,4fb8 <_dtoa_r+0xcd6>
    469a:	85ca                	mv	a1,s2
    469c:	8662                	mv	a2,s8
    469e:	8526                	mv	a0,s1
    46a0:	f9042823          	sw	a6,-112(s0)
    46a4:	fae42023          	sw	a4,-96(s0)
    46a8:	415010ef          	jal	62bc <__pow5mult>
    46ac:	fa042703          	lw	a4,-96(s0)
    46b0:	f9042803          	lw	a6,-112(s0)
    46b4:	892a                	mv	s2,a0
    46b6:	4585                	li	a1,1
    46b8:	8526                	mv	a0,s1
    46ba:	f9042823          	sw	a6,-112(s0)
    46be:	fae42023          	sw	a4,-96(s0)
    46c2:	181010ef          	jal	6042 <__i2b>
    46c6:	f8042783          	lw	a5,-128(s0)
    46ca:	fa042703          	lw	a4,-96(s0)
    46ce:	f9042803          	lw	a6,-112(s0)
    46d2:	8c2a                	mv	s8,a0
    46d4:	58f04063          	bgtz	a5,4c54 <_dtoa_r+0x972>
    46d8:	4785                	li	a5,1
    46da:	2347c2e3          	blt	a5,s4,50fe <_dtoa_r+0xe1c>
    46de:	fa842683          	lw	a3,-88(s0)
    46e2:	faf42023          	sw	a5,-96(s0)
    46e6:	f8042823          	sw	zero,-112(s0)
    46ea:	e691                	bnez	a3,46f6 <_dtoa_r+0x414>
    46ec:	fac42783          	lw	a5,-84(s0)
    46f0:	07b2                	slli	a5,a5,0xc
    46f2:	260787e3          	beqz	a5,5160 <_dtoa_r+0xe7e>
    46f6:	f8042783          	lw	a5,-128(s0)
    46fa:	5a079863          	bnez	a5,4caa <_dtoa_r+0x9c8>
    46fe:	4785                	li	a5,1
    4700:	97c2                	add	a5,a5,a6
    4702:	8bfd                	andi	a5,a5,31
    4704:	4a078063          	beqz	a5,4ba4 <_dtoa_r+0x8c2>
    4708:	fdf78693          	addi	a3,a5,-33
    470c:	566d                	li	a2,-5
    470e:	00c6dce3          	bge	a3,a2,4f26 <_dtoa_r+0xc44>
    4712:	46f1                	li	a3,28
    4714:	40f687b3          	sub	a5,a3,a5
    4718:	973e                	add	a4,a4,a5
    471a:	9cbe                	add	s9,s9,a5
    471c:	983e                	add	a6,a6,a5
    471e:	16e04163          	bgtz	a4,4880 <_dtoa_r+0x59e>
    4722:	01005863          	blez	a6,4732 <_dtoa_r+0x450>
    4726:	85e2                	mv	a1,s8
    4728:	8642                	mv	a2,a6
    472a:	8526                	mv	a0,s1
    472c:	48f010ef          	jal	63ba <__lshift>
    4730:	8c2a                	mv	s8,a0
    4732:	f9842703          	lw	a4,-104(s0)
    4736:	003a2793          	slti	a5,s4,3
    473a:	0017c793          	xori	a5,a5,1
    473e:	14071c63          	bnez	a4,4896 <_dtoa_r+0x5b4>
    4742:	27504163          	bgtz	s5,49a4 <_dtoa_r+0x6c2>
    4746:	24078f63          	beqz	a5,49a4 <_dtoa_r+0x6c2>
    474a:	4a0a9f63          	bnez	s5,4c08 <_dtoa_r+0x926>
    474e:	85e2                	mv	a1,s8
    4750:	4681                	li	a3,0
    4752:	4615                	li	a2,5
    4754:	8526                	mv	a0,s1
    4756:	554010ef          	jal	5caa <__multadd>
    475a:	8c2a                	mv	s8,a0
    475c:	85aa                	mv	a1,a0
    475e:	854a                	mv	a0,s2
    4760:	581010ef          	jal	64e0 <__mcmp>
    4764:	4aa05263          	blez	a0,4c08 <_dtoa_r+0x926>
    4768:	03100793          	li	a5,49
    476c:	001b8a13          	addi	s4,s7,1
    4770:	00f98023          	sb	a5,0(s3)
    4774:	00198a93          	addi	s5,s3,1
    4778:	85e2                	mv	a1,s8
    477a:	8526                	mv	a0,s1
    477c:	506010ef          	jal	5c82 <_Bfree>
    4780:	0a05                	addi	s4,s4,1
    4782:	000b0663          	beqz	s6,478e <_dtoa_r+0x4ac>
    4786:	85da                	mv	a1,s6
    4788:	8526                	mv	a0,s1
    478a:	4f8010ef          	jal	5c82 <_Bfree>
    478e:	85ca                	mv	a1,s2
    4790:	8526                	mv	a0,s1
    4792:	4f0010ef          	jal	5c82 <_Bfree>
    4796:	f9c42783          	lw	a5,-100(s0)
    479a:	000a8023          	sb	zero,0(s5)
    479e:	0147a023          	sw	s4,0(a5)
    47a2:	220d0f63          	beqz	s10,49e0 <_dtoa_r+0x6fe>
    47a6:	015d2023          	sw	s5,0(s10)
    47aa:	4c66                	lw	s8,88(sp)
    47ac:	5a96                	lw	s5,100(sp)
    47ae:	4cd6                	lw	s9,84(sp)
    47b0:	b6dd                	j	4396 <_dtoa_r+0xb4>
    47b2:	40c707b3          	sub	a5,a4,a2
    47b6:	00178c93          	addi	s9,a5,1
    47ba:	4801                	li	a6,0
    47bc:	e20bc9e3          	bltz	s7,45ee <_dtoa_r+0x30c>
    47c0:	985e                	add	a6,a6,s7
    47c2:	f9742823          	sw	s7,-112(s0)
    47c6:	b1e5                	j	44ae <_dtoa_r+0x1cc>
    47c8:	4711                	li	a4,4
    47ca:	06ea00e3          	beq	s4,a4,502a <_dtoa_r+0xd48>
    47ce:	1efa0263          	beq	s4,a5,49b2 <_dtoa_r+0x6d0>
    47d2:	4789                	li	a5,2
    47d4:	76fa0163          	beq	s4,a5,4f36 <_dtoa_r+0xc54>
    47d8:	478d                	li	a5,3
    47da:	f8042423          	sw	zero,-120(s0)
    47de:	4b05                	li	s6,1
    47e0:	cefa0be3          	beq	s4,a5,44d6 <_dtoa_r+0x1f4>
    47e4:	bd39                	j	4602 <_dtoa_r+0x320>
    47e6:	1bfd                	addi	s7,s7,-1
    47e8:	f8042c23          	sw	zero,-104(s0)
    47ec:	bbe5                	j	45e4 <_dtoa_r+0x302>
    47ee:	8f95                	sub	a5,a5,a3
    47f0:	00fb1b33          	sll	s6,s6,a5
    47f4:	b939                	j	4412 <_dtoa_r+0x130>
    47f6:	67ad                	lui	a5,0xb
    47f8:	d4378793          	addi	a5,a5,-701 # ad43 <zeroes.0+0xbb>
    47fc:	d4098993          	addi	s3,s3,-704
    4800:	00fd2023          	sw	a5,0(s10)
    4804:	be49                	j	4396 <_dtoa_r+0xb4>
    4806:	672d                	lui	a4,0xb
    4808:	8f070713          	addi	a4,a4,-1808 # a8f0 <__mprec_tens>
    480c:	003b9793          	slli	a5,s7,0x3
    4810:	97ba                	add	a5,a5,a4
    4812:	2398                	fld	fa4,0(a5)
    4814:	5afd                	li	s5,-1
    4816:	00198793          	addi	a5,s3,1
    481a:	fa043787          	fld	fa5,-96(s0)
    481e:	fa043687          	fld	fa3,-96(s0)
    4822:	4585                	li	a1,1
    4824:	1ae7f7d3          	fdiv.d	fa5,fa5,fa4
    4828:	c2079753          	fcvt.w.d	a4,fa5,rtz
    482c:	d20707d3          	fcvt.d.w	fa5,a4
    4830:	03070693          	addi	a3,a4,48
    4834:	00d98023          	sb	a3,0(s3)
    4838:	6ae7f7cb          	fnmsub.d	fa5,fa5,fa4,fa3
    483c:	04ba8ee3          	beq	s5,a1,5098 <_dtoa_r+0xdb6>
    4840:	8601b587          	fld	fa1,-1952(gp) # 20000720 <__malloc_trim_threshold+0x4c>
    4844:	d2000653          	fcvt.d.w	fa2,zero
    4848:	8d9d                	sub	a1,a1,a5
    484a:	a015                	j	486e <_dtoa_r+0x58c>
    484c:	1ae7f6d3          	fdiv.d	fa3,fa5,fa4
    4850:	0785                	addi	a5,a5,1
    4852:	00b786b3          	add	a3,a5,a1
    4856:	c2069753          	fcvt.w.d	a4,fa3,rtz
    485a:	d20706d3          	fcvt.d.w	fa3,a4
    485e:	03070613          	addi	a2,a4,48
    4862:	fec78fa3          	sb	a2,-1(a5)
    4866:	7ae6f7cb          	fnmsub.d	fa5,fa3,fa4,fa5
    486a:	035687e3          	beq	a3,s5,5098 <_dtoa_r+0xdb6>
    486e:	12b7f7d3          	fmul.d	fa5,fa5,fa1
    4872:	a2c7a753          	feq.d	a4,fa5,fa2
    4876:	db79                	beqz	a4,484c <_dtoa_r+0x56a>
    4878:	001b8a13          	addi	s4,s7,1
    487c:	8abe                	mv	s5,a5
    487e:	bf01                	j	478e <_dtoa_r+0x4ac>
    4880:	85ca                	mv	a1,s2
    4882:	863a                	mv	a2,a4
    4884:	8526                	mv	a0,s1
    4886:	f9042023          	sw	a6,-128(s0)
    488a:	331010ef          	jal	63ba <__lshift>
    488e:	f8042803          	lw	a6,-128(s0)
    4892:	892a                	mv	s2,a0
    4894:	b579                	j	4722 <_dtoa_r+0x440>
    4896:	85e2                	mv	a1,s8
    4898:	854a                	mv	a0,s2
    489a:	f8f42c23          	sw	a5,-104(s0)
    489e:	443010ef          	jal	64e0 <__mcmp>
    48a2:	f9842783          	lw	a5,-104(s0)
    48a6:	e8055ee3          	bgez	a0,4742 <_dtoa_r+0x460>
    48aa:	f8f42023          	sw	a5,-128(s0)
    48ae:	85ca                	mv	a1,s2
    48b0:	fffb8793          	addi	a5,s7,-1
    48b4:	4681                	li	a3,0
    48b6:	4629                	li	a2,10
    48b8:	8526                	mv	a0,s1
    48ba:	f8f42c23          	sw	a5,-104(s0)
    48be:	3ec010ef          	jal	5caa <__multadd>
    48c2:	f8c42783          	lw	a5,-116(s0)
    48c6:	892a                	mv	s2,a0
    48c8:	0017a713          	slti	a4,a5,1
    48cc:	f8042783          	lw	a5,-128(s0)
    48d0:	00e7fab3          	and	s5,a5,a4
    48d4:	fa042783          	lw	a5,-96(s0)
    48d8:	48079b63          	bnez	a5,4d6e <_dtoa_r+0xa8c>
    48dc:	060a92e3          	bnez	s5,5140 <_dtoa_r+0xe5e>
    48e0:	8a5e                	mv	s4,s7
    48e2:	f8c42a83          	lw	s5,-116(s0)
    48e6:	f9842b83          	lw	s7,-104(s0)
    48ea:	4d85                	li	s11,1
    48ec:	a809                	j	48fe <_dtoa_r+0x61c>
    48ee:	85ca                	mv	a1,s2
    48f0:	4681                	li	a3,0
    48f2:	4629                	li	a2,10
    48f4:	8526                	mv	a0,s1
    48f6:	3b4010ef          	jal	5caa <__multadd>
    48fa:	0d85                	addi	s11,s11,1
    48fc:	892a                	mv	s2,a0
    48fe:	85e2                	mv	a1,s8
    4900:	854a                	mv	a0,s2
    4902:	83bff0ef          	jal	413c <quorem>
    4906:	03050c93          	addi	s9,a0,48
    490a:	01b987b3          	add	a5,s3,s11
    490e:	ff978fa3          	sb	s9,-1(a5)
    4912:	fd5dcee3          	blt	s11,s5,48ee <_dtoa_r+0x60c>
    4916:	4d81                	li	s11,0
    4918:	01505463          	blez	s5,4920 <_dtoa_r+0x63e>
    491c:	fffa8d93          	addi	s11,s5,-1
    4920:	00198793          	addi	a5,s3,1
    4924:	9dbe                	add	s11,s11,a5
    4926:	4681                	li	a3,0
    4928:	85ca                	mv	a1,s2
    492a:	4605                	li	a2,1
    492c:	8526                	mv	a0,s1
    492e:	fad42423          	sw	a3,-88(s0)
    4932:	289010ef          	jal	63ba <__lshift>
    4936:	85e2                	mv	a1,s8
    4938:	892a                	mv	s2,a0
    493a:	3a7010ef          	jal	64e0 <__mcmp>
    493e:	fa842683          	lw	a3,-88(s0)
    4942:	08a05163          	blez	a0,49c4 <_dtoa_r+0x6e2>
    4946:	03900713          	li	a4,57
    494a:	a019                	j	4950 <_dtoa_r+0x66e>
    494c:	6b3d8e63          	beq	s11,s3,5008 <_dtoa_r+0xd26>
    4950:	fffdc783          	lbu	a5,-1(s11)
    4954:	8aee                	mv	s5,s11
    4956:	1dfd                	addi	s11,s11,-1
    4958:	fee78ae3          	beq	a5,a4,494c <_dtoa_r+0x66a>
    495c:	0785                	addi	a5,a5,1
    495e:	00fd8023          	sb	a5,0(s11)
    4962:	85e2                	mv	a1,s8
    4964:	8526                	mv	a0,s1
    4966:	fad42423          	sw	a3,-88(s0)
    496a:	318010ef          	jal	5c82 <_Bfree>
    496e:	e20b00e3          	beqz	s6,478e <_dtoa_r+0x4ac>
    4972:	fa842683          	lw	a3,-88(s0)
    4976:	e00688e3          	beqz	a3,4786 <_dtoa_r+0x4a4>
    497a:	e16686e3          	beq	a3,s6,4786 <_dtoa_r+0x4a4>
    497e:	85b6                	mv	a1,a3
    4980:	8526                	mv	a0,s1
    4982:	300010ef          	jal	5c82 <_Bfree>
    4986:	b501                	j	4786 <_dtoa_r+0x4a4>
    4988:	f9042783          	lw	a5,-112(s0)
    498c:	43370713          	addi	a4,a4,1075
    4990:	5afd                	li	s5,-1
    4992:	983a                	add	a6,a6,a4
    4994:	f9542623          	sw	s5,-116(s0)
    4998:	9766                	add	a4,a4,s9
    499a:	f8f42023          	sw	a5,-128(s0)
    499e:	8662                	mv	a2,s8
    49a0:	4d81                	li	s11,0
    49a2:	b945                	j	4652 <_dtoa_r+0x370>
    49a4:	fa042783          	lw	a5,-96(s0)
    49a8:	3e079063          	bnez	a5,4d88 <_dtoa_r+0xaa6>
    49ac:	001b8a13          	addi	s4,s7,1
    49b0:	bf2d                	j	48ea <_dtoa_r+0x608>
    49b2:	4b05                	li	s6,1
    49b4:	f9642423          	sw	s6,-120(s0)
    49b8:	be39                	j	44d6 <_dtoa_r+0x1f4>
    49ba:	4785                	li	a5,1
    49bc:	4b01                	li	s6,0
    49be:	f8f42423          	sw	a5,-120(s0)
    49c2:	be11                	j	44d6 <_dtoa_r+0x1f4>
    49c4:	e509                	bnez	a0,49ce <_dtoa_r+0x6ec>
    49c6:	001cfc93          	andi	s9,s9,1
    49ca:	f60c9ee3          	bnez	s9,4946 <_dtoa_r+0x664>
    49ce:	03000713          	li	a4,48
    49d2:	8aee                	mv	s5,s11
    49d4:	fffdc783          	lbu	a5,-1(s11)
    49d8:	1dfd                	addi	s11,s11,-1
    49da:	fee78ce3          	beq	a5,a4,49d2 <_dtoa_r+0x6f0>
    49de:	b751                	j	4962 <_dtoa_r+0x680>
    49e0:	5a96                	lw	s5,100(sp)
    49e2:	4c66                	lw	s8,88(sp)
    49e4:	4cd6                	lw	s9,84(sp)
    49e6:	ba45                	j	4396 <_dtoa_r+0xb4>
    49e8:	1ae7f7d3          	fdiv.d	fa5,fa5,fa4
    49ec:	f9842783          	lw	a5,-104(s0)
    49f0:	c799                	beqz	a5,49fe <_dtoa_r+0x71c>
    49f2:	8581b707          	fld	fa4,-1960(gp) # 20000718 <__malloc_trim_threshold+0x44>
    49f6:	a2e797d3          	flt.d	a5,fa5,fa4
    49fa:	56079c63          	bnez	a5,4f72 <_dtoa_r+0xc90>
    49fe:	d2068753          	fcvt.d.w	fa4,a3
    4a02:	8681b687          	fld	fa3,-1944(gp) # 20000728 <__malloc_trim_threshold+0x54>
    4a06:	fcc006b7          	lui	a3,0xfcc00
    4a0a:	6af77743          	fmadd.d	fa4,fa4,fa5,fa3
    4a0e:	f8e43027          	fsd	fa4,-128(s0)
    4a12:	f8042703          	lw	a4,-128(s0)
    4a16:	f8442783          	lw	a5,-124(s0)
    4a1a:	833a                	mv	t1,a4
    4a1c:	00f683b3          	add	t2,a3,a5
    4a20:	0c0a8f63          	beqz	s5,4afe <_dtoa_r+0x81c>
    4a24:	865e                	mv	a2,s7
    4a26:	8556                	mv	a0,s5
    4a28:	c2079753          	fcvt.w.d	a4,fa5,rtz
    4a2c:	66ad                	lui	a3,0xb
    4a2e:	8f068593          	addi	a1,a3,-1808 # a8f0 <__mprec_tens>
    4a32:	d2070753          	fcvt.d.w	fa4,a4
    4a36:	f8842683          	lw	a3,-120(s0)
    4a3a:	00351793          	slli	a5,a0,0x3
    4a3e:	03070713          	addi	a4,a4,48
    4a42:	97ae                	add	a5,a5,a1
    4a44:	00e98023          	sb	a4,0(s3)
    4a48:	ff87b687          	fld	fa3,-8(a5)
    4a4c:	0ae7f7d3          	fsub.d	fa5,fa5,fa4
    4a50:	00198793          	addi	a5,s3,1
    4a54:	2a068063          	beqz	a3,4cf4 <_dtoa_r+0xa12>
    4a58:	8281b707          	fld	fa4,-2008(gp) # 200006e8 <__malloc_trim_threshold+0x14>
    4a5c:	f8642023          	sw	t1,-128(s0)
    4a60:	f8742223          	sw	t2,-124(s0)
    4a64:	1ad77753          	fdiv.d	fa4,fa4,fa3
    4a68:	f8043687          	fld	fa3,-128(s0)
    4a6c:	0ad77753          	fsub.d	fa4,fa4,fa3
    4a70:	a2e79753          	flt.d	a4,fa5,fa4
    4a74:	5c071d63          	bnez	a4,504e <_dtoa_r+0xd6c>
    4a78:	8581b587          	fld	fa1,-1960(gp) # 20000718 <__malloc_trim_threshold+0x44>
    4a7c:	8601b607          	fld	fa2,-1952(gp) # 20000720 <__malloc_trim_threshold+0x4c>
    4a80:	4681                	li	a3,0
    4a82:	a03d                	j	4ab0 <_dtoa_r+0x7ce>
    4a84:	0685                	addi	a3,a3,1
    4a86:	18a6d563          	bge	a3,a0,4c10 <_dtoa_r+0x92e>
    4a8a:	12c7f7d3          	fmul.d	fa5,fa5,fa2
    4a8e:	12c77753          	fmul.d	fa4,fa4,fa2
    4a92:	0785                	addi	a5,a5,1
    4a94:	c2079753          	fcvt.w.d	a4,fa5,rtz
    4a98:	d20706d3          	fcvt.d.w	fa3,a4
    4a9c:	03070713          	addi	a4,a4,48
    4aa0:	fee78fa3          	sb	a4,-1(a5)
    4aa4:	0ad7f7d3          	fsub.d	fa5,fa5,fa3
    4aa8:	a2e79753          	flt.d	a4,fa5,fa4
    4aac:	5a071163          	bnez	a4,504e <_dtoa_r+0xd6c>
    4ab0:	0af5f6d3          	fsub.d	fa3,fa1,fa5
    4ab4:	a2e69753          	flt.d	a4,fa3,fa4
    4ab8:	d771                	beqz	a4,4a84 <_dtoa_r+0x7a2>
    4aba:	03900693          	li	a3,57
    4abe:	a019                	j	4ac4 <_dtoa_r+0x7e2>
    4ac0:	57378e63          	beq	a5,s3,503c <_dtoa_r+0xd5a>
    4ac4:	8abe                	mv	s5,a5
    4ac6:	fff7c703          	lbu	a4,-1(a5)
    4aca:	17fd                	addi	a5,a5,-1
    4acc:	fed70ae3          	beq	a4,a3,4ac0 <_dtoa_r+0x7de>
    4ad0:	0705                	addi	a4,a4,1
    4ad2:	00e78023          	sb	a4,0(a5)
    4ad6:	00160a13          	addi	s4,a2,1
    4ada:	b955                	j	478e <_dtoa_r+0x4ac>
    4adc:	d2068753          	fcvt.d.w	fa4,a3
    4ae0:	8681b687          	fld	fa3,-1944(gp) # 20000728 <__malloc_trim_threshold+0x54>
    4ae4:	fcc006b7          	lui	a3,0xfcc00
    4ae8:	6af77743          	fmadd.d	fa4,fa4,fa5,fa3
    4aec:	f8e43027          	fsd	fa4,-128(s0)
    4af0:	f8042703          	lw	a4,-128(s0)
    4af4:	f8442783          	lw	a5,-124(s0)
    4af8:	833a                	mv	t1,a4
    4afa:	00f683b3          	add	t2,a3,a5
    4afe:	8701b707          	fld	fa4,-1936(gp) # 20000730 <__malloc_trim_threshold+0x5c>
    4b02:	f8642023          	sw	t1,-128(s0)
    4b06:	f8742223          	sw	t2,-124(s0)
    4b0a:	0ae7f7d3          	fsub.d	fa5,fa5,fa4
    4b0e:	f8043707          	fld	fa4,-128(s0)
    4b12:	a2f717d3          	flt.d	a5,fa4,fa5
    4b16:	1c079263          	bnez	a5,4cda <_dtoa_r+0x9f8>
    4b1a:	22e71753          	fneg.d	fa4,fa4
    4b1e:	a2e797d3          	flt.d	a5,fa5,fa4
    4b22:	12079163          	bnez	a5,4c44 <_dtoa_r+0x962>
    4b26:	fbc42783          	lw	a5,-68(s0)
    4b2a:	0007c663          	bltz	a5,4b36 <_dtoa_r+0x854>
    4b2e:	00fba793          	slti	a5,s7,15
    4b32:	5c079263          	bnez	a5,50f6 <_dtoa_r+0xe14>
    4b36:	f8842783          	lw	a5,-120(s0)
    4b3a:	e7a9                	bnez	a5,4b84 <_dtoa_r+0x8a2>
    4b3c:	3b905a63          	blez	s9,4ef0 <_dtoa_r+0xc0e>
    4b40:	3b005863          	blez	a6,4ef0 <_dtoa_r+0xc0e>
    4b44:	87e6                	mv	a5,s9
    4b46:	01985363          	bge	a6,s9,4b4c <_dtoa_r+0x86a>
    4b4a:	87c2                	mv	a5,a6
    4b4c:	40fc8733          	sub	a4,s9,a5
    4b50:	40f80833          	sub	a6,a6,a5
    4b54:	5d804863          	bgtz	s8,5124 <_dtoa_r+0xe42>
    4b58:	4585                	li	a1,1
    4b5a:	8526                	mv	a0,s1
    4b5c:	f9042023          	sw	a6,-128(s0)
    4b60:	fae42023          	sw	a4,-96(s0)
    4b64:	4de010ef          	jal	6042 <__i2b>
    4b68:	f9042783          	lw	a5,-112(s0)
    4b6c:	fa042703          	lw	a4,-96(s0)
    4b70:	f8042803          	lw	a6,-128(s0)
    4b74:	8c2a                	mv	s8,a0
    4b76:	4e079363          	bnez	a5,505c <_dtoa_r+0xd7a>
    4b7a:	fa042023          	sw	zero,-96(s0)
    4b7e:	8cba                	mv	s9,a4
    4b80:	4b01                	li	s6,0
    4b82:	beb5                	j	46fe <_dtoa_r+0x41c>
    4b84:	fffa8613          	addi	a2,s5,-1
    4b88:	46cc4663          	blt	s8,a2,4ff4 <_dtoa_r+0xd12>
    4b8c:	f9042783          	lw	a5,-112(s0)
    4b90:	40cc0633          	sub	a2,s8,a2
    4b94:	f8f42023          	sw	a5,-128(s0)
    4b98:	480acd63          	bltz	s5,5032 <_dtoa_r+0xd50>
    4b9c:	9856                	add	a6,a6,s5
    4b9e:	015c8733          	add	a4,s9,s5
    4ba2:	bc45                	j	4652 <_dtoa_r+0x370>
    4ba4:	47f1                	li	a5,28
    4ba6:	973e                	add	a4,a4,a5
    4ba8:	9cbe                	add	s9,s9,a5
    4baa:	983e                	add	a6,a6,a5
    4bac:	b6e05be3          	blez	a4,4722 <_dtoa_r+0x440>
    4bb0:	b9c1                	j	4880 <_dtoa_r+0x59e>
    4bb2:	3e0b8f63          	beqz	s7,4fb0 <_dtoa_r+0xcce>
    4bb6:	417007b3          	neg	a5,s7
    4bba:	00f7f713          	andi	a4,a5,15
    4bbe:	66ad                	lui	a3,0xb
    4bc0:	070e                	slli	a4,a4,0x3
    4bc2:	8f068593          	addi	a1,a3,-1808 # a8f0 <__mprec_tens>
    4bc6:	972e                	add	a4,a4,a1
    4bc8:	231c                	fld	fa5,0(a4)
    4bca:	fa043707          	fld	fa4,-96(s0)
    4bce:	8791                	srai	a5,a5,0x4
    4bd0:	12f777d3          	fmul.d	fa5,fa4,fa5
    4bd4:	56078c63          	beqz	a5,514c <_dtoa_r+0xe6a>
    4bd8:	672d                	lui	a4,0xb
    4bda:	9e070713          	addi	a4,a4,-1568 # a9e0 <__mprec_bigtens>
    4bde:	4689                	li	a3,2
    4be0:	a019                	j	4be6 <_dtoa_r+0x904>
    4be2:	8785                	srai	a5,a5,0x1
    4be4:	0721                	addi	a4,a4,8
    4be6:	0017f613          	andi	a2,a5,1
    4bea:	e611                	bnez	a2,4bf6 <_dtoa_r+0x914>
    4bec:	8785                	srai	a5,a5,0x1
    4bee:	0721                	addi	a4,a4,8
    4bf0:	0017f613          	andi	a2,a5,1
    4bf4:	d67d                	beqz	a2,4be2 <_dtoa_r+0x900>
    4bf6:	2318                	fld	fa4,0(a4)
    4bf8:	8785                	srai	a5,a5,0x1
    4bfa:	0685                	addi	a3,a3,1
    4bfc:	12e7f7d3          	fmul.d	fa5,fa5,fa4
    4c00:	de0786e3          	beqz	a5,49ec <_dtoa_r+0x70a>
    4c04:	0721                	addi	a4,a4,8
    4c06:	b7ed                	j	4bf0 <_dtoa_r+0x90e>
    4c08:	fffdca13          	not	s4,s11
    4c0c:	8ace                	mv	s5,s3
    4c0e:	b6ad                	j	4778 <_dtoa_r+0x496>
    4c10:	fbc42783          	lw	a5,-68(s0)
    4c14:	f607c8e3          	bltz	a5,4b84 <_dtoa_r+0x8a2>
    4c18:	00fba793          	slti	a5,s7,15
    4c1c:	d7a5                	beqz	a5,4b84 <_dtoa_r+0x8a2>
    4c1e:	003b9793          	slli	a5,s7,0x3
    4c22:	97ae                	add	a5,a5,a1
    4c24:	2398                	fld	fa4,0(a5)
    4c26:	be0dd8e3          	bgez	s11,4816 <_dtoa_r+0x534>
    4c2a:	bf5046e3          	bgtz	s5,4816 <_dtoa_r+0x534>
    4c2e:	000a9b63          	bnez	s5,4c44 <_dtoa_r+0x962>
    4c32:	8701b787          	fld	fa5,-1936(gp) # 20000730 <__malloc_trim_threshold+0x5c>
    4c36:	12f77753          	fmul.d	fa4,fa4,fa5
    4c3a:	fa043787          	fld	fa5,-96(s0)
    4c3e:	a2e787d3          	fle.d	a5,fa5,fa4
    4c42:	cfc1                	beqz	a5,4cda <_dtoa_r+0x9f8>
    4c44:	4581                	li	a1,0
    4c46:	8526                	mv	a0,s1
    4c48:	03a010ef          	jal	5c82 <_Bfree>
    4c4c:	41b00a33          	neg	s4,s11
    4c50:	8ace                	mv	s5,s3
    4c52:	be35                	j	478e <_dtoa_r+0x4ac>
    4c54:	f8f42823          	sw	a5,-112(s0)
    4c58:	4785                	li	a5,1
    4c5a:	faf42023          	sw	a5,-96(s0)
    4c5e:	f9042603          	lw	a2,-112(s0)
    4c62:	85e2                	mv	a1,s8
    4c64:	8526                	mv	a0,s1
    4c66:	f9042423          	sw	a6,-120(s0)
    4c6a:	f8e42023          	sw	a4,-128(s0)
    4c6e:	64e010ef          	jal	62bc <__pow5mult>
    4c72:	4785                	li	a5,1
    4c74:	f8042823          	sw	zero,-112(s0)
    4c78:	f8042703          	lw	a4,-128(s0)
    4c7c:	f8842803          	lw	a6,-120(s0)
    4c80:	8c2a                	mv	s8,a0
    4c82:	0347c463          	blt	a5,s4,4caa <_dtoa_r+0x9c8>
    4c86:	fa842683          	lw	a3,-88(s0)
    4c8a:	e285                	bnez	a3,4caa <_dtoa_r+0x9c8>
    4c8c:	fac42683          	lw	a3,-84(s0)
    4c90:	06b2                	slli	a3,a3,0xc
    4c92:	ee81                	bnez	a3,4caa <_dtoa_r+0x9c8>
    4c94:	fac42603          	lw	a2,-84(s0)
    4c98:	01465693          	srli	a3,a2,0x14
    4c9c:	7ff6f693          	andi	a3,a3,2047
    4ca0:	c689                	beqz	a3,4caa <_dtoa_r+0x9c8>
    4ca2:	0705                	addi	a4,a4,1
    4ca4:	0805                	addi	a6,a6,1
    4ca6:	f8f42823          	sw	a5,-112(s0)
    4caa:	010c2783          	lw	a5,16(s8)
    4cae:	f9042423          	sw	a6,-120(s0)
    4cb2:	f8e42023          	sw	a4,-128(s0)
    4cb6:	078a                	slli	a5,a5,0x2
    4cb8:	97e2                	add	a5,a5,s8
    4cba:	4b88                	lw	a0,16(a5)
    4cbc:	20a010ef          	jal	5ec6 <__hi0bits>
    4cc0:	02000793          	li	a5,32
    4cc4:	f8042703          	lw	a4,-128(s0)
    4cc8:	f8842803          	lw	a6,-120(s0)
    4ccc:	8f89                	sub	a5,a5,a0
    4cce:	bc0d                	j	4700 <_dtoa_r+0x41e>
    4cd0:	fa043787          	fld	fa5,-96(s0)
    4cd4:	4689                	li	a3,2
    4cd6:	883ff06f          	j	4558 <_dtoa_r+0x276>
    4cda:	03100793          	li	a5,49
    4cde:	00f98023          	sb	a5,0(s3)
    4ce2:	4581                	li	a1,0
    4ce4:	8526                	mv	a0,s1
    4ce6:	00198a93          	addi	s5,s3,1
    4cea:	799000ef          	jal	5c82 <_Bfree>
    4cee:	002b8a13          	addi	s4,s7,2
    4cf2:	bc71                	j	478e <_dtoa_r+0x4ac>
    4cf4:	f8642023          	sw	t1,-128(s0)
    4cf8:	f8742223          	sw	t2,-124(s0)
    4cfc:	f8043707          	fld	fa4,-128(s0)
    4d00:	4705                	li	a4,1
    4d02:	12e6f653          	fmul.d	fa2,fa3,fa4
    4d06:	42e50b63          	beq	a0,a4,513c <_dtoa_r+0xe5a>
    4d0a:	8601b687          	fld	fa3,-1952(gp) # 20000720 <__malloc_trim_threshold+0x4c>
    4d0e:	86be                	mv	a3,a5
    4d10:	00a988b3          	add	a7,s3,a0
    4d14:	12d7f7d3          	fmul.d	fa5,fa5,fa3
    4d18:	0685                	addi	a3,a3,1
    4d1a:	c2079753          	fcvt.w.d	a4,fa5,rtz
    4d1e:	d2070753          	fcvt.d.w	fa4,a4
    4d22:	03070713          	addi	a4,a4,48
    4d26:	fee68fa3          	sb	a4,-1(a3)
    4d2a:	0ae7f7d3          	fsub.d	fa5,fa5,fa4
    4d2e:	fed893e3          	bne	a7,a3,4d14 <_dtoa_r+0xa32>
    4d32:	fff78713          	addi	a4,a5,-1
    4d36:	972a                	add	a4,a4,a0
    4d38:	8281b707          	fld	fa4,-2008(gp) # 200006e8 <__malloc_trim_threshold+0x14>
    4d3c:	02e676d3          	fadd.d	fa3,fa2,fa4
    4d40:	a2f696d3          	flt.d	a3,fa3,fa5
    4d44:	30069a63          	bnez	a3,5058 <_dtoa_r+0xd76>
    4d48:	0ac77753          	fsub.d	fa4,fa4,fa2
    4d4c:	a2e796d3          	flt.d	a3,fa5,fa4
    4d50:	38069763          	bnez	a3,50de <_dtoa_r+0xdfc>
    4d54:	fbc42703          	lw	a4,-68(s0)
    4d58:	de0742e3          	bltz	a4,4b3c <_dtoa_r+0x85a>
    4d5c:	00fba713          	slti	a4,s7,15
    4d60:	dc070ee3          	beqz	a4,4b3c <_dtoa_r+0x85a>
    4d64:	003b9713          	slli	a4,s7,0x3
    4d68:	972e                	add	a4,a4,a1
    4d6a:	2318                	fld	fa4,0(a4)
    4d6c:	b47d                	j	481a <_dtoa_r+0x538>
    4d6e:	85da                	mv	a1,s6
    4d70:	4681                	li	a3,0
    4d72:	4629                	li	a2,10
    4d74:	8526                	mv	a0,s1
    4d76:	735000ef          	jal	5caa <__multadd>
    4d7a:	8b2a                	mv	s6,a0
    4d7c:	f9842b83          	lw	s7,-104(s0)
    4d80:	3c0a9263          	bnez	s5,5144 <_dtoa_r+0xe62>
    4d84:	f8c42a83          	lw	s5,-116(s0)
    4d88:	01905863          	blez	s9,4d98 <_dtoa_r+0xab6>
    4d8c:	85da                	mv	a1,s6
    4d8e:	8666                	mv	a2,s9
    4d90:	8526                	mv	a0,s1
    4d92:	628010ef          	jal	63ba <__lshift>
    4d96:	8b2a                	mv	s6,a0
    4d98:	f9042783          	lw	a5,-112(s0)
    4d9c:	fb642023          	sw	s6,-96(s0)
    4da0:	2c079363          	bnez	a5,5066 <_dtoa_r+0xd84>
    4da4:	fff98793          	addi	a5,s3,-1
    4da8:	97d6                	add	a5,a5,s5
    4daa:	f8f42623          	sw	a5,-116(s0)
    4dae:	fa842783          	lw	a5,-88(s0)
    4db2:	8ace                	mv	s5,s3
    4db4:	8b85                	andi	a5,a5,1
    4db6:	f8f42423          	sw	a5,-120(s0)
    4dba:	85e2                	mv	a1,s8
    4dbc:	854a                	mv	a0,s2
    4dbe:	b7eff0ef          	jal	413c <quorem>
    4dc2:	f8a42023          	sw	a0,-128(s0)
    4dc6:	85da                	mv	a1,s6
    4dc8:	03050c93          	addi	s9,a0,48
    4dcc:	854a                	mv	a0,s2
    4dce:	712010ef          	jal	64e0 <__mcmp>
    4dd2:	fa042603          	lw	a2,-96(s0)
    4dd6:	85e2                	mv	a1,s8
    4dd8:	8daa                	mv	s11,a0
    4dda:	8526                	mv	a0,s1
    4ddc:	754010ef          	jal	6530 <__mdiff>
    4de0:	455c                	lw	a5,12(a0)
    4de2:	85aa                	mv	a1,a0
    4de4:	efad                	bnez	a5,4e5e <_dtoa_r+0xb7c>
    4de6:	f8a42c23          	sw	a0,-104(s0)
    4dea:	854a                	mv	a0,s2
    4dec:	6f4010ef          	jal	64e0 <__mcmp>
    4df0:	f9842583          	lw	a1,-104(s0)
    4df4:	f8a42823          	sw	a0,-112(s0)
    4df8:	8526                	mv	a0,s1
    4dfa:	689000ef          	jal	5c82 <_Bfree>
    4dfe:	f9042783          	lw	a5,-112(s0)
    4e02:	00fa6733          	or	a4,s4,a5
    4e06:	ef45                	bnez	a4,4ebe <_dtoa_r+0xbdc>
    4e08:	f8842783          	lw	a5,-120(s0)
    4e0c:	32078163          	beqz	a5,512e <_dtoa_r+0xe4c>
    4e10:	080dc763          	bltz	s11,4e9e <_dtoa_r+0xbbc>
    4e14:	f8c42783          	lw	a5,-116(s0)
    4e18:	019a8023          	sb	s9,0(s5)
    4e1c:	001a8d93          	addi	s11,s5,1
    4e20:	2b578863          	beq	a5,s5,50d0 <_dtoa_r+0xdee>
    4e24:	85ca                	mv	a1,s2
    4e26:	4681                	li	a3,0
    4e28:	4629                	li	a2,10
    4e2a:	8526                	mv	a0,s1
    4e2c:	67f000ef          	jal	5caa <__multadd>
    4e30:	fa042783          	lw	a5,-96(s0)
    4e34:	892a                	mv	s2,a0
    4e36:	85da                	mv	a1,s6
    4e38:	4681                	li	a3,0
    4e3a:	4629                	li	a2,10
    4e3c:	8526                	mv	a0,s1
    4e3e:	06fb0963          	beq	s6,a5,4eb0 <_dtoa_r+0xbce>
    4e42:	669000ef          	jal	5caa <__multadd>
    4e46:	fa042583          	lw	a1,-96(s0)
    4e4a:	8b2a                	mv	s6,a0
    4e4c:	4681                	li	a3,0
    4e4e:	8526                	mv	a0,s1
    4e50:	4629                	li	a2,10
    4e52:	659000ef          	jal	5caa <__multadd>
    4e56:	faa42023          	sw	a0,-96(s0)
    4e5a:	8aee                	mv	s5,s11
    4e5c:	bfb9                	j	4dba <_dtoa_r+0xad8>
    4e5e:	8526                	mv	a0,s1
    4e60:	623000ef          	jal	5c82 <_Bfree>
    4e64:	000dca63          	bltz	s11,4e78 <_dtoa_r+0xb96>
    4e68:	fa842783          	lw	a5,-88(s0)
    4e6c:	01ba6db3          	or	s11,s4,s11
    4e70:	8b85                	andi	a5,a5,1
    4e72:	01b7e7b3          	or	a5,a5,s11
    4e76:	efb9                	bnez	a5,4ed4 <_dtoa_r+0xbf2>
    4e78:	85ca                	mv	a1,s2
    4e7a:	4605                	li	a2,1
    4e7c:	8526                	mv	a0,s1
    4e7e:	53c010ef          	jal	63ba <__lshift>
    4e82:	85e2                	mv	a1,s8
    4e84:	892a                	mv	s2,a0
    4e86:	65a010ef          	jal	64e0 <__mcmp>
    4e8a:	2ca05463          	blez	a0,5152 <_dtoa_r+0xe70>
    4e8e:	03900793          	li	a5,57
    4e92:	26fc8c63          	beq	s9,a5,510a <_dtoa_r+0xe28>
    4e96:	f8042783          	lw	a5,-128(s0)
    4e9a:	03178c93          	addi	s9,a5,49
    4e9e:	86da                	mv	a3,s6
    4ea0:	019a8023          	sb	s9,0(s5)
    4ea4:	fa042b03          	lw	s6,-96(s0)
    4ea8:	0a85                	addi	s5,s5,1
    4eaa:	001b8a13          	addi	s4,s7,1
    4eae:	bc55                	j	4962 <_dtoa_r+0x680>
    4eb0:	5fb000ef          	jal	5caa <__multadd>
    4eb4:	8b2a                	mv	s6,a0
    4eb6:	faa42023          	sw	a0,-96(s0)
    4eba:	8aee                	mv	s5,s11
    4ebc:	bdfd                	j	4dba <_dtoa_r+0xad8>
    4ebe:	260dc563          	bltz	s11,5128 <_dtoa_r+0xe46>
    4ec2:	f8842683          	lw	a3,-120(s0)
    4ec6:	01ba6733          	or	a4,s4,s11
    4eca:	8f55                	or	a4,a4,a3
    4ecc:	24070e63          	beqz	a4,5128 <_dtoa_r+0xe46>
    4ed0:	f4f052e3          	blez	a5,4e14 <_dtoa_r+0xb32>
    4ed4:	03900793          	li	a5,57
    4ed8:	22fc8963          	beq	s9,a5,510a <_dtoa_r+0xe28>
    4edc:	0c85                	addi	s9,s9,1
    4ede:	019a8023          	sb	s9,0(s5)
    4ee2:	86da                	mv	a3,s6
    4ee4:	0a85                	addi	s5,s5,1
    4ee6:	fa042b03          	lw	s6,-96(s0)
    4eea:	001b8a13          	addi	s4,s7,1
    4eee:	bc95                	j	4962 <_dtoa_r+0x680>
    4ef0:	15805c63          	blez	s8,5048 <_dtoa_r+0xd66>
    4ef4:	85ca                	mv	a1,s2
    4ef6:	8662                	mv	a2,s8
    4ef8:	8526                	mv	a0,s1
    4efa:	fb042023          	sw	a6,-96(s0)
    4efe:	3be010ef          	jal	62bc <__pow5mult>
    4f02:	892a                	mv	s2,a0
    4f04:	4585                	li	a1,1
    4f06:	8526                	mv	a0,s1
    4f08:	13a010ef          	jal	6042 <__i2b>
    4f0c:	f9042783          	lw	a5,-112(s0)
    4f10:	fa042803          	lw	a6,-96(s0)
    4f14:	8c2a                	mv	s8,a0
    4f16:	10079063          	bnez	a5,5016 <_dtoa_r+0xd34>
    4f1a:	fa042023          	sw	zero,-96(s0)
    4f1e:	8766                	mv	a4,s9
    4f20:	4b01                	li	s6,0
    4f22:	fdcff06f          	j	46fe <_dtoa_r+0x41c>
    4f26:	46f1                	li	a3,28
    4f28:	fed78b63          	beq	a5,a3,471e <_dtoa_r+0x43c>
    4f2c:	03c00693          	li	a3,60
    4f30:	40f687b3          	sub	a5,a3,a5
    4f34:	b98d                	j	4ba6 <_dtoa_r+0x8c4>
    4f36:	4b05                	li	s6,1
    4f38:	f8042423          	sw	zero,-120(s0)
    4f3c:	01b05863          	blez	s11,4f4c <_dtoa_r+0xc6a>
    4f40:	f9b42623          	sw	s11,-116(s0)
    4f44:	8aee                	mv	s5,s11
    4f46:	866e                	mv	a2,s11
    4f48:	da2ff06f          	j	44ea <_dtoa_r+0x208>
    4f4c:	4d85                	li	s11,1
    4f4e:	f9b42623          	sw	s11,-116(s0)
    4f52:	0204ae23          	sw	zero,60(s1)
    4f56:	8aee                	mv	s5,s11
    4f58:	4581                	li	a1,0
    4f5a:	daaff06f          	j	4504 <_dtoa_r+0x222>
    4f5e:	8f11                	sub	a4,a4,a2
    4f60:	00170c93          	addi	s9,a4,1
    4f64:	885e                	mv	a6,s7
    4f66:	f9742823          	sw	s7,-112(s0)
    4f6a:	f8042c23          	sw	zero,-104(s0)
    4f6e:	d40ff06f          	j	44ae <_dtoa_r+0x1cc>
    4f72:	b60a85e3          	beqz	s5,4adc <_dtoa_r+0x7fa>
    4f76:	f8c42503          	lw	a0,-116(s0)
    4f7a:	baa056e3          	blez	a0,4b26 <_dtoa_r+0x844>
    4f7e:	8601b687          	fld	fa3,-1952(gp) # 20000720 <__malloc_trim_threshold+0x4c>
    4f82:	0685                	addi	a3,a3,1
    4f84:	12d7f7d3          	fmul.d	fa5,fa5,fa3
    4f88:	d2068753          	fcvt.d.w	fa4,a3
    4f8c:	8681b687          	fld	fa3,-1944(gp) # 20000728 <__malloc_trim_threshold+0x54>
    4f90:	fcc006b7          	lui	a3,0xfcc00
    4f94:	fffb8613          	addi	a2,s7,-1
    4f98:	6ae7f743          	fmadd.d	fa4,fa5,fa4,fa3
    4f9c:	f8e43027          	fsd	fa4,-128(s0)
    4fa0:	f8042703          	lw	a4,-128(s0)
    4fa4:	f8442783          	lw	a5,-124(s0)
    4fa8:	833a                	mv	t1,a4
    4faa:	00f683b3          	add	t2,a3,a5
    4fae:	bcad                	j	4a28 <_dtoa_r+0x746>
    4fb0:	fa043787          	fld	fa5,-96(s0)
    4fb4:	4689                	li	a3,2
    4fb6:	bc1d                	j	49ec <_dtoa_r+0x70a>
    4fb8:	85da                	mv	a1,s6
    4fba:	8526                	mv	a0,s1
    4fbc:	f9042423          	sw	a6,-120(s0)
    4fc0:	f8e42823          	sw	a4,-112(s0)
    4fc4:	2f8010ef          	jal	62bc <__pow5mult>
    4fc8:	864a                	mv	a2,s2
    4fca:	85aa                	mv	a1,a0
    4fcc:	8b2a                	mv	s6,a0
    4fce:	8526                	mv	a0,s1
    4fd0:	114010ef          	jal	60e4 <__multiply>
    4fd4:	faa42023          	sw	a0,-96(s0)
    4fd8:	85ca                	mv	a1,s2
    4fda:	8526                	mv	a0,s1
    4fdc:	4a7000ef          	jal	5c82 <_Bfree>
    4fe0:	f9042703          	lw	a4,-112(s0)
    4fe4:	fa042903          	lw	s2,-96(s0)
    4fe8:	f8842803          	lw	a6,-120(s0)
    4fec:	ec0c0563          	beqz	s8,46b6 <_dtoa_r+0x3d4>
    4ff0:	eaaff06f          	j	469a <_dtoa_r+0x3b8>
    4ff4:	f9042783          	lw	a5,-112(s0)
    4ff8:	418787b3          	sub	a5,a5,s8
    4ffc:	97b2                	add	a5,a5,a2
    4ffe:	8c32                	mv	s8,a2
    5000:	f8f42023          	sw	a5,-128(s0)
    5004:	4601                	li	a2,0
    5006:	be49                	j	4b98 <_dtoa_r+0x8b6>
    5008:	03100793          	li	a5,49
    500c:	002b8a13          	addi	s4,s7,2
    5010:	00f98023          	sb	a5,0(s3)
    5014:	b2b9                	j	4962 <_dtoa_r+0x680>
    5016:	8766                	mv	a4,s9
    5018:	fa042023          	sw	zero,-96(s0)
    501c:	4b01                	li	s6,0
    501e:	b181                	j	4c5e <_dtoa_r+0x97c>
    5020:	4785                	li	a5,1
    5022:	4b01                	li	s6,0
    5024:	f8f42423          	sw	a5,-120(s0)
    5028:	bf11                	j	4f3c <_dtoa_r+0xc5a>
    502a:	4b05                	li	s6,1
    502c:	f9642423          	sw	s6,-120(s0)
    5030:	b731                	j	4f3c <_dtoa_r+0xc5a>
    5032:	8766                	mv	a4,s9
    5034:	415c8cb3          	sub	s9,s9,s5
    5038:	e1aff06f          	j	4652 <_dtoa_r+0x370>
    503c:	03100713          	li	a4,49
    5040:	0605                	addi	a2,a2,1
    5042:	00e78023          	sb	a4,0(a5)
    5046:	bc41                	j	4ad6 <_dtoa_r+0x7f4>
    5048:	fb042023          	sw	a6,-96(s0)
    504c:	bd65                	j	4f04 <_dtoa_r+0xc22>
    504e:	00160a13          	addi	s4,a2,1
    5052:	8abe                	mv	s5,a5
    5054:	f3aff06f          	j	478e <_dtoa_r+0x4ac>
    5058:	87ba                	mv	a5,a4
    505a:	b485                	j	4aba <_dtoa_r+0x7d8>
    505c:	8cba                	mv	s9,a4
    505e:	fa042023          	sw	zero,-96(s0)
    5062:	4b01                	li	s6,0
    5064:	beed                	j	4c5e <_dtoa_r+0x97c>
    5066:	004b2583          	lw	a1,4(s6)
    506a:	8526                	mv	a0,s1
    506c:	391000ef          	jal	5bfc <_Balloc>
    5070:	8caa                	mv	s9,a0
    5072:	10050b63          	beqz	a0,5188 <_dtoa_r+0xea6>
    5076:	010b2603          	lw	a2,16(s6)
    507a:	00cb0593          	addi	a1,s6,12
    507e:	0531                	addi	a0,a0,12
    5080:	0609                	addi	a2,a2,2
    5082:	060a                	slli	a2,a2,0x2
    5084:	acefb0ef          	jal	352 <memcpy>
    5088:	85e6                	mv	a1,s9
    508a:	8526                	mv	a0,s1
    508c:	4605                	li	a2,1
    508e:	32c010ef          	jal	63ba <__lshift>
    5092:	faa42023          	sw	a0,-96(s0)
    5096:	b339                	j	4da4 <_dtoa_r+0xac2>
    5098:	02f7f7d3          	fadd.d	fa5,fa5,fa5
    509c:	001b8a13          	addi	s4,s7,1
    50a0:	a2f716d3          	flt.d	a3,fa4,fa5
    50a4:	ea89                	bnez	a3,50b6 <_dtoa_r+0xdd4>
    50a6:	a2e7a6d3          	feq.d	a3,fa5,fa4
    50aa:	8abe                	mv	s5,a5
    50ac:	ee068163          	beqz	a3,478e <_dtoa_r+0x4ac>
    50b0:	8b05                	andi	a4,a4,1
    50b2:	ec070e63          	beqz	a4,478e <_dtoa_r+0x4ac>
    50b6:	865e                	mv	a2,s7
    50b8:	b409                	j	4aba <_dtoa_r+0x7d8>
    50ba:	66ad                	lui	a3,0xb
    50bc:	652d                	lui	a0,0xb
    50be:	d4468693          	addi	a3,a3,-700 # ad44 <zeroes.0+0xbc>
    50c2:	d5850513          	addi	a0,a0,-680 # ad58 <zeroes.0+0xd0>
    50c6:	4601                	li	a2,0
    50c8:	1af00593          	li	a1,431
    50cc:	398020ef          	jal	7464 <__assert_func>
    50d0:	86da                	mv	a3,s6
    50d2:	001b8a13          	addi	s4,s7,1
    50d6:	fa042b03          	lw	s6,-96(s0)
    50da:	84fff06f          	j	4928 <_dtoa_r+0x646>
    50de:	03000693          	li	a3,48
    50e2:	fff74783          	lbu	a5,-1(a4)
    50e6:	8aba                	mv	s5,a4
    50e8:	177d                	addi	a4,a4,-1
    50ea:	fed78ce3          	beq	a5,a3,50e2 <_dtoa_r+0xe00>
    50ee:	00160a13          	addi	s4,a2,1
    50f2:	e9cff06f          	j	478e <_dtoa_r+0x4ac>
    50f6:	672d                	lui	a4,0xb
    50f8:	8f070593          	addi	a1,a4,-1808 # a8f0 <__mprec_tens>
    50fc:	b60d                	j	4c1e <_dtoa_r+0x93c>
    50fe:	faf42023          	sw	a5,-96(s0)
    5102:	f8042823          	sw	zero,-112(s0)
    5106:	df0ff06f          	j	46f6 <_dtoa_r+0x414>
    510a:	03900793          	li	a5,57
    510e:	86da                	mv	a3,s6
    5110:	00fa8023          	sb	a5,0(s5)
    5114:	fa042b03          	lw	s6,-96(s0)
    5118:	001a8d93          	addi	s11,s5,1
    511c:	001b8a13          	addi	s4,s7,1
    5120:	827ff06f          	j	4946 <_dtoa_r+0x664>
    5124:	8cba                	mv	s9,a4
    5126:	b3f9                	j	4ef4 <_dtoa_r+0xc12>
    5128:	d4f048e3          	bgtz	a5,4e78 <_dtoa_r+0xb96>
    512c:	bb8d                	j	4e9e <_dtoa_r+0xbbc>
    512e:	03900793          	li	a5,57
    5132:	fcfc8ce3          	beq	s9,a5,510a <_dtoa_r+0xe28>
    5136:	d7b040e3          	bgtz	s11,4e96 <_dtoa_r+0xbb4>
    513a:	b395                	j	4e9e <_dtoa_r+0xbbc>
    513c:	873e                	mv	a4,a5
    513e:	beed                	j	4d38 <_dtoa_r+0xa56>
    5140:	f9842b83          	lw	s7,-104(s0)
    5144:	f8c42a83          	lw	s5,-116(s0)
    5148:	e02ff06f          	j	474a <_dtoa_r+0x468>
    514c:	4689                	li	a3,2
    514e:	89fff06f          	j	49ec <_dtoa_r+0x70a>
    5152:	d40516e3          	bnez	a0,4e9e <_dtoa_r+0xbbc>
    5156:	001cf793          	andi	a5,s9,1
    515a:	d2079ae3          	bnez	a5,4e8e <_dtoa_r+0xbac>
    515e:	b381                	j	4e9e <_dtoa_r+0xbbc>
    5160:	fac42683          	lw	a3,-84(s0)
    5164:	0146d793          	srli	a5,a3,0x14
    5168:	7ff7f793          	andi	a5,a5,2047
    516c:	d8078563          	beqz	a5,46f6 <_dtoa_r+0x414>
    5170:	4785                	li	a5,1
    5172:	0705                	addi	a4,a4,1
    5174:	0805                	addi	a6,a6,1
    5176:	f8f42823          	sw	a5,-112(s0)
    517a:	d7cff06f          	j	46f6 <_dtoa_r+0x414>
    517e:	0204ae23          	sw	zero,60(s1)
    5182:	4581                	li	a1,0
    5184:	b80ff06f          	j	4504 <_dtoa_r+0x222>
    5188:	66ad                	lui	a3,0xb
    518a:	652d                	lui	a0,0xb
    518c:	d4468693          	addi	a3,a3,-700 # ad44 <zeroes.0+0xbc>
    5190:	d5850513          	addi	a0,a0,-680 # ad58 <zeroes.0+0xd0>
    5194:	4601                	li	a2,0
    5196:	2ef00593          	li	a1,751
    519a:	2ca020ef          	jal	7464 <__assert_func>
    519e:	d3498993          	addi	s3,s3,-716
    51a2:	9f4ff06f          	j	4396 <_dtoa_r+0xb4>

000051a6 <_malloc_trim_r>:
    51a6:	1101                	addi	sp,sp,-32
    51a8:	cc22                	sw	s0,24(sp)
    51aa:	ca26                	sw	s1,20(sp)
    51ac:	c84a                	sw	s2,16(sp)
    51ae:	c64e                	sw	s3,12(sp)
    51b0:	c452                	sw	s4,8(sp)
    51b2:	ce06                	sw	ra,28(sp)
    51b4:	1000                	addi	s0,sp,32
    51b6:	200009b7          	lui	s3,0x20000
    51ba:	84ae                	mv	s1,a1
    51bc:	8a2a                	mv	s4,a0
    51be:	14c98993          	addi	s3,s3,332 # 2000014c <__malloc_av_>
    51c2:	20f000ef          	jal	5bd0 <__malloc_lock>
    51c6:	0089a783          	lw	a5,8(s3)
    51ca:	6705                	lui	a4,0x1
    51cc:	0047a903          	lw	s2,4(a5)
    51d0:	ffc97913          	andi	s2,s2,-4
    51d4:	7ff90793          	addi	a5,s2,2047
    51d8:	7f078793          	addi	a5,a5,2032
    51dc:	409784b3          	sub	s1,a5,s1
    51e0:	80b1                	srli	s1,s1,0xc
    51e2:	14fd                	addi	s1,s1,-1
    51e4:	04b2                	slli	s1,s1,0xc
    51e6:	00e4cb63          	blt	s1,a4,51fc <_malloc_trim_r+0x56>
    51ea:	4581                	li	a1,0
    51ec:	8552                	mv	a0,s4
    51ee:	22a020ef          	jal	7418 <_sbrk_r>
    51f2:	0089a783          	lw	a5,8(s3)
    51f6:	97ca                	add	a5,a5,s2
    51f8:	02f50363          	beq	a0,a5,521e <_malloc_trim_r+0x78>
    51fc:	8552                	mv	a0,s4
    51fe:	1e9000ef          	jal	5be6 <__malloc_unlock>
    5202:	40f2                	lw	ra,28(sp)
    5204:	4462                	lw	s0,24(sp)
    5206:	44d2                	lw	s1,20(sp)
    5208:	4942                	lw	s2,16(sp)
    520a:	49b2                	lw	s3,12(sp)
    520c:	4a22                	lw	s4,8(sp)
    520e:	4501                	li	a0,0
    5210:	6105                	addi	sp,sp,32
    5212:	4581                	li	a1,0
    5214:	4601                	li	a2,0
    5216:	4681                	li	a3,0
    5218:	4701                	li	a4,0
    521a:	4781                	li	a5,0
    521c:	8082                	ret
    521e:	409005b3          	neg	a1,s1
    5222:	8552                	mv	a0,s4
    5224:	1f4020ef          	jal	7418 <_sbrk_r>
    5228:	57fd                	li	a5,-1
    522a:	04f50063          	beq	a0,a5,526a <_malloc_trim_r+0xc4>
    522e:	0089a683          	lw	a3,8(s3)
    5232:	f881a783          	lw	a5,-120(gp) # 20000e48 <__malloc_current_mallinfo>
    5236:	40990933          	sub	s2,s2,s1
    523a:	00196913          	ori	s2,s2,1
    523e:	8552                	mv	a0,s4
    5240:	8f85                	sub	a5,a5,s1
    5242:	0126a223          	sw	s2,4(a3)
    5246:	f8f1a423          	sw	a5,-120(gp) # 20000e48 <__malloc_current_mallinfo>
    524a:	19d000ef          	jal	5be6 <__malloc_unlock>
    524e:	40f2                	lw	ra,28(sp)
    5250:	4462                	lw	s0,24(sp)
    5252:	44d2                	lw	s1,20(sp)
    5254:	4942                	lw	s2,16(sp)
    5256:	49b2                	lw	s3,12(sp)
    5258:	4a22                	lw	s4,8(sp)
    525a:	4505                	li	a0,1
    525c:	6105                	addi	sp,sp,32
    525e:	4581                	li	a1,0
    5260:	4601                	li	a2,0
    5262:	4681                	li	a3,0
    5264:	4701                	li	a4,0
    5266:	4781                	li	a5,0
    5268:	8082                	ret
    526a:	4581                	li	a1,0
    526c:	8552                	mv	a0,s4
    526e:	1aa020ef          	jal	7418 <_sbrk_r>
    5272:	0089a703          	lw	a4,8(s3)
    5276:	46bd                	li	a3,15
    5278:	40e507b3          	sub	a5,a0,a4
    527c:	f8f6d0e3          	bge	a3,a5,51fc <_malloc_trim_r+0x56>
    5280:	8101a603          	lw	a2,-2032(gp) # 200006d0 <__malloc_sbrk_base>
    5284:	0017e793          	ori	a5,a5,1
    5288:	8d11                	sub	a0,a0,a2
    528a:	c35c                	sw	a5,4(a4)
    528c:	f8a1a423          	sw	a0,-120(gp) # 20000e48 <__malloc_current_mallinfo>
    5290:	b7b5                	j	51fc <_malloc_trim_r+0x56>

00005292 <_free_r>:
    5292:	c5fd                	beqz	a1,5380 <_free_r+0xee>
    5294:	1101                	addi	sp,sp,-32
    5296:	cc22                	sw	s0,24(sp)
    5298:	ca26                	sw	s1,20(sp)
    529a:	1000                	addi	s0,sp,32
    529c:	ce06                	sw	ra,28(sp)
    529e:	84aa                	mv	s1,a0
    52a0:	feb42623          	sw	a1,-20(s0)
    52a4:	12d000ef          	jal	5bd0 <__malloc_lock>
    52a8:	fec42583          	lw	a1,-20(s0)
    52ac:	20000537          	lui	a0,0x20000
    52b0:	14c50513          	addi	a0,a0,332 # 2000014c <__malloc_av_>
    52b4:	ffc5a803          	lw	a6,-4(a1)
    52b8:	ff858713          	addi	a4,a1,-8
    52bc:	00852883          	lw	a7,8(a0)
    52c0:	ffe87793          	andi	a5,a6,-2
    52c4:	00f70633          	add	a2,a4,a5
    52c8:	4254                	lw	a3,4(a2)
    52ca:	00187313          	andi	t1,a6,1
    52ce:	9af1                	andi	a3,a3,-4
    52d0:	12c88d63          	beq	a7,a2,540a <_free_r+0x178>
    52d4:	c254                	sw	a3,4(a2)
    52d6:	00d608b3          	add	a7,a2,a3
    52da:	0048a883          	lw	a7,4(a7)
    52de:	0018f893          	andi	a7,a7,1
    52e2:	06031963          	bnez	t1,5354 <_free_r+0xc2>
    52e6:	ff85a303          	lw	t1,-8(a1)
    52ea:	200005b7          	lui	a1,0x20000
    52ee:	15458593          	addi	a1,a1,340 # 20000154 <__malloc_av_+0x8>
    52f2:	40670733          	sub	a4,a4,t1
    52f6:	00872803          	lw	a6,8(a4) # 1008 <__stack_size+0x808>
    52fa:	979a                	add	a5,a5,t1
    52fc:	0eb80a63          	beq	a6,a1,53f0 <_free_r+0x15e>
    5300:	00c72303          	lw	t1,12(a4)
    5304:	00682623          	sw	t1,12(a6)
    5308:	01032423          	sw	a6,8(t1)
    530c:	12088763          	beqz	a7,543a <_free_r+0x1a8>
    5310:	0017e693          	ori	a3,a5,1
    5314:	c354                	sw	a3,4(a4)
    5316:	c21c                	sw	a5,0(a2)
    5318:	1ff00693          	li	a3,511
    531c:	08f6e563          	bltu	a3,a5,53a6 <_free_r+0x114>
    5320:	ff87f693          	andi	a3,a5,-8
    5324:	06a1                	addi	a3,a3,8
    5326:	414c                	lw	a1,4(a0)
    5328:	96aa                	add	a3,a3,a0
    532a:	4290                	lw	a2,0(a3)
    532c:	0057d813          	srli	a6,a5,0x5
    5330:	4785                	li	a5,1
    5332:	010797b3          	sll	a5,a5,a6
    5336:	8fcd                	or	a5,a5,a1
    5338:	ff868593          	addi	a1,a3,-8
    533c:	c710                	sw	a2,8(a4)
    533e:	c74c                	sw	a1,12(a4)
    5340:	c15c                	sw	a5,4(a0)
    5342:	c298                	sw	a4,0(a3)
    5344:	c658                	sw	a4,12(a2)
    5346:	4462                	lw	s0,24(sp)
    5348:	40f2                	lw	ra,28(sp)
    534a:	8526                	mv	a0,s1
    534c:	44d2                	lw	s1,20(sp)
    534e:	6105                	addi	sp,sp,32
    5350:	0970006f          	j	5be6 <__malloc_unlock>
    5354:	04089063          	bnez	a7,5394 <_free_r+0x102>
    5358:	200005b7          	lui	a1,0x20000
    535c:	97b6                	add	a5,a5,a3
    535e:	15458593          	addi	a1,a1,340 # 20000154 <__malloc_av_+0x8>
    5362:	4614                	lw	a3,8(a2)
    5364:	0017e893          	ori	a7,a5,1
    5368:	00f70833          	add	a6,a4,a5
    536c:	10b68363          	beq	a3,a1,5472 <_free_r+0x1e0>
    5370:	4650                	lw	a2,12(a2)
    5372:	c6d0                	sw	a2,12(a3)
    5374:	c614                	sw	a3,8(a2)
    5376:	01172223          	sw	a7,4(a4)
    537a:	00f82023          	sw	a5,0(a6)
    537e:	bf69                	j	5318 <_free_r+0x86>
    5380:	4301                	li	t1,0
    5382:	4501                	li	a0,0
    5384:	4581                	li	a1,0
    5386:	4601                	li	a2,0
    5388:	4681                	li	a3,0
    538a:	4701                	li	a4,0
    538c:	4781                	li	a5,0
    538e:	4801                	li	a6,0
    5390:	4881                	li	a7,0
    5392:	8082                	ret
    5394:	00186813          	ori	a6,a6,1
    5398:	ff05ae23          	sw	a6,-4(a1)
    539c:	c21c                	sw	a5,0(a2)
    539e:	1ff00693          	li	a3,511
    53a2:	f6f6ffe3          	bgeu	a3,a5,5320 <_free_r+0x8e>
    53a6:	0097d693          	srli	a3,a5,0x9
    53aa:	4611                	li	a2,4
    53ac:	08d66963          	bltu	a2,a3,543e <_free_r+0x1ac>
    53b0:	0067d693          	srli	a3,a5,0x6
    53b4:	03968593          	addi	a1,a3,57
    53b8:	058e                	slli	a1,a1,0x3
    53ba:	03868613          	addi	a2,a3,56
    53be:	95aa                	add	a1,a1,a0
    53c0:	4194                	lw	a3,0(a1)
    53c2:	15e1                	addi	a1,a1,-8
    53c4:	00d59663          	bne	a1,a3,53d0 <_free_r+0x13e>
    53c8:	a875                	j	5484 <_free_r+0x1f2>
    53ca:	4694                	lw	a3,8(a3)
    53cc:	00d58663          	beq	a1,a3,53d8 <_free_r+0x146>
    53d0:	42d0                	lw	a2,4(a3)
    53d2:	9a71                	andi	a2,a2,-4
    53d4:	fec7ebe3          	bltu	a5,a2,53ca <_free_r+0x138>
    53d8:	46cc                	lw	a1,12(a3)
    53da:	c74c                	sw	a1,12(a4)
    53dc:	c714                	sw	a3,8(a4)
    53de:	4462                	lw	s0,24(sp)
    53e0:	40f2                	lw	ra,28(sp)
    53e2:	c598                	sw	a4,8(a1)
    53e4:	8526                	mv	a0,s1
    53e6:	44d2                	lw	s1,20(sp)
    53e8:	c6d8                	sw	a4,12(a3)
    53ea:	6105                	addi	sp,sp,32
    53ec:	7fa0006f          	j	5be6 <__malloc_unlock>
    53f0:	06089663          	bnez	a7,545c <_free_r+0x1ca>
    53f4:	464c                	lw	a1,12(a2)
    53f6:	4610                	lw	a2,8(a2)
    53f8:	96be                	add	a3,a3,a5
    53fa:	0016e793          	ori	a5,a3,1
    53fe:	c64c                	sw	a1,12(a2)
    5400:	c590                	sw	a2,8(a1)
    5402:	c35c                	sw	a5,4(a4)
    5404:	9736                	add	a4,a4,a3
    5406:	c314                	sw	a3,0(a4)
    5408:	bf3d                	j	5346 <_free_r+0xb4>
    540a:	96be                	add	a3,a3,a5
    540c:	00031a63          	bnez	t1,5420 <_free_r+0x18e>
    5410:	ff85a783          	lw	a5,-8(a1)
    5414:	8f1d                	sub	a4,a4,a5
    5416:	4710                	lw	a2,8(a4)
    5418:	96be                	add	a3,a3,a5
    541a:	475c                	lw	a5,12(a4)
    541c:	c65c                	sw	a5,12(a2)
    541e:	c790                	sw	a2,8(a5)
    5420:	0016e613          	ori	a2,a3,1
    5424:	8141a783          	lw	a5,-2028(gp) # 200006d4 <__malloc_trim_threshold>
    5428:	c350                	sw	a2,4(a4)
    542a:	c518                	sw	a4,8(a0)
    542c:	f0f6ede3          	bltu	a3,a5,5346 <_free_r+0xb4>
    5430:	8bc1a583          	lw	a1,-1860(gp) # 2000077c <__malloc_top_pad>
    5434:	8526                	mv	a0,s1
    5436:	3b85                	jal	51a6 <_malloc_trim_r>
    5438:	b739                	j	5346 <_free_r+0xb4>
    543a:	97b6                	add	a5,a5,a3
    543c:	b71d                	j	5362 <_free_r+0xd0>
    543e:	4651                	li	a2,20
    5440:	02d67363          	bgeu	a2,a3,5466 <_free_r+0x1d4>
    5444:	05400613          	li	a2,84
    5448:	04d66863          	bltu	a2,a3,5498 <_free_r+0x206>
    544c:	00c7d693          	srli	a3,a5,0xc
    5450:	06f68593          	addi	a1,a3,111
    5454:	058e                	slli	a1,a1,0x3
    5456:	06e68613          	addi	a2,a3,110
    545a:	b795                	j	53be <_free_r+0x12c>
    545c:	0017e693          	ori	a3,a5,1
    5460:	c354                	sw	a3,4(a4)
    5462:	c21c                	sw	a5,0(a2)
    5464:	b5cd                	j	5346 <_free_r+0xb4>
    5466:	05c68593          	addi	a1,a3,92
    546a:	058e                	slli	a1,a1,0x3
    546c:	05b68613          	addi	a2,a3,91
    5470:	b7b9                	j	53be <_free_r+0x12c>
    5472:	c958                	sw	a4,20(a0)
    5474:	c918                	sw	a4,16(a0)
    5476:	c74c                	sw	a1,12(a4)
    5478:	c70c                	sw	a1,8(a4)
    547a:	01172223          	sw	a7,4(a4)
    547e:	00f82023          	sw	a5,0(a6)
    5482:	b5d1                	j	5346 <_free_r+0xb4>
    5484:	00452803          	lw	a6,4(a0)
    5488:	8609                	srai	a2,a2,0x2
    548a:	4785                	li	a5,1
    548c:	00c797b3          	sll	a5,a5,a2
    5490:	0107e7b3          	or	a5,a5,a6
    5494:	c15c                	sw	a5,4(a0)
    5496:	b791                	j	53da <_free_r+0x148>
    5498:	15400613          	li	a2,340
    549c:	00d66a63          	bltu	a2,a3,54b0 <_free_r+0x21e>
    54a0:	00f7d693          	srli	a3,a5,0xf
    54a4:	07868593          	addi	a1,a3,120
    54a8:	058e                	slli	a1,a1,0x3
    54aa:	07768613          	addi	a2,a3,119
    54ae:	bf01                	j	53be <_free_r+0x12c>
    54b0:	55400613          	li	a2,1364
    54b4:	00d66a63          	bltu	a2,a3,54c8 <_free_r+0x236>
    54b8:	0127d693          	srli	a3,a5,0x12
    54bc:	07d68593          	addi	a1,a3,125
    54c0:	058e                	slli	a1,a1,0x3
    54c2:	07c68613          	addi	a2,a3,124
    54c6:	bde5                	j	53be <_free_r+0x12c>
    54c8:	3f800593          	li	a1,1016
    54cc:	07e00613          	li	a2,126
    54d0:	b5fd                	j	53be <_free_r+0x12c>

000054d2 <_malloc_r>:
    54d2:	7139                	addi	sp,sp,-64
    54d4:	dc22                	sw	s0,56(sp)
    54d6:	da26                	sw	s1,52(sp)
    54d8:	de06                	sw	ra,60(sp)
    54da:	0080                	addi	s0,sp,64
    54dc:	00b58793          	addi	a5,a1,11
    54e0:	4759                	li	a4,22
    54e2:	84aa                	mv	s1,a0
    54e4:	08f76b63          	bltu	a4,a5,557a <_malloc_r+0xa8>
    54e8:	46c1                	li	a3,16
    54ea:	06b6e463          	bltu	a3,a1,5552 <_malloc_r+0x80>
    54ee:	25cd                	jal	5bd0 <__malloc_lock>
    54f0:	46c1                	li	a3,16
    54f2:	4761                	li	a4,24
    54f4:	4889                	li	a7,2
    54f6:	20000837          	lui	a6,0x20000
    54fa:	14c80813          	addi	a6,a6,332 # 2000014c <__malloc_av_>
    54fe:	9742                	add	a4,a4,a6
    5500:	435c                	lw	a5,4(a4)
    5502:	ff870613          	addi	a2,a4,-8
    5506:	3ac78f63          	beq	a5,a2,58c4 <_malloc_r+0x3f2>
    550a:	43d8                	lw	a4,4(a5)
    550c:	47d0                	lw	a2,12(a5)
    550e:	478c                	lw	a1,8(a5)
    5510:	9b71                	andi	a4,a4,-4
    5512:	973e                	add	a4,a4,a5
    5514:	4354                	lw	a3,4(a4)
    5516:	c5d0                	sw	a2,12(a1)
    5518:	fef42623          	sw	a5,-20(s0)
    551c:	c60c                	sw	a1,8(a2)
    551e:	0016e693          	ori	a3,a3,1
    5522:	8526                	mv	a0,s1
    5524:	c354                	sw	a3,4(a4)
    5526:	25c1                	jal	5be6 <__malloc_unlock>
    5528:	fec42783          	lw	a5,-20(s0)
    552c:	50f2                	lw	ra,60(sp)
    552e:	5462                	lw	s0,56(sp)
    5530:	54d2                	lw	s1,52(sp)
    5532:	00878513          	addi	a0,a5,8
    5536:	6121                	addi	sp,sp,64
    5538:	4301                	li	t1,0
    553a:	4581                	li	a1,0
    553c:	4601                	li	a2,0
    553e:	4681                	li	a3,0
    5540:	4701                	li	a4,0
    5542:	4781                	li	a5,0
    5544:	4801                	li	a6,0
    5546:	4881                	li	a7,0
    5548:	4e01                	li	t3,0
    554a:	4e81                	li	t4,0
    554c:	4f01                	li	t5,0
    554e:	4f81                	li	t6,0
    5550:	8082                	ret
    5552:	47b1                	li	a5,12
    5554:	c09c                	sw	a5,0(s1)
    5556:	4501                	li	a0,0
    5558:	50f2                	lw	ra,60(sp)
    555a:	5462                	lw	s0,56(sp)
    555c:	54d2                	lw	s1,52(sp)
    555e:	6121                	addi	sp,sp,64
    5560:	4301                	li	t1,0
    5562:	4581                	li	a1,0
    5564:	4601                	li	a2,0
    5566:	4681                	li	a3,0
    5568:	4701                	li	a4,0
    556a:	4781                	li	a5,0
    556c:	4801                	li	a6,0
    556e:	4881                	li	a7,0
    5570:	4e01                	li	t3,0
    5572:	4e81                	li	t4,0
    5574:	4f01                	li	t5,0
    5576:	4f81                	li	t6,0
    5578:	8082                	ret
    557a:	ff87f693          	andi	a3,a5,-8
    557e:	fc07cae3          	bltz	a5,5552 <_malloc_r+0x80>
    5582:	fcb6e8e3          	bltu	a3,a1,5552 <_malloc_r+0x80>
    5586:	fed42623          	sw	a3,-20(s0)
    558a:	2599                	jal	5bd0 <__malloc_lock>
    558c:	fec42683          	lw	a3,-20(s0)
    5590:	1f700793          	li	a5,503
    5594:	3ed7f463          	bgeu	a5,a3,597c <_malloc_r+0x4aa>
    5598:	0096d793          	srli	a5,a3,0x9
    559c:	10078d63          	beqz	a5,56b6 <_malloc_r+0x1e4>
    55a0:	4711                	li	a4,4
    55a2:	36f76663          	bltu	a4,a5,590e <_malloc_r+0x43c>
    55a6:	0066d793          	srli	a5,a3,0x6
    55aa:	03978893          	addi	a7,a5,57
    55ae:	03878e13          	addi	t3,a5,56
    55b2:	00389513          	slli	a0,a7,0x3
    55b6:	20000837          	lui	a6,0x20000
    55ba:	14c80813          	addi	a6,a6,332 # 2000014c <__malloc_av_>
    55be:	9542                	add	a0,a0,a6
    55c0:	415c                	lw	a5,4(a0)
    55c2:	1561                	addi	a0,a0,-8
    55c4:	02f50163          	beq	a0,a5,55e6 <_malloc_r+0x114>
    55c8:	433d                	li	t1,15
    55ca:	a039                	j	55d8 <_malloc_r+0x106>
    55cc:	47cc                	lw	a1,12(a5)
    55ce:	2a065a63          	bgez	a2,5882 <_malloc_r+0x3b0>
    55d2:	00b50a63          	beq	a0,a1,55e6 <_malloc_r+0x114>
    55d6:	87ae                	mv	a5,a1
    55d8:	43d8                	lw	a4,4(a5)
    55da:	9b71                	andi	a4,a4,-4
    55dc:	40d70633          	sub	a2,a4,a3
    55e0:	fec356e3          	bge	t1,a2,55cc <_malloc_r+0xfa>
    55e4:	88f2                	mv	a7,t3
    55e6:	01082783          	lw	a5,16(a6)
    55ea:	00880e93          	addi	t4,a6,8
    55ee:	25d78563          	beq	a5,t4,5838 <_malloc_r+0x366>
    55f2:	43d8                	lw	a4,4(a5)
    55f4:	45bd                	li	a1,15
    55f6:	9b71                	andi	a4,a4,-4
    55f8:	40d70633          	sub	a2,a4,a3
    55fc:	3ac5c363          	blt	a1,a2,59a2 <_malloc_r+0x4d0>
    5600:	01d82a23          	sw	t4,20(a6)
    5604:	01d82823          	sw	t4,16(a6)
    5608:	36065f63          	bgez	a2,5986 <_malloc_r+0x4b4>
    560c:	1ff00613          	li	a2,511
    5610:	00482303          	lw	t1,4(a6)
    5614:	2ae66d63          	bltu	a2,a4,58ce <_malloc_r+0x3fc>
    5618:	ff877613          	andi	a2,a4,-8
    561c:	0621                	addi	a2,a2,8
    561e:	9642                	add	a2,a2,a6
    5620:	420c                	lw	a1,0(a2)
    5622:	00575513          	srli	a0,a4,0x5
    5626:	4705                	li	a4,1
    5628:	00a71733          	sll	a4,a4,a0
    562c:	00e36333          	or	t1,t1,a4
    5630:	ff860713          	addi	a4,a2,-8
    5634:	c78c                	sw	a1,8(a5)
    5636:	c7d8                	sw	a4,12(a5)
    5638:	00682223          	sw	t1,4(a6)
    563c:	c21c                	sw	a5,0(a2)
    563e:	c5dc                	sw	a5,12(a1)
    5640:	4028d793          	srai	a5,a7,0x2
    5644:	4505                	li	a0,1
    5646:	00f51533          	sll	a0,a0,a5
    564a:	06a36d63          	bltu	t1,a0,56c4 <_malloc_r+0x1f2>
    564e:	006577b3          	and	a5,a0,t1
    5652:	ef89                	bnez	a5,566c <_malloc_r+0x19a>
    5654:	0506                	slli	a0,a0,0x1
    5656:	ffc8f893          	andi	a7,a7,-4
    565a:	006577b3          	and	a5,a0,t1
    565e:	0891                	addi	a7,a7,4
    5660:	e791                	bnez	a5,566c <_malloc_r+0x19a>
    5662:	0506                	slli	a0,a0,0x1
    5664:	006577b3          	and	a5,a0,t1
    5668:	0891                	addi	a7,a7,4
    566a:	dfe5                	beqz	a5,5662 <_malloc_r+0x190>
    566c:	4e3d                	li	t3,15
    566e:	00389f13          	slli	t5,a7,0x3
    5672:	9f42                	add	t5,t5,a6
    5674:	837a                	mv	t1,t5
    5676:	00c32703          	lw	a4,12(t1)
    567a:	8fc6                	mv	t6,a7
    567c:	2ae30963          	beq	t1,a4,592e <_malloc_r+0x45c>
    5680:	4350                	lw	a2,4(a4)
    5682:	87ba                	mv	a5,a4
    5684:	4758                	lw	a4,12(a4)
    5686:	9a71                	andi	a2,a2,-4
    5688:	40d605b3          	sub	a1,a2,a3
    568c:	2abe4a63          	blt	t3,a1,5940 <_malloc_r+0x46e>
    5690:	fe05c6e3          	bltz	a1,567c <_malloc_r+0x1aa>
    5694:	963e                	add	a2,a2,a5
    5696:	4254                	lw	a3,4(a2)
    5698:	478c                	lw	a1,8(a5)
    569a:	8526                	mv	a0,s1
    569c:	0016e693          	ori	a3,a3,1
    56a0:	c254                	sw	a3,4(a2)
    56a2:	c5d8                	sw	a4,12(a1)
    56a4:	c70c                	sw	a1,8(a4)
    56a6:	fef42623          	sw	a5,-20(s0)
    56aa:	2b35                	jal	5be6 <__malloc_unlock>
    56ac:	fec42783          	lw	a5,-20(s0)
    56b0:	00878513          	addi	a0,a5,8
    56b4:	b555                	j	5558 <_malloc_r+0x86>
    56b6:	20000513          	li	a0,512
    56ba:	04000893          	li	a7,64
    56be:	03f00e13          	li	t3,63
    56c2:	bdd5                	j	55b6 <_malloc_r+0xe4>
    56c4:	00882783          	lw	a5,8(a6)
    56c8:	43d8                	lw	a4,4(a5)
    56ca:	ffc77313          	andi	t1,a4,-4
    56ce:	40d30633          	sub	a2,t1,a3
    56d2:	00d36663          	bltu	t1,a3,56de <_malloc_r+0x20c>
    56d6:	01062713          	slti	a4,a2,16
    56da:	16070263          	beqz	a4,583e <_malloc_r+0x36c>
    56de:	8bc1a583          	lw	a1,-1860(gp) # 2000077c <__malloc_top_pad>
    56e2:	8101a603          	lw	a2,-2032(gp) # 200006d0 <__malloc_sbrk_base>
    56e6:	577d                	li	a4,-1
    56e8:	95b6                	add	a1,a1,a3
    56ea:	36e60563          	beq	a2,a4,5a54 <_malloc_r+0x582>
    56ee:	6705                	lui	a4,0x1
    56f0:	073d                	addi	a4,a4,15 # 100f <__stack_size+0x80f>
    56f2:	95ba                	add	a1,a1,a4
    56f4:	777d                	lui	a4,0xfffff
    56f6:	8df9                	and	a1,a1,a4
    56f8:	8526                	mv	a0,s1
    56fa:	fd042e23          	sw	a6,-36(s0)
    56fe:	fef42023          	sw	a5,-32(s0)
    5702:	fed42223          	sw	a3,-28(s0)
    5706:	fe642423          	sw	t1,-24(s0)
    570a:	feb42623          	sw	a1,-20(s0)
    570e:	50b010ef          	jal	7418 <_sbrk_r>
    5712:	577d                	li	a4,-1
    5714:	fec42583          	lw	a1,-20(s0)
    5718:	fe842303          	lw	t1,-24(s0)
    571c:	fe442683          	lw	a3,-28(s0)
    5720:	fe042783          	lw	a5,-32(s0)
    5724:	fdc42803          	lw	a6,-36(s0)
    5728:	8e2a                	mv	t3,a0
    572a:	2ce50063          	beq	a0,a4,59ea <_malloc_r+0x518>
    572e:	00678733          	add	a4,a5,t1
    5732:	2ae56a63          	bltu	a0,a4,59e6 <_malloc_r+0x514>
    5736:	f8818e93          	addi	t4,gp,-120 # 20000e48 <__malloc_current_mallinfo>
    573a:	000ea603          	lw	a2,0(t4)
    573e:	962e                	add	a2,a2,a1
    5740:	00cea023          	sw	a2,0(t4)
    5744:	3ca70363          	beq	a4,a0,5b0a <_malloc_r+0x638>
    5748:	8101af03          	lw	t5,-2032(gp) # 200006d0 <__malloc_sbrk_base>
    574c:	557d                	li	a0,-1
    574e:	3caf0963          	beq	t5,a0,5b20 <_malloc_r+0x64e>
    5752:	40ee0733          	sub	a4,t3,a4
    5756:	9732                	add	a4,a4,a2
    5758:	00eea023          	sw	a4,0(t4)
    575c:	007e7f13          	andi	t5,t3,7
    5760:	300f0563          	beqz	t5,5a6a <_malloc_r+0x598>
    5764:	ff8e7e13          	andi	t3,t3,-8
    5768:	6885                	lui	a7,0x1
    576a:	0e21                	addi	t3,t3,8
    576c:	08a1                	addi	a7,a7,8 # 1008 <__stack_size+0x808>
    576e:	00be0633          	add	a2,t3,a1
    5772:	41e885b3          	sub	a1,a7,t5
    5776:	8d91                	sub	a1,a1,a2
    5778:	05d2                	slli	a1,a1,0x14
    577a:	81d1                	srli	a1,a1,0x14
    577c:	8526                	mv	a0,s1
    577e:	fdd42623          	sw	t4,-52(s0)
    5782:	fd042823          	sw	a6,-48(s0)
    5786:	fcf42a23          	sw	a5,-44(s0)
    578a:	fcd42c23          	sw	a3,-40(s0)
    578e:	fc642e23          	sw	t1,-36(s0)
    5792:	ffc42023          	sw	t3,-32(s0)
    5796:	ffe42223          	sw	t5,-28(s0)
    579a:	fec42423          	sw	a2,-24(s0)
    579e:	feb42623          	sw	a1,-20(s0)
    57a2:	477010ef          	jal	7418 <_sbrk_r>
    57a6:	872a                	mv	a4,a0
    57a8:	557d                	li	a0,-1
    57aa:	fec42583          	lw	a1,-20(s0)
    57ae:	fe842603          	lw	a2,-24(s0)
    57b2:	fe442f03          	lw	t5,-28(s0)
    57b6:	fe042e03          	lw	t3,-32(s0)
    57ba:	fdc42303          	lw	t1,-36(s0)
    57be:	fd842683          	lw	a3,-40(s0)
    57c2:	fd442783          	lw	a5,-44(s0)
    57c6:	fd042803          	lw	a6,-48(s0)
    57ca:	fcc42e83          	lw	t4,-52(s0)
    57ce:	38a70963          	beq	a4,a0,5b60 <_malloc_r+0x68e>
    57d2:	000ea603          	lw	a2,0(t4)
    57d6:	41c70733          	sub	a4,a4,t3
    57da:	972e                	add	a4,a4,a1
    57dc:	00176713          	ori	a4,a4,1
    57e0:	01c82423          	sw	t3,8(a6)
    57e4:	962e                	add	a2,a2,a1
    57e6:	00ee2223          	sw	a4,4(t3)
    57ea:	00cea023          	sw	a2,0(t4)
    57ee:	03078763          	beq	a5,a6,581c <_malloc_r+0x34a>
    57f2:	453d                	li	a0,15
    57f4:	32657963          	bgeu	a0,t1,5b26 <_malloc_r+0x654>
    57f8:	43cc                	lw	a1,4(a5)
    57fa:	ff430713          	addi	a4,t1,-12
    57fe:	9b61                	andi	a4,a4,-8
    5800:	8985                	andi	a1,a1,1
    5802:	8dd9                	or	a1,a1,a4
    5804:	c3cc                	sw	a1,4(a5)
    5806:	4895                	li	a7,5
    5808:	00e785b3          	add	a1,a5,a4
    580c:	0115a223          	sw	a7,4(a1)
    5810:	0115a423          	sw	a7,8(a1)
    5814:	34e56b63          	bltu	a0,a4,5b6a <_malloc_r+0x698>
    5818:	004e2703          	lw	a4,4(t3)
    581c:	8b81a583          	lw	a1,-1864(gp) # 20000778 <__malloc_max_sbrked_mem>
    5820:	00c5f463          	bgeu	a1,a2,5828 <_malloc_r+0x356>
    5824:	8ac1ac23          	sw	a2,-1864(gp) # 20000778 <__malloc_max_sbrked_mem>
    5828:	8b41a583          	lw	a1,-1868(gp) # 20000774 <__malloc_max_total_mem>
    582c:	00c5f463          	bgeu	a1,a2,5834 <_malloc_r+0x362>
    5830:	8ac1aa23          	sw	a2,-1868(gp) # 20000774 <__malloc_max_total_mem>
    5834:	87f2                	mv	a5,t3
    5836:	aa6d                	j	59f0 <_malloc_r+0x51e>
    5838:	00482303          	lw	t1,4(a6)
    583c:	b511                	j	5640 <_malloc_r+0x16e>
    583e:	0016e713          	ori	a4,a3,1
    5842:	c3d8                	sw	a4,4(a5)
    5844:	96be                	add	a3,a3,a5
    5846:	00166613          	ori	a2,a2,1
    584a:	00d82423          	sw	a3,8(a6)
    584e:	8526                	mv	a0,s1
    5850:	c2d0                	sw	a2,4(a3)
    5852:	fef42623          	sw	a5,-20(s0)
    5856:	2e41                	jal	5be6 <__malloc_unlock>
    5858:	fec42783          	lw	a5,-20(s0)
    585c:	50f2                	lw	ra,60(sp)
    585e:	5462                	lw	s0,56(sp)
    5860:	54d2                	lw	s1,52(sp)
    5862:	00878513          	addi	a0,a5,8
    5866:	6121                	addi	sp,sp,64
    5868:	4301                	li	t1,0
    586a:	4581                	li	a1,0
    586c:	4601                	li	a2,0
    586e:	4681                	li	a3,0
    5870:	4701                	li	a4,0
    5872:	4781                	li	a5,0
    5874:	4801                	li	a6,0
    5876:	4881                	li	a7,0
    5878:	4e01                	li	t3,0
    587a:	4e81                	li	t4,0
    587c:	4f01                	li	t5,0
    587e:	4f81                	li	t6,0
    5880:	8082                	ret
    5882:	4790                	lw	a2,8(a5)
    5884:	973e                	add	a4,a4,a5
    5886:	4354                	lw	a3,4(a4)
    5888:	c64c                	sw	a1,12(a2)
    588a:	fef42623          	sw	a5,-20(s0)
    588e:	0016e693          	ori	a3,a3,1
    5892:	c590                	sw	a2,8(a1)
    5894:	8526                	mv	a0,s1
    5896:	c354                	sw	a3,4(a4)
    5898:	26b9                	jal	5be6 <__malloc_unlock>
    589a:	fec42783          	lw	a5,-20(s0)
    589e:	50f2                	lw	ra,60(sp)
    58a0:	5462                	lw	s0,56(sp)
    58a2:	54d2                	lw	s1,52(sp)
    58a4:	00878513          	addi	a0,a5,8
    58a8:	6121                	addi	sp,sp,64
    58aa:	4301                	li	t1,0
    58ac:	4581                	li	a1,0
    58ae:	4601                	li	a2,0
    58b0:	4681                	li	a3,0
    58b2:	4701                	li	a4,0
    58b4:	4781                	li	a5,0
    58b6:	4801                	li	a6,0
    58b8:	4881                	li	a7,0
    58ba:	4e01                	li	t3,0
    58bc:	4e81                	li	t4,0
    58be:	4f01                	li	t5,0
    58c0:	4f81                	li	t6,0
    58c2:	8082                	ret
    58c4:	475c                	lw	a5,12(a4)
    58c6:	0889                	addi	a7,a7,2
    58c8:	d0f70fe3          	beq	a4,a5,55e6 <_malloc_r+0x114>
    58cc:	b93d                	j	550a <_malloc_r+0x38>
    58ce:	00975613          	srli	a2,a4,0x9
    58d2:	4591                	li	a1,4
    58d4:	10c5f163          	bgeu	a1,a2,59d6 <_malloc_r+0x504>
    58d8:	45d1                	li	a1,20
    58da:	1ec5e763          	bltu	a1,a2,5ac8 <_malloc_r+0x5f6>
    58de:	05c60513          	addi	a0,a2,92
    58e2:	050e                	slli	a0,a0,0x3
    58e4:	05b60593          	addi	a1,a2,91
    58e8:	9542                	add	a0,a0,a6
    58ea:	4110                	lw	a2,0(a0)
    58ec:	1561                	addi	a0,a0,-8
    58ee:	00c51663          	bne	a0,a2,58fa <_malloc_r+0x428>
    58f2:	a29d                	j	5a58 <_malloc_r+0x586>
    58f4:	4610                	lw	a2,8(a2)
    58f6:	00c50663          	beq	a0,a2,5902 <_malloc_r+0x430>
    58fa:	424c                	lw	a1,4(a2)
    58fc:	99f1                	andi	a1,a1,-4
    58fe:	feb76be3          	bltu	a4,a1,58f4 <_malloc_r+0x422>
    5902:	4648                	lw	a0,12(a2)
    5904:	c7c8                	sw	a0,12(a5)
    5906:	c790                	sw	a2,8(a5)
    5908:	c51c                	sw	a5,8(a0)
    590a:	c65c                	sw	a5,12(a2)
    590c:	bb15                	j	5640 <_malloc_r+0x16e>
    590e:	4751                	li	a4,20
    5910:	0ef77c63          	bgeu	a4,a5,5a08 <_malloc_r+0x536>
    5914:	05400713          	li	a4,84
    5918:	1cf76463          	bltu	a4,a5,5ae0 <_malloc_r+0x60e>
    591c:	00c6d793          	srli	a5,a3,0xc
    5920:	06f78893          	addi	a7,a5,111
    5924:	06e78e13          	addi	t3,a5,110
    5928:	00389513          	slli	a0,a7,0x3
    592c:	b169                	j	55b6 <_malloc_r+0xe4>
    592e:	0f85                	addi	t6,t6,1
    5930:	003ff793          	andi	a5,t6,3
    5934:	0321                	addi	t1,t1,8
    5936:	0e078563          	beqz	a5,5a20 <_malloc_r+0x54e>
    593a:	00c32703          	lw	a4,12(t1)
    593e:	bb3d                	j	567c <_malloc_r+0x1aa>
    5940:	4788                	lw	a0,8(a5)
    5942:	0016e893          	ori	a7,a3,1
    5946:	0117a223          	sw	a7,4(a5)
    594a:	c558                	sw	a4,12(a0)
    594c:	c708                	sw	a0,8(a4)
    594e:	96be                	add	a3,a3,a5
    5950:	00d82a23          	sw	a3,20(a6)
    5954:	00d82823          	sw	a3,16(a6)
    5958:	0015e713          	ori	a4,a1,1
    595c:	963e                	add	a2,a2,a5
    595e:	01d6a623          	sw	t4,12(a3)
    5962:	01d6a423          	sw	t4,8(a3)
    5966:	c2d8                	sw	a4,4(a3)
    5968:	8526                	mv	a0,s1
    596a:	c20c                	sw	a1,0(a2)
    596c:	fef42623          	sw	a5,-20(s0)
    5970:	2c9d                	jal	5be6 <__malloc_unlock>
    5972:	fec42783          	lw	a5,-20(s0)
    5976:	00878513          	addi	a0,a5,8
    597a:	bef9                	j	5558 <_malloc_r+0x86>
    597c:	0036d893          	srli	a7,a3,0x3
    5980:	00868713          	addi	a4,a3,8
    5984:	be8d                	j	54f6 <_malloc_r+0x24>
    5986:	973e                	add	a4,a4,a5
    5988:	4354                	lw	a3,4(a4)
    598a:	fef42623          	sw	a5,-20(s0)
    598e:	8526                	mv	a0,s1
    5990:	0016e693          	ori	a3,a3,1
    5994:	c354                	sw	a3,4(a4)
    5996:	2c81                	jal	5be6 <__malloc_unlock>
    5998:	fec42783          	lw	a5,-20(s0)
    599c:	00878513          	addi	a0,a5,8
    59a0:	be65                	j	5558 <_malloc_r+0x86>
    59a2:	0016e593          	ori	a1,a3,1
    59a6:	c3cc                	sw	a1,4(a5)
    59a8:	96be                	add	a3,a3,a5
    59aa:	00d82a23          	sw	a3,20(a6)
    59ae:	00d82823          	sw	a3,16(a6)
    59b2:	00166593          	ori	a1,a2,1
    59b6:	973e                	add	a4,a4,a5
    59b8:	01d6a623          	sw	t4,12(a3)
    59bc:	01d6a423          	sw	t4,8(a3)
    59c0:	c2cc                	sw	a1,4(a3)
    59c2:	8526                	mv	a0,s1
    59c4:	c310                	sw	a2,0(a4)
    59c6:	fef42623          	sw	a5,-20(s0)
    59ca:	2c31                	jal	5be6 <__malloc_unlock>
    59cc:	fec42783          	lw	a5,-20(s0)
    59d0:	00878513          	addi	a0,a5,8
    59d4:	b651                	j	5558 <_malloc_r+0x86>
    59d6:	00675613          	srli	a2,a4,0x6
    59da:	03960513          	addi	a0,a2,57
    59de:	050e                	slli	a0,a0,0x3
    59e0:	03860593          	addi	a1,a2,56
    59e4:	b711                	j	58e8 <_malloc_r+0x416>
    59e6:	11078a63          	beq	a5,a6,5afa <_malloc_r+0x628>
    59ea:	00882783          	lw	a5,8(a6)
    59ee:	43d8                	lw	a4,4(a5)
    59f0:	9b71                	andi	a4,a4,-4
    59f2:	40d70633          	sub	a2,a4,a3
    59f6:	00d76663          	bltu	a4,a3,5a02 <_malloc_r+0x530>
    59fa:	01062713          	slti	a4,a2,16
    59fe:	e40700e3          	beqz	a4,583e <_malloc_r+0x36c>
    5a02:	8526                	mv	a0,s1
    5a04:	22cd                	jal	5be6 <__malloc_unlock>
    5a06:	be81                	j	5556 <_malloc_r+0x84>
    5a08:	05c78893          	addi	a7,a5,92
    5a0c:	05b78e13          	addi	t3,a5,91
    5a10:	00389513          	slli	a0,a7,0x3
    5a14:	b64d                	j	55b6 <_malloc_r+0xe4>
    5a16:	008f2783          	lw	a5,8(t5)
    5a1a:	18fd                	addi	a7,a7,-1
    5a1c:	1be79763          	bne	a5,t5,5bca <_malloc_r+0x6f8>
    5a20:	0038f793          	andi	a5,a7,3
    5a24:	1f61                	addi	t5,t5,-8
    5a26:	fbe5                	bnez	a5,5a16 <_malloc_r+0x544>
    5a28:	00482703          	lw	a4,4(a6)
    5a2c:	fff54793          	not	a5,a0
    5a30:	8ff9                	and	a5,a5,a4
    5a32:	00f82223          	sw	a5,4(a6)
    5a36:	0506                	slli	a0,a0,0x1
    5a38:	fff50713          	addi	a4,a0,-1
    5a3c:	c8f774e3          	bgeu	a4,a5,56c4 <_malloc_r+0x1f2>
    5a40:	00f57733          	and	a4,a0,a5
    5a44:	e711                	bnez	a4,5a50 <_malloc_r+0x57e>
    5a46:	0506                	slli	a0,a0,0x1
    5a48:	00f57733          	and	a4,a0,a5
    5a4c:	0f91                	addi	t6,t6,4
    5a4e:	df65                	beqz	a4,5a46 <_malloc_r+0x574>
    5a50:	88fe                	mv	a7,t6
    5a52:	b931                	j	566e <_malloc_r+0x19c>
    5a54:	05c1                	addi	a1,a1,16
    5a56:	b14d                	j	56f8 <_malloc_r+0x226>
    5a58:	8589                	srai	a1,a1,0x2
    5a5a:	4705                	li	a4,1
    5a5c:	00b71733          	sll	a4,a4,a1
    5a60:	00e36333          	or	t1,t1,a4
    5a64:	00682223          	sw	t1,4(a6)
    5a68:	bd71                	j	5904 <_malloc_r+0x432>
    5a6a:	00be0633          	add	a2,t3,a1
    5a6e:	40c005b3          	neg	a1,a2
    5a72:	05d2                	slli	a1,a1,0x14
    5a74:	81d1                	srli	a1,a1,0x14
    5a76:	8526                	mv	a0,s1
    5a78:	fdd42823          	sw	t4,-48(s0)
    5a7c:	fd042a23          	sw	a6,-44(s0)
    5a80:	fcf42c23          	sw	a5,-40(s0)
    5a84:	fcd42e23          	sw	a3,-36(s0)
    5a88:	fe642023          	sw	t1,-32(s0)
    5a8c:	ffc42223          	sw	t3,-28(s0)
    5a90:	feb42623          	sw	a1,-20(s0)
    5a94:	fec42423          	sw	a2,-24(s0)
    5a98:	181010ef          	jal	7418 <_sbrk_r>
    5a9c:	872a                	mv	a4,a0
    5a9e:	557d                	li	a0,-1
    5aa0:	fec42583          	lw	a1,-20(s0)
    5aa4:	fe442e03          	lw	t3,-28(s0)
    5aa8:	fe042303          	lw	t1,-32(s0)
    5aac:	fdc42683          	lw	a3,-36(s0)
    5ab0:	fd842783          	lw	a5,-40(s0)
    5ab4:	fd442803          	lw	a6,-44(s0)
    5ab8:	fd042e83          	lw	t4,-48(s0)
    5abc:	d0a71be3          	bne	a4,a0,57d2 <_malloc_r+0x300>
    5ac0:	fe842703          	lw	a4,-24(s0)
    5ac4:	4581                	li	a1,0
    5ac6:	b331                	j	57d2 <_malloc_r+0x300>
    5ac8:	05400593          	li	a1,84
    5acc:	06c5e163          	bltu	a1,a2,5b2e <_malloc_r+0x65c>
    5ad0:	00c75613          	srli	a2,a4,0xc
    5ad4:	06f60513          	addi	a0,a2,111
    5ad8:	050e                	slli	a0,a0,0x3
    5ada:	06e60593          	addi	a1,a2,110
    5ade:	b529                	j	58e8 <_malloc_r+0x416>
    5ae0:	15400713          	li	a4,340
    5ae4:	06f76163          	bltu	a4,a5,5b46 <_malloc_r+0x674>
    5ae8:	00f6d793          	srli	a5,a3,0xf
    5aec:	07878893          	addi	a7,a5,120
    5af0:	07778e13          	addi	t3,a5,119
    5af4:	00389513          	slli	a0,a7,0x3
    5af8:	bc7d                	j	55b6 <_malloc_r+0xe4>
    5afa:	f8818e93          	addi	t4,gp,-120 # 20000e48 <__malloc_current_mallinfo>
    5afe:	000ea603          	lw	a2,0(t4)
    5b02:	962e                	add	a2,a2,a1
    5b04:	00cea023          	sw	a2,0(t4)
    5b08:	b181                	j	5748 <_malloc_r+0x276>
    5b0a:	0552                	slli	a0,a0,0x14
    5b0c:	c2051ee3          	bnez	a0,5748 <_malloc_r+0x276>
    5b10:	00882e03          	lw	t3,8(a6)
    5b14:	959a                	add	a1,a1,t1
    5b16:	0015e713          	ori	a4,a1,1
    5b1a:	00ee2223          	sw	a4,4(t3)
    5b1e:	b9fd                	j	581c <_malloc_r+0x34a>
    5b20:	81c1a823          	sw	t3,-2032(gp) # 200006d0 <__malloc_sbrk_base>
    5b24:	b925                	j	575c <_malloc_r+0x28a>
    5b26:	4785                	li	a5,1
    5b28:	00fe2223          	sw	a5,4(t3)
    5b2c:	bdd9                	j	5a02 <_malloc_r+0x530>
    5b2e:	15400593          	li	a1,340
    5b32:	06c5e463          	bltu	a1,a2,5b9a <_malloc_r+0x6c8>
    5b36:	00f75613          	srli	a2,a4,0xf
    5b3a:	07860513          	addi	a0,a2,120
    5b3e:	050e                	slli	a0,a0,0x3
    5b40:	07760593          	addi	a1,a2,119
    5b44:	b355                	j	58e8 <_malloc_r+0x416>
    5b46:	55400713          	li	a4,1364
    5b4a:	06f76463          	bltu	a4,a5,5bb2 <_malloc_r+0x6e0>
    5b4e:	0126d793          	srli	a5,a3,0x12
    5b52:	07d78893          	addi	a7,a5,125
    5b56:	07c78e13          	addi	t3,a5,124
    5b5a:	00389513          	slli	a0,a7,0x3
    5b5e:	bca1                	j	55b6 <_malloc_r+0xe4>
    5b60:	1f61                	addi	t5,t5,-8
    5b62:	01e60733          	add	a4,a2,t5
    5b66:	4581                	li	a1,0
    5b68:	b1ad                	j	57d2 <_malloc_r+0x300>
    5b6a:	00878593          	addi	a1,a5,8
    5b6e:	8526                	mv	a0,s1
    5b70:	ffd42223          	sw	t4,-28(s0)
    5b74:	ff042423          	sw	a6,-24(s0)
    5b78:	fed42623          	sw	a3,-20(s0)
    5b7c:	f16ff0ef          	jal	5292 <_free_r>
    5b80:	fe842803          	lw	a6,-24(s0)
    5b84:	fe442e83          	lw	t4,-28(s0)
    5b88:	fec42683          	lw	a3,-20(s0)
    5b8c:	00882e03          	lw	t3,8(a6)
    5b90:	000ea603          	lw	a2,0(t4)
    5b94:	004e2703          	lw	a4,4(t3)
    5b98:	b151                	j	581c <_malloc_r+0x34a>
    5b9a:	55400593          	li	a1,1364
    5b9e:	02c5e163          	bltu	a1,a2,5bc0 <_malloc_r+0x6ee>
    5ba2:	01275613          	srli	a2,a4,0x12
    5ba6:	07d60513          	addi	a0,a2,125
    5baa:	050e                	slli	a0,a0,0x3
    5bac:	07c60593          	addi	a1,a2,124
    5bb0:	bb25                	j	58e8 <_malloc_r+0x416>
    5bb2:	3f800513          	li	a0,1016
    5bb6:	07f00893          	li	a7,127
    5bba:	07e00e13          	li	t3,126
    5bbe:	bae5                	j	55b6 <_malloc_r+0xe4>
    5bc0:	3f800513          	li	a0,1016
    5bc4:	07e00593          	li	a1,126
    5bc8:	b305                	j	58e8 <_malloc_r+0x416>
    5bca:	00482783          	lw	a5,4(a6)
    5bce:	b5a5                	j	5a36 <_malloc_r+0x564>

00005bd0 <__malloc_lock>:
    5bd0:	1141                	addi	sp,sp,-16
    5bd2:	c422                	sw	s0,8(sp)
    5bd4:	c606                	sw	ra,12(sp)
    5bd6:	0800                	addi	s0,sp,16
    5bd8:	4422                	lw	s0,8(sp)
    5bda:	40b2                	lw	ra,12(sp)
    5bdc:	8a418513          	addi	a0,gp,-1884 # 20000764 <__lock___malloc_recursive_mutex>
    5be0:	0141                	addi	sp,sp,16
    5be2:	a3afe06f          	j	3e1c <__retarget_lock_acquire_recursive>

00005be6 <__malloc_unlock>:
    5be6:	1141                	addi	sp,sp,-16
    5be8:	c422                	sw	s0,8(sp)
    5bea:	c606                	sw	ra,12(sp)
    5bec:	0800                	addi	s0,sp,16
    5bee:	4422                	lw	s0,8(sp)
    5bf0:	40b2                	lw	ra,12(sp)
    5bf2:	8a418513          	addi	a0,gp,-1884 # 20000764 <__lock___malloc_recursive_mutex>
    5bf6:	0141                	addi	sp,sp,16
    5bf8:	a68fe06f          	j	3e60 <__retarget_lock_release_recursive>

00005bfc <_Balloc>:
    5bfc:	1101                	addi	sp,sp,-32
    5bfe:	cc22                	sw	s0,24(sp)
    5c00:	ce06                	sw	ra,28(sp)
    5c02:	1000                	addi	s0,sp,32
    5c04:	417c                	lw	a5,68(a0)
    5c06:	872a                	mv	a4,a0
    5c08:	86ae                	mv	a3,a1
    5c0a:	c78d                	beqz	a5,5c34 <_Balloc+0x38>
    5c0c:	00269613          	slli	a2,a3,0x2
    5c10:	97b2                	add	a5,a5,a2
    5c12:	4388                	lw	a0,0(a5)
    5c14:	c131                	beqz	a0,5c58 <_Balloc+0x5c>
    5c16:	4118                	lw	a4,0(a0)
    5c18:	c398                	sw	a4,0(a5)
    5c1a:	00052823          	sw	zero,16(a0)
    5c1e:	00052623          	sw	zero,12(a0)
    5c22:	40f2                	lw	ra,28(sp)
    5c24:	4462                	lw	s0,24(sp)
    5c26:	6105                	addi	sp,sp,32
    5c28:	4581                	li	a1,0
    5c2a:	4601                	li	a2,0
    5c2c:	4681                	li	a3,0
    5c2e:	4701                	li	a4,0
    5c30:	4781                	li	a5,0
    5c32:	8082                	ret
    5c34:	feb42423          	sw	a1,-24(s0)
    5c38:	02100613          	li	a2,33
    5c3c:	4591                	li	a1,4
    5c3e:	fea42623          	sw	a0,-20(s0)
    5c42:	06d010ef          	jal	74ae <_calloc_r>
    5c46:	fec42703          	lw	a4,-20(s0)
    5c4a:	fe842683          	lw	a3,-24(s0)
    5c4e:	87aa                	mv	a5,a0
    5c50:	c368                	sw	a0,68(a4)
    5c52:	fd4d                	bnez	a0,5c0c <_Balloc+0x10>
    5c54:	4501                	li	a0,0
    5c56:	b7f1                	j	5c22 <_Balloc+0x26>
    5c58:	4585                	li	a1,1
    5c5a:	00d597b3          	sll	a5,a1,a3
    5c5e:	00578613          	addi	a2,a5,5
    5c62:	853a                	mv	a0,a4
    5c64:	060a                	slli	a2,a2,0x2
    5c66:	fed42423          	sw	a3,-24(s0)
    5c6a:	fef42623          	sw	a5,-20(s0)
    5c6e:	041010ef          	jal	74ae <_calloc_r>
    5c72:	d16d                	beqz	a0,5c54 <_Balloc+0x58>
    5c74:	fe842683          	lw	a3,-24(s0)
    5c78:	fec42783          	lw	a5,-20(s0)
    5c7c:	c154                	sw	a3,4(a0)
    5c7e:	c51c                	sw	a5,8(a0)
    5c80:	bf69                	j	5c1a <_Balloc+0x1e>

00005c82 <_Bfree>:
    5c82:	1141                	addi	sp,sp,-16
    5c84:	c422                	sw	s0,8(sp)
    5c86:	c606                	sw	ra,12(sp)
    5c88:	0800                	addi	s0,sp,16
    5c8a:	c981                	beqz	a1,5c9a <_Bfree+0x18>
    5c8c:	41d8                	lw	a4,4(a1)
    5c8e:	417c                	lw	a5,68(a0)
    5c90:	070a                	slli	a4,a4,0x2
    5c92:	97ba                	add	a5,a5,a4
    5c94:	4398                	lw	a4,0(a5)
    5c96:	c198                	sw	a4,0(a1)
    5c98:	c38c                	sw	a1,0(a5)
    5c9a:	40b2                	lw	ra,12(sp)
    5c9c:	4422                	lw	s0,8(sp)
    5c9e:	0141                	addi	sp,sp,16
    5ca0:	4501                	li	a0,0
    5ca2:	4581                	li	a1,0
    5ca4:	4701                	li	a4,0
    5ca6:	4781                	li	a5,0
    5ca8:	8082                	ret

00005caa <__multadd>:
    5caa:	0105ae03          	lw	t3,16(a1)
    5cae:	8eae                	mv	t4,a1
    5cb0:	8336                	mv	t1,a3
    5cb2:	01458813          	addi	a6,a1,20
    5cb6:	4881                	li	a7,0
    5cb8:	00082783          	lw	a5,0(a6)
    5cbc:	0811                	addi	a6,a6,4
    5cbe:	0885                	addi	a7,a7,1
    5cc0:	01079713          	slli	a4,a5,0x10
    5cc4:	8341                	srli	a4,a4,0x10
    5cc6:	0107d693          	srli	a3,a5,0x10
    5cca:	02c707b3          	mul	a5,a4,a2
    5cce:	02c686b3          	mul	a3,a3,a2
    5cd2:	979a                	add	a5,a5,t1
    5cd4:	0107d713          	srli	a4,a5,0x10
    5cd8:	07c2                	slli	a5,a5,0x10
    5cda:	83c1                	srli	a5,a5,0x10
    5cdc:	96ba                	add	a3,a3,a4
    5cde:	01069713          	slli	a4,a3,0x10
    5ce2:	97ba                	add	a5,a5,a4
    5ce4:	fef82e23          	sw	a5,-4(a6)
    5ce8:	0106d313          	srli	t1,a3,0x10
    5cec:	fdc8c6e3          	blt	a7,t3,5cb8 <__multadd+0xe>
    5cf0:	00030f63          	beqz	t1,5d0e <__multadd+0x64>
    5cf4:	008ea783          	lw	a5,8(t4)
    5cf8:	02fe5763          	bge	t3,a5,5d26 <__multadd+0x7c>
    5cfc:	002e1713          	slli	a4,t3,0x2
    5d00:	9776                	add	a4,a4,t4
    5d02:	00672a23          	sw	t1,20(a4) # fffff014 <_eusrstack+0xdfff7014>
    5d06:	001e0793          	addi	a5,t3,1
    5d0a:	00fea823          	sw	a5,16(t4)
    5d0e:	8576                	mv	a0,t4
    5d10:	4301                	li	t1,0
    5d12:	4581                	li	a1,0
    5d14:	4601                	li	a2,0
    5d16:	4681                	li	a3,0
    5d18:	4701                	li	a4,0
    5d1a:	4781                	li	a5,0
    5d1c:	4801                	li	a6,0
    5d1e:	4881                	li	a7,0
    5d20:	4e01                	li	t3,0
    5d22:	4e81                	li	t4,0
    5d24:	8082                	ret
    5d26:	1101                	addi	sp,sp,-32
    5d28:	cc22                	sw	s0,24(sp)
    5d2a:	ca26                	sw	s1,20(sp)
    5d2c:	1000                	addi	s0,sp,32
    5d2e:	ce06                	sw	ra,28(sp)
    5d30:	004ea583          	lw	a1,4(t4)
    5d34:	fe642223          	sw	t1,-28(s0)
    5d38:	ffc42423          	sw	t3,-24(s0)
    5d3c:	0585                	addi	a1,a1,1
    5d3e:	ffd42623          	sw	t4,-20(s0)
    5d42:	84aa                	mv	s1,a0
    5d44:	3d65                	jal	5bfc <_Balloc>
    5d46:	fec42e83          	lw	t4,-20(s0)
    5d4a:	fe842e03          	lw	t3,-24(s0)
    5d4e:	fe442303          	lw	t1,-28(s0)
    5d52:	872a                	mv	a4,a0
    5d54:	cd2d                	beqz	a0,5dce <__multadd+0x124>
    5d56:	010ea603          	lw	a2,16(t4)
    5d5a:	00ce8593          	addi	a1,t4,12
    5d5e:	0531                	addi	a0,a0,12
    5d60:	0609                	addi	a2,a2,2
    5d62:	060a                	slli	a2,a2,0x2
    5d64:	fe642023          	sw	t1,-32(s0)
    5d68:	ffc42223          	sw	t3,-28(s0)
    5d6c:	ffd42423          	sw	t4,-24(s0)
    5d70:	fee42623          	sw	a4,-20(s0)
    5d74:	ddefa0ef          	jal	352 <memcpy>
    5d78:	fe842e83          	lw	t4,-24(s0)
    5d7c:	40fc                	lw	a5,68(s1)
    5d7e:	fe442e03          	lw	t3,-28(s0)
    5d82:	004ea683          	lw	a3,4(t4)
    5d86:	fe042303          	lw	t1,-32(s0)
    5d8a:	002e1713          	slli	a4,t3,0x2
    5d8e:	068a                	slli	a3,a3,0x2
    5d90:	97b6                	add	a5,a5,a3
    5d92:	4394                	lw	a3,0(a5)
    5d94:	40f2                	lw	ra,28(sp)
    5d96:	44d2                	lw	s1,20(sp)
    5d98:	00dea023          	sw	a3,0(t4)
    5d9c:	01d7a023          	sw	t4,0(a5)
    5da0:	fec42e83          	lw	t4,-20(s0)
    5da4:	4462                	lw	s0,24(sp)
    5da6:	001e0793          	addi	a5,t3,1
    5daa:	9776                	add	a4,a4,t4
    5dac:	00672a23          	sw	t1,20(a4)
    5db0:	00fea823          	sw	a5,16(t4)
    5db4:	8576                	mv	a0,t4
    5db6:	6105                	addi	sp,sp,32
    5db8:	4301                	li	t1,0
    5dba:	4581                	li	a1,0
    5dbc:	4601                	li	a2,0
    5dbe:	4681                	li	a3,0
    5dc0:	4701                	li	a4,0
    5dc2:	4781                	li	a5,0
    5dc4:	4801                	li	a6,0
    5dc6:	4881                	li	a7,0
    5dc8:	4e01                	li	t3,0
    5dca:	4e81                	li	t4,0
    5dcc:	8082                	ret
    5dce:	66ad                	lui	a3,0xb
    5dd0:	652d                	lui	a0,0xb
    5dd2:	d4468693          	addi	a3,a3,-700 # ad44 <zeroes.0+0xbc>
    5dd6:	d7c50513          	addi	a0,a0,-644 # ad7c <zeroes.0+0xf4>
    5dda:	4601                	li	a2,0
    5ddc:	0ba00593          	li	a1,186
    5de0:	684010ef          	jal	7464 <__assert_func>

00005de4 <__s2b>:
    5de4:	1101                	addi	sp,sp,-32
    5de6:	cc22                	sw	s0,24(sp)
    5de8:	ca26                	sw	s1,20(sp)
    5dea:	c64e                	sw	s3,12(sp)
    5dec:	c452                	sw	s4,8(sp)
    5dee:	c256                	sw	s5,4(sp)
    5df0:	c05a                	sw	s6,0(sp)
    5df2:	ce06                	sw	ra,28(sp)
    5df4:	1000                	addi	s0,sp,32
    5df6:	8a36                	mv	s4,a3
    5df8:	00868793          	addi	a5,a3,8
    5dfc:	46c5                	li	a3,17
    5dfe:	8ab2                	mv	s5,a2
    5e00:	89aa                	mv	s3,a0
    5e02:	8b2e                	mv	s6,a1
    5e04:	84ba                	mv	s1,a4
    5e06:	0af6d263          	bge	a3,a5,5eaa <__s2b+0xc6>
    5e0a:	38e396b7          	lui	a3,0x38e39
    5e0e:	e3968693          	addi	a3,a3,-455 # 38e38e39 <_eusrstack+0x18e30e39>
    5e12:	02d796b3          	mulh	a3,a5,a3
    5e16:	41f7d713          	srai	a4,a5,0x1f
    5e1a:	4581                	li	a1,0
    5e1c:	4785                	li	a5,1
    5e1e:	8685                	srai	a3,a3,0x1
    5e20:	8e99                	sub	a3,a3,a4
    5e22:	0786                	slli	a5,a5,0x1
    5e24:	0585                	addi	a1,a1,1
    5e26:	fed7cee3          	blt	a5,a3,5e22 <__s2b+0x3e>
    5e2a:	854e                	mv	a0,s3
    5e2c:	3bc1                	jal	5bfc <_Balloc>
    5e2e:	85aa                	mv	a1,a0
    5e30:	cd3d                	beqz	a0,5eae <__s2b+0xca>
    5e32:	4785                	li	a5,1
    5e34:	c91c                	sw	a5,16(a0)
    5e36:	c944                	sw	s1,20(a0)
    5e38:	47a5                	li	a5,9
    5e3a:	0757d463          	bge	a5,s5,5ea2 <__s2b+0xbe>
    5e3e:	009b0493          	addi	s1,s6,9
    5e42:	c84a                	sw	s2,16(sp)
    5e44:	9b56                	add	s6,s6,s5
    5e46:	8926                	mv	s2,s1
    5e48:	00094683          	lbu	a3,0(s2)
    5e4c:	4629                	li	a2,10
    5e4e:	854e                	mv	a0,s3
    5e50:	fd068693          	addi	a3,a3,-48
    5e54:	0905                	addi	s2,s2,1
    5e56:	3d91                	jal	5caa <__multadd>
    5e58:	85aa                	mv	a1,a0
    5e5a:	ff6917e3          	bne	s2,s6,5e48 <__s2b+0x64>
    5e5e:	4942                	lw	s2,16(sp)
    5e60:	94d6                	add	s1,s1,s5
    5e62:	14e1                	addi	s1,s1,-8
    5e64:	034ad063          	bge	s5,s4,5e84 <__s2b+0xa0>
    5e68:	415a0a33          	sub	s4,s4,s5
    5e6c:	9a26                	add	s4,s4,s1
    5e6e:	0004c683          	lbu	a3,0(s1)
    5e72:	4629                	li	a2,10
    5e74:	854e                	mv	a0,s3
    5e76:	fd068693          	addi	a3,a3,-48
    5e7a:	0485                	addi	s1,s1,1
    5e7c:	353d                	jal	5caa <__multadd>
    5e7e:	85aa                	mv	a1,a0
    5e80:	ff4497e3          	bne	s1,s4,5e6e <__s2b+0x8a>
    5e84:	40f2                	lw	ra,28(sp)
    5e86:	4462                	lw	s0,24(sp)
    5e88:	44d2                	lw	s1,20(sp)
    5e8a:	49b2                	lw	s3,12(sp)
    5e8c:	4a22                	lw	s4,8(sp)
    5e8e:	4a92                	lw	s5,4(sp)
    5e90:	4b02                	lw	s6,0(sp)
    5e92:	852e                	mv	a0,a1
    5e94:	6105                	addi	sp,sp,32
    5e96:	4581                	li	a1,0
    5e98:	4601                	li	a2,0
    5e9a:	4681                	li	a3,0
    5e9c:	4701                	li	a4,0
    5e9e:	4781                	li	a5,0
    5ea0:	8082                	ret
    5ea2:	00ab0493          	addi	s1,s6,10
    5ea6:	8abe                	mv	s5,a5
    5ea8:	bf75                	j	5e64 <__s2b+0x80>
    5eaa:	4581                	li	a1,0
    5eac:	bfbd                	j	5e2a <__s2b+0x46>
    5eae:	66ad                	lui	a3,0xb
    5eb0:	652d                	lui	a0,0xb
    5eb2:	d4468693          	addi	a3,a3,-700 # ad44 <zeroes.0+0xbc>
    5eb6:	d7c50513          	addi	a0,a0,-644 # ad7c <zeroes.0+0xf4>
    5eba:	4601                	li	a2,0
    5ebc:	0d300593          	li	a1,211
    5ec0:	c84a                	sw	s2,16(sp)
    5ec2:	5a2010ef          	jal	7464 <__assert_func>

00005ec6 <__hi0bits>:
    5ec6:	1141                	addi	sp,sp,-16
    5ec8:	c422                	sw	s0,8(sp)
    5eca:	c606                	sw	ra,12(sp)
    5ecc:	0800                	addi	s0,sp,16
    5ece:	87aa                	mv	a5,a0
    5ed0:	6741                	lui	a4,0x10
    5ed2:	4501                	li	a0,0
    5ed4:	00e7f463          	bgeu	a5,a4,5edc <__hi0bits+0x16>
    5ed8:	07c2                	slli	a5,a5,0x10
    5eda:	4541                	li	a0,16
    5edc:	01000737          	lui	a4,0x1000
    5ee0:	00e7f463          	bgeu	a5,a4,5ee8 <__hi0bits+0x22>
    5ee4:	0521                	addi	a0,a0,8
    5ee6:	07a2                	slli	a5,a5,0x8
    5ee8:	10000737          	lui	a4,0x10000
    5eec:	02e7e263          	bltu	a5,a4,5f10 <__hi0bits+0x4a>
    5ef0:	40000737          	lui	a4,0x40000
    5ef4:	06e7f063          	bgeu	a5,a4,5f54 <__hi0bits+0x8e>
    5ef8:	00279713          	slli	a4,a5,0x2
    5efc:	04074e63          	bltz	a4,5f58 <__hi0bits+0x92>
    5f00:	40b2                	lw	ra,12(sp)
    5f02:	4422                	lw	s0,8(sp)
    5f04:	050d                	addi	a0,a0,3
    5f06:	0141                	addi	sp,sp,16
    5f08:	4681                	li	a3,0
    5f0a:	4701                	li	a4,0
    5f0c:	4781                	li	a5,0
    5f0e:	8082                	ret
    5f10:	00479713          	slli	a4,a5,0x4
    5f14:	400006b7          	lui	a3,0x40000
    5f18:	0511                	addi	a0,a0,4
    5f1a:	00d76d63          	bltu	a4,a3,5f34 <__hi0bits+0x6e>
    5f1e:	40b2                	lw	ra,12(sp)
    5f20:	4422                	lw	s0,8(sp)
    5f22:	fff74713          	not	a4,a4
    5f26:	837d                	srli	a4,a4,0x1f
    5f28:	953a                	add	a0,a0,a4
    5f2a:	0141                	addi	sp,sp,16
    5f2c:	4681                	li	a3,0
    5f2e:	4701                	li	a4,0
    5f30:	4781                	li	a5,0
    5f32:	8082                	ret
    5f34:	079a                	slli	a5,a5,0x6
    5f36:	0207c163          	bltz	a5,5f58 <__hi0bits+0x92>
    5f3a:	00179713          	slli	a4,a5,0x1
    5f3e:	fc0741e3          	bltz	a4,5f00 <__hi0bits+0x3a>
    5f42:	40b2                	lw	ra,12(sp)
    5f44:	4422                	lw	s0,8(sp)
    5f46:	02000513          	li	a0,32
    5f4a:	0141                	addi	sp,sp,16
    5f4c:	4681                	li	a3,0
    5f4e:	4701                	li	a4,0
    5f50:	4781                	li	a5,0
    5f52:	8082                	ret
    5f54:	873e                	mv	a4,a5
    5f56:	b7e1                	j	5f1e <__hi0bits+0x58>
    5f58:	40b2                	lw	ra,12(sp)
    5f5a:	4422                	lw	s0,8(sp)
    5f5c:	0509                	addi	a0,a0,2
    5f5e:	0141                	addi	sp,sp,16
    5f60:	4681                	li	a3,0
    5f62:	4701                	li	a4,0
    5f64:	4781                	li	a5,0
    5f66:	8082                	ret

00005f68 <__lo0bits>:
    5f68:	1141                	addi	sp,sp,-16
    5f6a:	c422                	sw	s0,8(sp)
    5f6c:	c606                	sw	ra,12(sp)
    5f6e:	0800                	addi	s0,sp,16
    5f70:	411c                	lw	a5,0(a0)
    5f72:	0077f713          	andi	a4,a5,7
    5f76:	c705                	beqz	a4,5f9e <__lo0bits+0x36>
    5f78:	0017f693          	andi	a3,a5,1
    5f7c:	4701                	li	a4,0
    5f7e:	e699                	bnez	a3,5f8c <__lo0bits+0x24>
    5f80:	0027f713          	andi	a4,a5,2
    5f84:	c759                	beqz	a4,6012 <__lo0bits+0xaa>
    5f86:	8385                	srli	a5,a5,0x1
    5f88:	c11c                	sw	a5,0(a0)
    5f8a:	4705                	li	a4,1
    5f8c:	40b2                	lw	ra,12(sp)
    5f8e:	4422                	lw	s0,8(sp)
    5f90:	853a                	mv	a0,a4
    5f92:	0141                	addi	sp,sp,16
    5f94:	4601                	li	a2,0
    5f96:	4681                	li	a3,0
    5f98:	4701                	li	a4,0
    5f9a:	4781                	li	a5,0
    5f9c:	8082                	ret
    5f9e:	01079713          	slli	a4,a5,0x10
    5fa2:	8341                	srli	a4,a4,0x10
    5fa4:	ef0d                	bnez	a4,5fde <__lo0bits+0x76>
    5fa6:	83c1                	srli	a5,a5,0x10
    5fa8:	0ff7f693          	zext.b	a3,a5
    5fac:	4741                	li	a4,16
    5fae:	e299                	bnez	a3,5fb4 <__lo0bits+0x4c>
    5fb0:	4761                	li	a4,24
    5fb2:	83a1                	srli	a5,a5,0x8
    5fb4:	00f7f693          	andi	a3,a5,15
    5fb8:	c6b9                	beqz	a3,6006 <__lo0bits+0x9e>
    5fba:	0037f693          	andi	a3,a5,3
    5fbe:	ca9d                	beqz	a3,5ff4 <__lo0bits+0x8c>
    5fc0:	0017f693          	andi	a3,a5,1
    5fc4:	e299                	bnez	a3,5fca <__lo0bits+0x62>
    5fc6:	0705                	addi	a4,a4,1 # 40000001 <_eusrstack+0x1fff8001>
    5fc8:	8385                	srli	a5,a5,0x1
    5fca:	c11c                	sw	a5,0(a0)
    5fcc:	40b2                	lw	ra,12(sp)
    5fce:	4422                	lw	s0,8(sp)
    5fd0:	853a                	mv	a0,a4
    5fd2:	0141                	addi	sp,sp,16
    5fd4:	4601                	li	a2,0
    5fd6:	4681                	li	a3,0
    5fd8:	4701                	li	a4,0
    5fda:	4781                	li	a5,0
    5fdc:	8082                	ret
    5fde:	0ff7f713          	zext.b	a4,a5
    5fe2:	c70d                	beqz	a4,600c <__lo0bits+0xa4>
    5fe4:	00f7f713          	andi	a4,a5,15
    5fe8:	e731                	bnez	a4,6034 <__lo0bits+0xcc>
    5fea:	4711                	li	a4,4
    5fec:	8391                	srli	a5,a5,0x4
    5fee:	0037f693          	andi	a3,a5,3
    5ff2:	f6f9                	bnez	a3,5fc0 <__lo0bits+0x58>
    5ff4:	0027d693          	srli	a3,a5,0x2
    5ff8:	0016f613          	andi	a2,a3,1
    5ffc:	c61d                	beqz	a2,602a <__lo0bits+0xc2>
    5ffe:	87b6                	mv	a5,a3
    6000:	0709                	addi	a4,a4,2
    6002:	c11c                	sw	a5,0(a0)
    6004:	b7e1                	j	5fcc <__lo0bits+0x64>
    6006:	0711                	addi	a4,a4,4
    6008:	8391                	srli	a5,a5,0x4
    600a:	b7d5                	j	5fee <__lo0bits+0x86>
    600c:	4721                	li	a4,8
    600e:	83a1                	srli	a5,a5,0x8
    6010:	b755                	j	5fb4 <__lo0bits+0x4c>
    6012:	40b2                	lw	ra,12(sp)
    6014:	4422                	lw	s0,8(sp)
    6016:	8389                	srli	a5,a5,0x2
    6018:	c11c                	sw	a5,0(a0)
    601a:	4709                	li	a4,2
    601c:	853a                	mv	a0,a4
    601e:	0141                	addi	sp,sp,16
    6020:	4601                	li	a2,0
    6022:	4681                	li	a3,0
    6024:	4701                	li	a4,0
    6026:	4781                	li	a5,0
    6028:	8082                	ret
    602a:	838d                	srli	a5,a5,0x3
    602c:	eb81                	bnez	a5,603c <__lo0bits+0xd4>
    602e:	02000713          	li	a4,32
    6032:	bfa9                	j	5f8c <__lo0bits+0x24>
    6034:	838d                	srli	a5,a5,0x3
    6036:	470d                	li	a4,3
    6038:	c11c                	sw	a5,0(a0)
    603a:	bf49                	j	5fcc <__lo0bits+0x64>
    603c:	070d                	addi	a4,a4,3
    603e:	c11c                	sw	a5,0(a0)
    6040:	b771                	j	5fcc <__lo0bits+0x64>

00006042 <__i2b>:
    6042:	1101                	addi	sp,sp,-32
    6044:	cc22                	sw	s0,24(sp)
    6046:	ce06                	sw	ra,28(sp)
    6048:	1000                	addi	s0,sp,32
    604a:	417c                	lw	a5,68(a0)
    604c:	872a                	mv	a4,a0
    604e:	86ae                	mv	a3,a1
    6050:	c39d                	beqz	a5,6076 <__i2b+0x34>
    6052:	43c8                	lw	a0,4(a5)
    6054:	cd21                	beqz	a0,60ac <__i2b+0x6a>
    6056:	4118                	lw	a4,0(a0)
    6058:	40f2                	lw	ra,28(sp)
    605a:	4462                	lw	s0,24(sp)
    605c:	c3d8                	sw	a4,4(a5)
    605e:	4785                	li	a5,1
    6060:	00052623          	sw	zero,12(a0)
    6064:	c954                	sw	a3,20(a0)
    6066:	c91c                	sw	a5,16(a0)
    6068:	6105                	addi	sp,sp,32
    606a:	4581                	li	a1,0
    606c:	4601                	li	a2,0
    606e:	4681                	li	a3,0
    6070:	4701                	li	a4,0
    6072:	4781                	li	a5,0
    6074:	8082                	ret
    6076:	feb42423          	sw	a1,-24(s0)
    607a:	02100613          	li	a2,33
    607e:	4591                	li	a1,4
    6080:	fea42623          	sw	a0,-20(s0)
    6084:	42a010ef          	jal	74ae <_calloc_r>
    6088:	fec42703          	lw	a4,-20(s0)
    608c:	fe842683          	lw	a3,-24(s0)
    6090:	87aa                	mv	a5,a0
    6092:	c368                	sw	a0,68(a4)
    6094:	fd5d                	bnez	a0,6052 <__i2b+0x10>
    6096:	66ad                	lui	a3,0xb
    6098:	652d                	lui	a0,0xb
    609a:	d4468693          	addi	a3,a3,-700 # ad44 <zeroes.0+0xbc>
    609e:	d7c50513          	addi	a0,a0,-644 # ad7c <zeroes.0+0xf4>
    60a2:	4601                	li	a2,0
    60a4:	14500593          	li	a1,325
    60a8:	3bc010ef          	jal	7464 <__assert_func>
    60ac:	853a                	mv	a0,a4
    60ae:	4671                	li	a2,28
    60b0:	4585                	li	a1,1
    60b2:	fed42623          	sw	a3,-20(s0)
    60b6:	3f8010ef          	jal	74ae <_calloc_r>
    60ba:	dd71                	beqz	a0,6096 <__i2b+0x54>
    60bc:	fec42683          	lw	a3,-20(s0)
    60c0:	40f2                	lw	ra,28(sp)
    60c2:	4462                	lw	s0,24(sp)
    60c4:	4789                	li	a5,2
    60c6:	c51c                	sw	a5,8(a0)
    60c8:	4705                	li	a4,1
    60ca:	4785                	li	a5,1
    60cc:	c158                	sw	a4,4(a0)
    60ce:	00052623          	sw	zero,12(a0)
    60d2:	c954                	sw	a3,20(a0)
    60d4:	c91c                	sw	a5,16(a0)
    60d6:	6105                	addi	sp,sp,32
    60d8:	4581                	li	a1,0
    60da:	4601                	li	a2,0
    60dc:	4681                	li	a3,0
    60de:	4701                	li	a4,0
    60e0:	4781                	li	a5,0
    60e2:	8082                	ret

000060e4 <__multiply>:
    60e4:	1101                	addi	sp,sp,-32
    60e6:	cc22                	sw	s0,24(sp)
    60e8:	c84a                	sw	s2,16(sp)
    60ea:	c64e                	sw	s3,12(sp)
    60ec:	c452                	sw	s4,8(sp)
    60ee:	c256                	sw	s5,4(sp)
    60f0:	ce06                	sw	ra,28(sp)
    60f2:	ca26                	sw	s1,20(sp)
    60f4:	1000                	addi	s0,sp,32
    60f6:	0105a983          	lw	s3,16(a1)
    60fa:	01062a03          	lw	s4,16(a2)
    60fe:	8aae                	mv	s5,a1
    6100:	8932                	mv	s2,a2
    6102:	0149c763          	blt	s3,s4,6110 <__multiply+0x2c>
    6106:	8752                	mv	a4,s4
    6108:	892e                	mv	s2,a1
    610a:	8a4e                	mv	s4,s3
    610c:	8ab2                	mv	s5,a2
    610e:	89ba                	mv	s3,a4
    6110:	00892783          	lw	a5,8(s2)
    6114:	00492583          	lw	a1,4(s2)
    6118:	013a04b3          	add	s1,s4,s3
    611c:	0097a7b3          	slt	a5,a5,s1
    6120:	95be                	add	a1,a1,a5
    6122:	3ce9                	jal	5bfc <_Balloc>
    6124:	18050163          	beqz	a0,62a6 <__multiply+0x1c2>
    6128:	01450893          	addi	a7,a0,20
    612c:	00249813          	slli	a6,s1,0x2
    6130:	9846                	add	a6,a6,a7
    6132:	87c6                	mv	a5,a7
    6134:	0108f763          	bgeu	a7,a6,6142 <__multiply+0x5e>
    6138:	0007a023          	sw	zero,0(a5)
    613c:	0791                	addi	a5,a5,4
    613e:	ff07ede3          	bltu	a5,a6,6138 <__multiply+0x54>
    6142:	014a8593          	addi	a1,s5,20
    6146:	00299313          	slli	t1,s3,0x2
    614a:	932e                	add	t1,t1,a1
    614c:	1065fc63          	bgeu	a1,t1,6264 <__multiply+0x180>
    6150:	002a1693          	slli	a3,s4,0x2
    6154:	01490e93          	addi	t4,s2,20
    6158:	96f6                	add	a3,a3,t4
    615a:	01590e13          	addi	t3,s2,21
    615e:	01c6be33          	sltu	t3,a3,t3
    6162:	41268633          	sub	a2,a3,s2
    6166:	001e4e13          	xori	t3,t3,1
    616a:	162d                	addi	a2,a2,-21
    616c:	a809                	j	617e <__multiply+0x9a>
    616e:	010fdf93          	srli	t6,t6,0x10
    6172:	080f9563          	bnez	t6,61fc <__multiply+0x118>
    6176:	0591                	addi	a1,a1,4
    6178:	0891                	addi	a7,a7,4
    617a:	0e65f563          	bgeu	a1,t1,6264 <__multiply+0x180>
    617e:	0005af83          	lw	t6,0(a1)
    6182:	010f9393          	slli	t2,t6,0x10
    6186:	0103d393          	srli	t2,t2,0x10
    618a:	fe0382e3          	beqz	t2,616e <__multiply+0x8a>
    618e:	82c6                	mv	t0,a7
    6190:	8ff6                	mv	t6,t4
    6192:	4901                	li	s2,0
    6194:	000fa783          	lw	a5,0(t6)
    6198:	0002af03          	lw	t5,0(t0)
    619c:	0291                	addi	t0,t0,4
    619e:	01079713          	slli	a4,a5,0x10
    61a2:	8341                	srli	a4,a4,0x10
    61a4:	02770733          	mul	a4,a4,t2
    61a8:	83c1                	srli	a5,a5,0x10
    61aa:	010f1993          	slli	s3,t5,0x10
    61ae:	0109d993          	srli	s3,s3,0x10
    61b2:	010f5f13          	srli	t5,t5,0x10
    61b6:	0f91                	addi	t6,t6,4
    61b8:	027787b3          	mul	a5,a5,t2
    61bc:	974e                	add	a4,a4,s3
    61be:	974a                	add	a4,a4,s2
    61c0:	97fa                	add	a5,a5,t5
    61c2:	01075f13          	srli	t5,a4,0x10
    61c6:	97fa                	add	a5,a5,t5
    61c8:	0742                	slli	a4,a4,0x10
    61ca:	8341                	srli	a4,a4,0x10
    61cc:	01079f13          	slli	t5,a5,0x10
    61d0:	00ef6733          	or	a4,t5,a4
    61d4:	fee2ae23          	sw	a4,-4(t0)
    61d8:	0107d913          	srli	s2,a5,0x10
    61dc:	fadfece3          	bltu	t6,a3,6194 <__multiply+0xb0>
    61e0:	4781                	li	a5,0
    61e2:	000e0463          	beqz	t3,61ea <__multiply+0x106>
    61e6:	ffc67793          	andi	a5,a2,-4
    61ea:	97c6                	add	a5,a5,a7
    61ec:	0127a223          	sw	s2,4(a5)
    61f0:	0005af83          	lw	t6,0(a1)
    61f4:	010fdf93          	srli	t6,t6,0x10
    61f8:	f60f8fe3          	beqz	t6,6176 <__multiply+0x92>
    61fc:	0008a783          	lw	a5,0(a7)
    6200:	82c6                	mv	t0,a7
    6202:	8f76                	mv	t5,t4
    6204:	893e                	mv	s2,a5
    6206:	4381                	li	t2,0
    6208:	000f5703          	lhu	a4,0(t5)
    620c:	01095a13          	srli	s4,s2,0x10
    6210:	07c2                	slli	a5,a5,0x10
    6212:	03f70733          	mul	a4,a4,t6
    6216:	83c1                	srli	a5,a5,0x10
    6218:	0f11                	addi	t5,t5,4
    621a:	0042a903          	lw	s2,4(t0)
    621e:	0291                	addi	t0,t0,4
    6220:	01091993          	slli	s3,s2,0x10
    6224:	0109d993          	srli	s3,s3,0x10
    6228:	971e                	add	a4,a4,t2
    622a:	9752                	add	a4,a4,s4
    622c:	01071393          	slli	t2,a4,0x10
    6230:	00f3e7b3          	or	a5,t2,a5
    6234:	fef2ae23          	sw	a5,-4(t0)
    6238:	ffef5783          	lhu	a5,-2(t5)
    623c:	8341                	srli	a4,a4,0x10
    623e:	03f787b3          	mul	a5,a5,t6
    6242:	97ce                	add	a5,a5,s3
    6244:	97ba                	add	a5,a5,a4
    6246:	0107d393          	srli	t2,a5,0x10
    624a:	fadf6fe3          	bltu	t5,a3,6208 <__multiply+0x124>
    624e:	4701                	li	a4,0
    6250:	000e0463          	beqz	t3,6258 <__multiply+0x174>
    6254:	ffc67713          	andi	a4,a2,-4
    6258:	9746                	add	a4,a4,a7
    625a:	c35c                	sw	a5,4(a4)
    625c:	0591                	addi	a1,a1,4
    625e:	0891                	addi	a7,a7,4
    6260:	f065efe3          	bltu	a1,t1,617e <__multiply+0x9a>
    6264:	00904563          	bgtz	s1,626e <__multiply+0x18a>
    6268:	a039                	j	6276 <__multiply+0x192>
    626a:	14fd                	addi	s1,s1,-1
    626c:	c489                	beqz	s1,6276 <__multiply+0x192>
    626e:	ffc82783          	lw	a5,-4(a6)
    6272:	1871                	addi	a6,a6,-4
    6274:	dbfd                	beqz	a5,626a <__multiply+0x186>
    6276:	40f2                	lw	ra,28(sp)
    6278:	4462                	lw	s0,24(sp)
    627a:	c904                	sw	s1,16(a0)
    627c:	4942                	lw	s2,16(sp)
    627e:	44d2                	lw	s1,20(sp)
    6280:	49b2                	lw	s3,12(sp)
    6282:	4a22                	lw	s4,8(sp)
    6284:	4a92                	lw	s5,4(sp)
    6286:	6105                	addi	sp,sp,32
    6288:	4281                	li	t0,0
    628a:	4301                	li	t1,0
    628c:	4381                	li	t2,0
    628e:	4581                	li	a1,0
    6290:	4601                	li	a2,0
    6292:	4681                	li	a3,0
    6294:	4701                	li	a4,0
    6296:	4781                	li	a5,0
    6298:	4801                	li	a6,0
    629a:	4881                	li	a7,0
    629c:	4e01                	li	t3,0
    629e:	4e81                	li	t4,0
    62a0:	4f01                	li	t5,0
    62a2:	4f81                	li	t6,0
    62a4:	8082                	ret
    62a6:	66ad                	lui	a3,0xb
    62a8:	652d                	lui	a0,0xb
    62aa:	d4468693          	addi	a3,a3,-700 # ad44 <zeroes.0+0xbc>
    62ae:	d7c50513          	addi	a0,a0,-644 # ad7c <zeroes.0+0xf4>
    62b2:	4601                	li	a2,0
    62b4:	16200593          	li	a1,354
    62b8:	1ac010ef          	jal	7464 <__assert_func>

000062bc <__pow5mult>:
    62bc:	1101                	addi	sp,sp,-32
    62be:	cc22                	sw	s0,24(sp)
    62c0:	ca26                	sw	s1,20(sp)
    62c2:	c64e                	sw	s3,12(sp)
    62c4:	c452                	sw	s4,8(sp)
    62c6:	ce06                	sw	ra,28(sp)
    62c8:	1000                	addi	s0,sp,32
    62ca:	00367793          	andi	a5,a2,3
    62ce:	84b2                	mv	s1,a2
    62d0:	8a2a                	mv	s4,a0
    62d2:	89ae                	mv	s3,a1
    62d4:	efd1                	bnez	a5,6370 <__pow5mult+0xb4>
    62d6:	8489                	srai	s1,s1,0x2
    62d8:	ccbd                	beqz	s1,6356 <__pow5mult+0x9a>
    62da:	c84a                	sw	s2,16(sp)
    62dc:	040a2903          	lw	s2,64(s4)
    62e0:	0a090363          	beqz	s2,6386 <__pow5mult+0xca>
    62e4:	0014f793          	andi	a5,s1,1
    62e8:	8485                	srai	s1,s1,0x1
    62ea:	eb89                	bnez	a5,62fc <__pow5mult+0x40>
    62ec:	00092503          	lw	a0,0(s2)
    62f0:	cd05                	beqz	a0,6328 <__pow5mult+0x6c>
    62f2:	892a                	mv	s2,a0
    62f4:	0014f793          	andi	a5,s1,1
    62f8:	8485                	srai	s1,s1,0x1
    62fa:	dbed                	beqz	a5,62ec <__pow5mult+0x30>
    62fc:	864a                	mv	a2,s2
    62fe:	85ce                	mv	a1,s3
    6300:	8552                	mv	a0,s4
    6302:	33cd                	jal	60e4 <__multiply>
    6304:	00098d63          	beqz	s3,631e <__pow5mult+0x62>
    6308:	0049a703          	lw	a4,4(s3)
    630c:	044a2783          	lw	a5,68(s4)
    6310:	070a                	slli	a4,a4,0x2
    6312:	97ba                	add	a5,a5,a4
    6314:	4398                	lw	a4,0(a5)
    6316:	00e9a023          	sw	a4,0(s3)
    631a:	0137a023          	sw	s3,0(a5)
    631e:	cc99                	beqz	s1,633c <__pow5mult+0x80>
    6320:	89aa                	mv	s3,a0
    6322:	00092503          	lw	a0,0(s2)
    6326:	f571                	bnez	a0,62f2 <__pow5mult+0x36>
    6328:	864a                	mv	a2,s2
    632a:	85ca                	mv	a1,s2
    632c:	8552                	mv	a0,s4
    632e:	3b5d                	jal	60e4 <__multiply>
    6330:	00a92023          	sw	a0,0(s2)
    6334:	00052023          	sw	zero,0(a0)
    6338:	892a                	mv	s2,a0
    633a:	bf6d                	j	62f4 <__pow5mult+0x38>
    633c:	40f2                	lw	ra,28(sp)
    633e:	4462                	lw	s0,24(sp)
    6340:	4942                	lw	s2,16(sp)
    6342:	44d2                	lw	s1,20(sp)
    6344:	49b2                	lw	s3,12(sp)
    6346:	4a22                	lw	s4,8(sp)
    6348:	6105                	addi	sp,sp,32
    634a:	4581                	li	a1,0
    634c:	4601                	li	a2,0
    634e:	4681                	li	a3,0
    6350:	4701                	li	a4,0
    6352:	4781                	li	a5,0
    6354:	8082                	ret
    6356:	40f2                	lw	ra,28(sp)
    6358:	4462                	lw	s0,24(sp)
    635a:	44d2                	lw	s1,20(sp)
    635c:	4a22                	lw	s4,8(sp)
    635e:	854e                	mv	a0,s3
    6360:	49b2                	lw	s3,12(sp)
    6362:	6105                	addi	sp,sp,32
    6364:	4581                	li	a1,0
    6366:	4601                	li	a2,0
    6368:	4681                	li	a3,0
    636a:	4701                	li	a4,0
    636c:	4781                	li	a5,0
    636e:	8082                	ret
    6370:	672d                	lui	a4,0xb
    6372:	8e070713          	addi	a4,a4,-1824 # a8e0 <p05.0>
    6376:	078a                	slli	a5,a5,0x2
    6378:	97ba                	add	a5,a5,a4
    637a:	ffc7a603          	lw	a2,-4(a5)
    637e:	4681                	li	a3,0
    6380:	322d                	jal	5caa <__multadd>
    6382:	89aa                	mv	s3,a0
    6384:	bf89                	j	62d6 <__pow5mult+0x1a>
    6386:	4585                	li	a1,1
    6388:	8552                	mv	a0,s4
    638a:	388d                	jal	5bfc <_Balloc>
    638c:	892a                	mv	s2,a0
    638e:	c919                	beqz	a0,63a4 <__pow5mult+0xe8>
    6390:	27100713          	li	a4,625
    6394:	4785                	li	a5,1
    6396:	c958                	sw	a4,20(a0)
    6398:	c91c                	sw	a5,16(a0)
    639a:	04aa2023          	sw	a0,64(s4)
    639e:	00052023          	sw	zero,0(a0)
    63a2:	b789                	j	62e4 <__pow5mult+0x28>
    63a4:	66ad                	lui	a3,0xb
    63a6:	652d                	lui	a0,0xb
    63a8:	d4468693          	addi	a3,a3,-700 # ad44 <zeroes.0+0xbc>
    63ac:	d7c50513          	addi	a0,a0,-644 # ad7c <zeroes.0+0xf4>
    63b0:	4601                	li	a2,0
    63b2:	14500593          	li	a1,325
    63b6:	0ae010ef          	jal	7464 <__assert_func>

000063ba <__lshift>:
    63ba:	7179                	addi	sp,sp,-48
    63bc:	d422                	sw	s0,40(sp)
    63be:	d226                	sw	s1,36(sp)
    63c0:	d04a                	sw	s2,32(sp)
    63c2:	ce4e                	sw	s3,28(sp)
    63c4:	cc52                	sw	s4,24(sp)
    63c6:	ca56                	sw	s5,20(sp)
    63c8:	d606                	sw	ra,44(sp)
    63ca:	1800                	addi	s0,sp,48
    63cc:	0105a983          	lw	s3,16(a1)
    63d0:	459c                	lw	a5,8(a1)
    63d2:	40565a93          	srai	s5,a2,0x5
    63d6:	99d6                	add	s3,s3,s5
    63d8:	00198493          	addi	s1,s3,1
    63dc:	892e                	mv	s2,a1
    63de:	8a2a                	mv	s4,a0
    63e0:	41cc                	lw	a1,4(a1)
    63e2:	0097d663          	bge	a5,s1,63ee <__lshift+0x34>
    63e6:	0786                	slli	a5,a5,0x1
    63e8:	0585                	addi	a1,a1,1
    63ea:	fe97cee3          	blt	a5,s1,63e6 <__lshift+0x2c>
    63ee:	8552                	mv	a0,s4
    63f0:	fcc42e23          	sw	a2,-36(s0)
    63f4:	809ff0ef          	jal	5bfc <_Balloc>
    63f8:	fdc42603          	lw	a2,-36(s0)
    63fc:	c579                	beqz	a0,64ca <__lshift+0x110>
    63fe:	01450593          	addi	a1,a0,20
    6402:	01505e63          	blez	s5,641e <__lshift+0x64>
    6406:	005a8713          	addi	a4,s5,5
    640a:	070a                	slli	a4,a4,0x2
    640c:	972a                	add	a4,a4,a0
    640e:	87ae                	mv	a5,a1
    6410:	0791                	addi	a5,a5,4
    6412:	fe07ae23          	sw	zero,-4(a5)
    6416:	fee79de3          	bne	a5,a4,6410 <__lshift+0x56>
    641a:	0a8a                	slli	s5,s5,0x2
    641c:	95d6                	add	a1,a1,s5
    641e:	01092803          	lw	a6,16(s2)
    6422:	01490793          	addi	a5,s2,20
    6426:	8a7d                	andi	a2,a2,31
    6428:	080a                	slli	a6,a6,0x2
    642a:	983e                	add	a6,a6,a5
    642c:	c241                	beqz	a2,64ac <__lshift+0xf2>
    642e:	02000313          	li	t1,32
    6432:	40c30333          	sub	t1,t1,a2
    6436:	88ae                	mv	a7,a1
    6438:	4681                	li	a3,0
    643a:	4398                	lw	a4,0(a5)
    643c:	0891                	addi	a7,a7,4
    643e:	0791                	addi	a5,a5,4
    6440:	00c71733          	sll	a4,a4,a2
    6444:	8f55                	or	a4,a4,a3
    6446:	fee8ae23          	sw	a4,-4(a7)
    644a:	ffc7a683          	lw	a3,-4(a5)
    644e:	0066d6b3          	srl	a3,a3,t1
    6452:	ff07e4e3          	bltu	a5,a6,643a <__lshift+0x80>
    6456:	01590793          	addi	a5,s2,21
    645a:	4701                	li	a4,0
    645c:	00f86763          	bltu	a6,a5,646a <__lshift+0xb0>
    6460:	41280833          	sub	a6,a6,s2
    6464:	182d                	addi	a6,a6,-21
    6466:	ffc87713          	andi	a4,a6,-4
    646a:	95ba                	add	a1,a1,a4
    646c:	c1d4                	sw	a3,4(a1)
    646e:	e291                	bnez	a3,6472 <__lshift+0xb8>
    6470:	84ce                	mv	s1,s3
    6472:	00492703          	lw	a4,4(s2)
    6476:	044a2783          	lw	a5,68(s4)
    647a:	50b2                	lw	ra,44(sp)
    647c:	070a                	slli	a4,a4,0x2
    647e:	97ba                	add	a5,a5,a4
    6480:	4398                	lw	a4,0(a5)
    6482:	c904                	sw	s1,16(a0)
    6484:	5422                	lw	s0,40(sp)
    6486:	00e92023          	sw	a4,0(s2)
    648a:	0127a023          	sw	s2,0(a5)
    648e:	5492                	lw	s1,36(sp)
    6490:	5902                	lw	s2,32(sp)
    6492:	49f2                	lw	s3,28(sp)
    6494:	4a62                	lw	s4,24(sp)
    6496:	4ad2                	lw	s5,20(sp)
    6498:	6145                	addi	sp,sp,48
    649a:	4301                	li	t1,0
    649c:	4581                	li	a1,0
    649e:	4601                	li	a2,0
    64a0:	4681                	li	a3,0
    64a2:	4701                	li	a4,0
    64a4:	4781                	li	a5,0
    64a6:	4801                	li	a6,0
    64a8:	4881                	li	a7,0
    64aa:	8082                	ret
    64ac:	4398                	lw	a4,0(a5)
    64ae:	0791                	addi	a5,a5,4
    64b0:	0591                	addi	a1,a1,4
    64b2:	fee5ae23          	sw	a4,-4(a1)
    64b6:	fb07fde3          	bgeu	a5,a6,6470 <__lshift+0xb6>
    64ba:	4398                	lw	a4,0(a5)
    64bc:	0791                	addi	a5,a5,4
    64be:	0591                	addi	a1,a1,4
    64c0:	fee5ae23          	sw	a4,-4(a1)
    64c4:	ff07e4e3          	bltu	a5,a6,64ac <__lshift+0xf2>
    64c8:	b765                	j	6470 <__lshift+0xb6>
    64ca:	66ad                	lui	a3,0xb
    64cc:	652d                	lui	a0,0xb
    64ce:	d4468693          	addi	a3,a3,-700 # ad44 <zeroes.0+0xbc>
    64d2:	d7c50513          	addi	a0,a0,-644 # ad7c <zeroes.0+0xf4>
    64d6:	4601                	li	a2,0
    64d8:	1de00593          	li	a1,478
    64dc:	789000ef          	jal	7464 <__assert_func>

000064e0 <__mcmp>:
    64e0:	1141                	addi	sp,sp,-16
    64e2:	c422                	sw	s0,8(sp)
    64e4:	c606                	sw	ra,12(sp)
    64e6:	0800                	addi	s0,sp,16
    64e8:	4918                	lw	a4,16(a0)
    64ea:	499c                	lw	a5,16(a1)
    64ec:	862a                	mv	a2,a0
    64ee:	40f70533          	sub	a0,a4,a5
    64f2:	02f71663          	bne	a4,a5,651e <__mcmp+0x3e>
    64f6:	078a                	slli	a5,a5,0x2
    64f8:	0651                	addi	a2,a2,20
    64fa:	05d1                	addi	a1,a1,20
    64fc:	95be                	add	a1,a1,a5
    64fe:	97b2                	add	a5,a5,a2
    6500:	a019                	j	6506 <__mcmp+0x26>
    6502:	00f67e63          	bgeu	a2,a5,651e <__mcmp+0x3e>
    6506:	ffc7a683          	lw	a3,-4(a5)
    650a:	ffc5a703          	lw	a4,-4(a1)
    650e:	17f1                	addi	a5,a5,-4
    6510:	15f1                	addi	a1,a1,-4
    6512:	fee688e3          	beq	a3,a4,6502 <__mcmp+0x22>
    6516:	4505                	li	a0,1
    6518:	00e6f363          	bgeu	a3,a4,651e <__mcmp+0x3e>
    651c:	557d                	li	a0,-1
    651e:	40b2                	lw	ra,12(sp)
    6520:	4422                	lw	s0,8(sp)
    6522:	0141                	addi	sp,sp,16
    6524:	4581                	li	a1,0
    6526:	4601                	li	a2,0
    6528:	4681                	li	a3,0
    652a:	4701                	li	a4,0
    652c:	4781                	li	a5,0
    652e:	8082                	ret

00006530 <__mdiff>:
    6530:	1101                	addi	sp,sp,-32
    6532:	cc22                	sw	s0,24(sp)
    6534:	ce06                	sw	ra,28(sp)
    6536:	1000                	addi	s0,sp,32
    6538:	4998                	lw	a4,16(a1)
    653a:	4a1c                	lw	a5,16(a2)
    653c:	8f2e                	mv	t5,a1
    653e:	40f708b3          	sub	a7,a4,a5
    6542:	02f71a63          	bne	a4,a5,6576 <__mdiff+0x46>
    6546:	00279693          	slli	a3,a5,0x2
    654a:	01458813          	addi	a6,a1,20
    654e:	01460713          	addi	a4,a2,20
    6552:	00d807b3          	add	a5,a6,a3
    6556:	9736                	add	a4,a4,a3
    6558:	a019                	j	655e <__mdiff+0x2e>
    655a:	14f87563          	bgeu	a6,a5,66a4 <__mdiff+0x174>
    655e:	ffc7a583          	lw	a1,-4(a5)
    6562:	ffc72683          	lw	a3,-4(a4)
    6566:	17f1                	addi	a5,a5,-4
    6568:	1771                	addi	a4,a4,-4
    656a:	fed588e3          	beq	a1,a3,655a <__mdiff+0x2a>
    656e:	16d5f563          	bgeu	a1,a3,66d8 <__mdiff+0x1a8>
    6572:	4885                	li	a7,1
    6574:	a039                	j	6582 <__mdiff+0x52>
    6576:	fe08cee3          	bltz	a7,6572 <__mdiff+0x42>
    657a:	87b2                	mv	a5,a2
    657c:	4881                	li	a7,0
    657e:	862e                	mv	a2,a1
    6580:	8f3e                	mv	t5,a5
    6582:	424c                	lw	a1,4(a2)
    6584:	ffe42223          	sw	t5,-28(s0)
    6588:	ff142423          	sw	a7,-24(s0)
    658c:	fec42623          	sw	a2,-20(s0)
    6590:	e6cff0ef          	jal	5bfc <_Balloc>
    6594:	fec42603          	lw	a2,-20(s0)
    6598:	fe842883          	lw	a7,-24(s0)
    659c:	fe442f03          	lw	t5,-28(s0)
    65a0:	14050b63          	beqz	a0,66f6 <__mdiff+0x1c6>
    65a4:	01062803          	lw	a6,16(a2)
    65a8:	010f2f83          	lw	t6,16(t5)
    65ac:	01460293          	addi	t0,a2,20
    65b0:	00281713          	slli	a4,a6,0x2
    65b4:	0f8a                	slli	t6,t6,0x2
    65b6:	014f0613          	addi	a2,t5,20
    65ba:	01450393          	addi	t2,a0,20
    65be:	01152623          	sw	a7,12(a0)
    65c2:	00e28333          	add	t1,t0,a4
    65c6:	9fb2                	add	t6,t6,a2
    65c8:	8e96                	mv	t4,t0
    65ca:	8e1e                	mv	t3,t2
    65cc:	4881                	li	a7,0
    65ce:	000ea703          	lw	a4,0(t4)
    65d2:	4214                	lw	a3,0(a2)
    65d4:	0e11                	addi	t3,t3,4
    65d6:	01071793          	slli	a5,a4,0x10
    65da:	01069593          	slli	a1,a3,0x10
    65de:	83c1                	srli	a5,a5,0x10
    65e0:	81c1                	srli	a1,a1,0x10
    65e2:	8f8d                	sub	a5,a5,a1
    65e4:	97c6                	add	a5,a5,a7
    65e6:	82c1                	srli	a3,a3,0x10
    65e8:	8341                	srli	a4,a4,0x10
    65ea:	8f15                	sub	a4,a4,a3
    65ec:	4107d693          	srai	a3,a5,0x10
    65f0:	9736                	add	a4,a4,a3
    65f2:	07c2                	slli	a5,a5,0x10
    65f4:	83c1                	srli	a5,a5,0x10
    65f6:	01071693          	slli	a3,a4,0x10
    65fa:	8fd5                	or	a5,a5,a3
    65fc:	0611                	addi	a2,a2,4
    65fe:	fefe2e23          	sw	a5,-4(t3)
    6602:	0e91                	addi	t4,t4,4
    6604:	41075893          	srai	a7,a4,0x10
    6608:	fdf663e3          	bltu	a2,t6,65ce <__mdiff+0x9e>
    660c:	015f0693          	addi	a3,t5,21
    6610:	4701                	li	a4,0
    6612:	00dfe763          	bltu	t6,a3,6620 <__mdiff+0xf0>
    6616:	41ef8fb3          	sub	t6,t6,t5
    661a:	1fad                	addi	t6,t6,-21
    661c:	ffcff713          	andi	a4,t6,-4
    6620:	00e28e33          	add	t3,t0,a4
    6624:	0e11                	addi	t3,t3,4
    6626:	971e                	add	a4,a4,t2
    6628:	8672                	mv	a2,t3
    662a:	405383b3          	sub	t2,t2,t0
    662e:	00470e93          	addi	t4,a4,4
    6632:	026e7f63          	bgeu	t3,t1,6670 <__mdiff+0x140>
    6636:	4214                	lw	a3,0(a2)
    6638:	007605b3          	add	a1,a2,t2
    663c:	0611                	addi	a2,a2,4
    663e:	01069713          	slli	a4,a3,0x10
    6642:	8341                	srli	a4,a4,0x10
    6644:	9746                	add	a4,a4,a7
    6646:	011687b3          	add	a5,a3,a7
    664a:	8741                	srai	a4,a4,0x10
    664c:	82c1                	srli	a3,a3,0x10
    664e:	9736                	add	a4,a4,a3
    6650:	07c2                	slli	a5,a5,0x10
    6652:	83c1                	srli	a5,a5,0x10
    6654:	01071693          	slli	a3,a4,0x10
    6658:	8fd5                	or	a5,a5,a3
    665a:	c19c                	sw	a5,0(a1)
    665c:	41075893          	srai	a7,a4,0x10
    6660:	fc666be3          	bltu	a2,t1,6636 <__mdiff+0x106>
    6664:	fff30713          	addi	a4,t1,-1
    6668:	41c70733          	sub	a4,a4,t3
    666c:	9b71                	andi	a4,a4,-4
    666e:	9776                	add	a4,a4,t4
    6670:	e791                	bnez	a5,667c <__mdiff+0x14c>
    6672:	ffc72783          	lw	a5,-4(a4)
    6676:	1771                	addi	a4,a4,-4
    6678:	187d                	addi	a6,a6,-1
    667a:	dfe5                	beqz	a5,6672 <__mdiff+0x142>
    667c:	40f2                	lw	ra,28(sp)
    667e:	4462                	lw	s0,24(sp)
    6680:	01052823          	sw	a6,16(a0)
    6684:	6105                	addi	sp,sp,32
    6686:	4281                	li	t0,0
    6688:	4301                	li	t1,0
    668a:	4381                	li	t2,0
    668c:	4581                	li	a1,0
    668e:	4601                	li	a2,0
    6690:	4681                	li	a3,0
    6692:	4701                	li	a4,0
    6694:	4781                	li	a5,0
    6696:	4801                	li	a6,0
    6698:	4881                	li	a7,0
    669a:	4e01                	li	t3,0
    669c:	4e81                	li	t4,0
    669e:	4f01                	li	t5,0
    66a0:	4f81                	li	t6,0
    66a2:	8082                	ret
    66a4:	4581                	li	a1,0
    66a6:	d56ff0ef          	jal	5bfc <_Balloc>
    66aa:	c91d                	beqz	a0,66e0 <__mdiff+0x1b0>
    66ac:	40f2                	lw	ra,28(sp)
    66ae:	4462                	lw	s0,24(sp)
    66b0:	4785                	li	a5,1
    66b2:	00052a23          	sw	zero,20(a0)
    66b6:	c91c                	sw	a5,16(a0)
    66b8:	6105                	addi	sp,sp,32
    66ba:	4281                	li	t0,0
    66bc:	4301                	li	t1,0
    66be:	4381                	li	t2,0
    66c0:	4581                	li	a1,0
    66c2:	4601                	li	a2,0
    66c4:	4681                	li	a3,0
    66c6:	4701                	li	a4,0
    66c8:	4781                	li	a5,0
    66ca:	4801                	li	a6,0
    66cc:	4881                	li	a7,0
    66ce:	4e01                	li	t3,0
    66d0:	4e81                	li	t4,0
    66d2:	4f01                	li	t5,0
    66d4:	4f81                	li	t6,0
    66d6:	8082                	ret
    66d8:	87b2                	mv	a5,a2
    66da:	867a                	mv	a2,t5
    66dc:	8f3e                	mv	t5,a5
    66de:	b555                	j	6582 <__mdiff+0x52>
    66e0:	66ad                	lui	a3,0xb
    66e2:	652d                	lui	a0,0xb
    66e4:	d4468693          	addi	a3,a3,-700 # ad44 <zeroes.0+0xbc>
    66e8:	d7c50513          	addi	a0,a0,-644 # ad7c <zeroes.0+0xf4>
    66ec:	4601                	li	a2,0
    66ee:	23700593          	li	a1,567
    66f2:	573000ef          	jal	7464 <__assert_func>
    66f6:	66ad                	lui	a3,0xb
    66f8:	652d                	lui	a0,0xb
    66fa:	d4468693          	addi	a3,a3,-700 # ad44 <zeroes.0+0xbc>
    66fe:	d7c50513          	addi	a0,a0,-644 # ad7c <zeroes.0+0xf4>
    6702:	4601                	li	a2,0
    6704:	24500593          	li	a1,581
    6708:	55d000ef          	jal	7464 <__assert_func>

0000670c <__ulp>:
    670c:	1101                	addi	sp,sp,-32
    670e:	cc22                	sw	s0,24(sp)
    6710:	ce06                	sw	ra,28(sp)
    6712:	1000                	addi	s0,sp,32
    6714:	fea43427          	fsd	fa0,-24(s0)
    6718:	fec42683          	lw	a3,-20(s0)
    671c:	7ff007b7          	lui	a5,0x7ff00
    6720:	fcc00737          	lui	a4,0xfcc00
    6724:	8ff5                	and	a5,a5,a3
    6726:	97ba                	add	a5,a5,a4
    6728:	4701                	li	a4,0
    672a:	02f05063          	blez	a5,674a <__ulp+0x3e>
    672e:	fee42423          	sw	a4,-24(s0)
    6732:	fef42623          	sw	a5,-20(s0)
    6736:	fe843507          	fld	fa0,-24(s0)
    673a:	40f2                	lw	ra,28(sp)
    673c:	4462                	lw	s0,24(sp)
    673e:	6105                	addi	sp,sp,32
    6740:	4601                	li	a2,0
    6742:	4681                	li	a3,0
    6744:	4701                	li	a4,0
    6746:	4781                	li	a5,0
    6748:	8082                	ret
    674a:	40f007b3          	neg	a5,a5
    674e:	87d1                	srai	a5,a5,0x14
    6750:	474d                	li	a4,19
    6752:	02f74563          	blt	a4,a5,677c <__ulp+0x70>
    6756:	00080737          	lui	a4,0x80
    675a:	40f757b3          	sra	a5,a4,a5
    675e:	4701                	li	a4,0
    6760:	fee42423          	sw	a4,-24(s0)
    6764:	fef42623          	sw	a5,-20(s0)
    6768:	fe843507          	fld	fa0,-24(s0)
    676c:	40f2                	lw	ra,28(sp)
    676e:	4462                	lw	s0,24(sp)
    6770:	6105                	addi	sp,sp,32
    6772:	4601                	li	a2,0
    6774:	4681                	li	a3,0
    6776:	4701                	li	a4,0
    6778:	4781                	li	a5,0
    677a:	8082                	ret
    677c:	17b1                	addi	a5,a5,-20 # 7fefffec <_eusrstack+0x5fef7fec>
    677e:	46f9                	li	a3,30
    6780:	4705                	li	a4,1
    6782:	00f6c663          	blt	a3,a5,678e <__ulp+0x82>
    6786:	80000737          	lui	a4,0x80000
    678a:	00f75733          	srl	a4,a4,a5
    678e:	4781                	li	a5,0
    6790:	fee42423          	sw	a4,-24(s0)
    6794:	fef42623          	sw	a5,-20(s0)
    6798:	fe843507          	fld	fa0,-24(s0)
    679c:	40f2                	lw	ra,28(sp)
    679e:	4462                	lw	s0,24(sp)
    67a0:	6105                	addi	sp,sp,32
    67a2:	4601                	li	a2,0
    67a4:	4681                	li	a3,0
    67a6:	4701                	li	a4,0
    67a8:	4781                	li	a5,0
    67aa:	8082                	ret

000067ac <__b2d>:
    67ac:	7179                	addi	sp,sp,-48
    67ae:	d422                	sw	s0,40(sp)
    67b0:	d226                	sw	s1,36(sp)
    67b2:	1800                	addi	s0,sp,48
    67b4:	d04a                	sw	s2,32(sp)
    67b6:	ce4e                	sw	s3,28(sp)
    67b8:	cc52                	sw	s4,24(sp)
    67ba:	d606                	sw	ra,44(sp)
    67bc:	4904                	lw	s1,16(a0)
    67be:	01450913          	addi	s2,a0,20
    67c2:	fcb42c23          	sw	a1,-40(s0)
    67c6:	048a                	slli	s1,s1,0x2
    67c8:	94ca                	add	s1,s1,s2
    67ca:	ffc4a983          	lw	s3,-4(s1)
    67ce:	ffc48a13          	addi	s4,s1,-4
    67d2:	854e                	mv	a0,s3
    67d4:	ef2ff0ef          	jal	5ec6 <__hi0bits>
    67d8:	fd842583          	lw	a1,-40(s0)
    67dc:	02000713          	li	a4,32
    67e0:	40a707b3          	sub	a5,a4,a0
    67e4:	c19c                	sw	a5,0(a1)
    67e6:	47a9                	li	a5,10
    67e8:	08a7d463          	bge	a5,a0,6870 <__b2d+0xc4>
    67ec:	ff550693          	addi	a3,a0,-11
    67f0:	03497c63          	bgeu	s2,s4,6828 <__b2d+0x7c>
    67f4:	ff84a783          	lw	a5,-8(s1)
    67f8:	c6a1                	beqz	a3,6840 <__b2d+0x94>
    67fa:	8f15                	sub	a4,a4,a3
    67fc:	00d999b3          	sll	s3,s3,a3
    6800:	00e7d633          	srl	a2,a5,a4
    6804:	00c9e9b3          	or	s3,s3,a2
    6808:	3ff00537          	lui	a0,0x3ff00
    680c:	ff848593          	addi	a1,s1,-8
    6810:	00d797b3          	sll	a5,a5,a3
    6814:	00a9e6b3          	or	a3,s3,a0
    6818:	02b97863          	bgeu	s2,a1,6848 <__b2d+0x9c>
    681c:	ff44a583          	lw	a1,-12(s1)
    6820:	00e5d733          	srl	a4,a1,a4
    6824:	8fd9                	or	a5,a5,a4
    6826:	a00d                	j	6848 <__b2d+0x9c>
    6828:	47ad                	li	a5,11
    682a:	00f50a63          	beq	a0,a5,683e <__b2d+0x92>
    682e:	3ff007b7          	lui	a5,0x3ff00
    6832:	00d999b3          	sll	s3,s3,a3
    6836:	00f9e6b3          	or	a3,s3,a5
    683a:	4781                	li	a5,0
    683c:	a031                	j	6848 <__b2d+0x9c>
    683e:	4781                	li	a5,0
    6840:	3ff00737          	lui	a4,0x3ff00
    6844:	00e9e6b3          	or	a3,s3,a4
    6848:	fcf42c23          	sw	a5,-40(s0)
    684c:	fcd42e23          	sw	a3,-36(s0)
    6850:	fd843507          	fld	fa0,-40(s0)
    6854:	50b2                	lw	ra,44(sp)
    6856:	5422                	lw	s0,40(sp)
    6858:	5492                	lw	s1,36(sp)
    685a:	5902                	lw	s2,32(sp)
    685c:	49f2                	lw	s3,28(sp)
    685e:	4a62                	lw	s4,24(sp)
    6860:	6145                	addi	sp,sp,48
    6862:	4501                	li	a0,0
    6864:	4581                	li	a1,0
    6866:	4601                	li	a2,0
    6868:	4681                	li	a3,0
    686a:	4701                	li	a4,0
    686c:	4781                	li	a5,0
    686e:	8082                	ret
    6870:	472d                	li	a4,11
    6872:	8f09                	sub	a4,a4,a0
    6874:	3ff007b7          	lui	a5,0x3ff00
    6878:	00e9d5b3          	srl	a1,s3,a4
    687c:	00f5e6b3          	or	a3,a1,a5
    6880:	4781                	li	a5,0
    6882:	01497663          	bgeu	s2,s4,688e <__b2d+0xe2>
    6886:	ff84a783          	lw	a5,-8(s1)
    688a:	00e7d7b3          	srl	a5,a5,a4
    688e:	0555                	addi	a0,a0,21 # 3ff00015 <_eusrstack+0x1fef8015>
    6890:	00a999b3          	sll	s3,s3,a0
    6894:	00f9e7b3          	or	a5,s3,a5
    6898:	bf45                	j	6848 <__b2d+0x9c>

0000689a <__d2b>:
    689a:	7139                	addi	sp,sp,-64
    689c:	dc22                	sw	s0,56(sp)
    689e:	d64e                	sw	s3,44(sp)
    68a0:	0080                	addi	s0,sp,64
    68a2:	d452                	sw	s4,40(sp)
    68a4:	d256                	sw	s5,36(sp)
    68a6:	d05a                	sw	s6,32(sp)
    68a8:	de06                	sw	ra,60(sp)
    68aa:	da26                	sw	s1,52(sp)
    68ac:	d84a                	sw	s2,48(sp)
    68ae:	fca43427          	fsd	fa0,-56(s0)
    68b2:	8b2e                	mv	s6,a1
    68b4:	4585                	li	a1,1
    68b6:	fc842a03          	lw	s4,-56(s0)
    68ba:	fcc42a83          	lw	s5,-52(s0)
    68be:	89b2                	mv	s3,a2
    68c0:	b3cff0ef          	jal	5bfc <_Balloc>
    68c4:	c961                	beqz	a0,6994 <__d2b+0xfa>
    68c6:	00100737          	lui	a4,0x100
    68ca:	014ad493          	srli	s1,s5,0x14
    68ce:	fff70793          	addi	a5,a4,-1 # fffff <_data_lma+0xf4feb>
    68d2:	7ff4f493          	andi	s1,s1,2047
    68d6:	892a                	mv	s2,a0
    68d8:	0157f7b3          	and	a5,a5,s5
    68dc:	c091                	beqz	s1,68e0 <__d2b+0x46>
    68de:	8fd9                	or	a5,a5,a4
    68e0:	fcf42e23          	sw	a5,-36(s0)
    68e4:	040a1b63          	bnez	s4,693a <__d2b+0xa0>
    68e8:	fdc40513          	addi	a0,s0,-36
    68ec:	e7cff0ef          	jal	5f68 <__lo0bits>
    68f0:	fdc42683          	lw	a3,-36(s0)
    68f4:	4a05                	li	s4,1
    68f6:	01492823          	sw	s4,16(s2)
    68fa:	00d92a23          	sw	a3,20(s2)
    68fe:	02050713          	addi	a4,a0,32
    6902:	c8b5                	beqz	s1,6976 <__d2b+0xdc>
    6904:	bcd48493          	addi	s1,s1,-1075
    6908:	94ba                	add	s1,s1,a4
    690a:	03500793          	li	a5,53
    690e:	009b2023          	sw	s1,0(s6)
    6912:	40e78533          	sub	a0,a5,a4
    6916:	50f2                	lw	ra,60(sp)
    6918:	5462                	lw	s0,56(sp)
    691a:	00a9a023          	sw	a0,0(s3)
    691e:	54d2                	lw	s1,52(sp)
    6920:	59b2                	lw	s3,44(sp)
    6922:	5a22                	lw	s4,40(sp)
    6924:	5a92                	lw	s5,36(sp)
    6926:	5b02                	lw	s6,32(sp)
    6928:	854a                	mv	a0,s2
    692a:	5942                	lw	s2,48(sp)
    692c:	6121                	addi	sp,sp,64
    692e:	4581                	li	a1,0
    6930:	4601                	li	a2,0
    6932:	4681                	li	a3,0
    6934:	4701                	li	a4,0
    6936:	4781                	li	a5,0
    6938:	8082                	ret
    693a:	fd840513          	addi	a0,s0,-40
    693e:	fd442c23          	sw	s4,-40(s0)
    6942:	e26ff0ef          	jal	5f68 <__lo0bits>
    6946:	fdc42683          	lw	a3,-36(s0)
    694a:	fd842603          	lw	a2,-40(s0)
    694e:	872a                	mv	a4,a0
    6950:	c909                	beqz	a0,6962 <__d2b+0xc8>
    6952:	02000793          	li	a5,32
    6956:	8f89                	sub	a5,a5,a0
    6958:	00f697b3          	sll	a5,a3,a5
    695c:	8e5d                	or	a2,a2,a5
    695e:	00a6d6b3          	srl	a3,a3,a0
    6962:	00d03a33          	snez	s4,a3
    6966:	0a05                	addi	s4,s4,1
    6968:	00c92a23          	sw	a2,20(s2)
    696c:	00d92c23          	sw	a3,24(s2)
    6970:	01492823          	sw	s4,16(s2)
    6974:	f8c1                	bnez	s1,6904 <__d2b+0x6a>
    6976:	002a1693          	slli	a3,s4,0x2
    697a:	96ca                	add	a3,a3,s2
    697c:	4a88                	lw	a0,16(a3)
    697e:	bce70713          	addi	a4,a4,-1074
    6982:	00eb2023          	sw	a4,0(s6)
    6986:	d40ff0ef          	jal	5ec6 <__hi0bits>
    698a:	005a1793          	slli	a5,s4,0x5
    698e:	40a78533          	sub	a0,a5,a0
    6992:	b751                	j	6916 <__d2b+0x7c>
    6994:	66ad                	lui	a3,0xb
    6996:	652d                	lui	a0,0xb
    6998:	d4468693          	addi	a3,a3,-700 # ad44 <zeroes.0+0xbc>
    699c:	d7c50513          	addi	a0,a0,-644 # ad7c <zeroes.0+0xf4>
    69a0:	4601                	li	a2,0
    69a2:	30f00593          	li	a1,783
    69a6:	2bf000ef          	jal	7464 <__assert_func>

000069aa <__ratio>:
    69aa:	7139                	addi	sp,sp,-64
    69ac:	dc22                	sw	s0,56(sp)
    69ae:	0080                	addi	s0,sp,64
    69b0:	de06                	sw	ra,60(sp)
    69b2:	da26                	sw	s1,52(sp)
    69b4:	d84a                	sw	s2,48(sp)
    69b6:	d64e                	sw	s3,44(sp)
    69b8:	84ae                	mv	s1,a1
    69ba:	d452                	sw	s4,40(sp)
    69bc:	fd840593          	addi	a1,s0,-40
    69c0:	892a                	mv	s2,a0
    69c2:	33ed                	jal	67ac <__b2d>
    69c4:	fca43427          	fsd	fa0,-56(s0)
    69c8:	fc842783          	lw	a5,-56(s0)
    69cc:	8526                	mv	a0,s1
    69ce:	fdc40593          	addi	a1,s0,-36
    69d2:	89be                	mv	s3,a5
    69d4:	3be1                	jal	67ac <__b2d>
    69d6:	4898                	lw	a4,16(s1)
    69d8:	01092783          	lw	a5,16(s2)
    69dc:	fd842603          	lw	a2,-40(s0)
    69e0:	fdc42683          	lw	a3,-36(s0)
    69e4:	8f99                	sub	a5,a5,a4
    69e6:	0796                	slli	a5,a5,0x5
    69e8:	40d60733          	sub	a4,a2,a3
    69ec:	fca43027          	fsd	fa0,-64(s0)
    69f0:	973e                	add	a4,a4,a5
    69f2:	fc042503          	lw	a0,-64(s0)
    69f6:	04e05063          	blez	a4,6a36 <__ratio+0x8c>
    69fa:	fcc42783          	lw	a5,-52(s0)
    69fe:	0752                	slli	a4,a4,0x14
    6a00:	fd342423          	sw	s3,-56(s0)
    6a04:	00f70a33          	add	s4,a4,a5
    6a08:	fd442623          	sw	s4,-52(s0)
    6a0c:	fc843787          	fld	fa5,-56(s0)
    6a10:	fc043707          	fld	fa4,-64(s0)
    6a14:	50f2                	lw	ra,60(sp)
    6a16:	5462                	lw	s0,56(sp)
    6a18:	54d2                	lw	s1,52(sp)
    6a1a:	5942                	lw	s2,48(sp)
    6a1c:	59b2                	lw	s3,44(sp)
    6a1e:	5a22                	lw	s4,40(sp)
    6a20:	1ae7f553          	fdiv.d	fa0,fa5,fa4
    6a24:	6121                	addi	sp,sp,64
    6a26:	4501                	li	a0,0
    6a28:	4581                	li	a1,0
    6a2a:	4601                	li	a2,0
    6a2c:	4681                	li	a3,0
    6a2e:	4701                	li	a4,0
    6a30:	4781                	li	a5,0
    6a32:	4801                	li	a6,0
    6a34:	8082                	ret
    6a36:	8e91                	sub	a3,a3,a2
    6a38:	8e9d                	sub	a3,a3,a5
    6a3a:	fc442783          	lw	a5,-60(s0)
    6a3e:	06d2                	slli	a3,a3,0x14
    6a40:	fca42023          	sw	a0,-64(s0)
    6a44:	00f685b3          	add	a1,a3,a5
    6a48:	fcb42223          	sw	a1,-60(s0)
    6a4c:	b7c1                	j	6a0c <__ratio+0x62>

00006a4e <_mprec_log10>:
    6a4e:	1141                	addi	sp,sp,-16
    6a50:	c422                	sw	s0,8(sp)
    6a52:	c606                	sw	ra,12(sp)
    6a54:	0800                	addi	s0,sp,16
    6a56:	47dd                	li	a5,23
    6a58:	02a7d163          	bge	a5,a0,6a7a <_mprec_log10+0x2c>
    6a5c:	8581b507          	fld	fa0,-1960(gp) # 20000718 <__malloc_trim_threshold+0x44>
    6a60:	8601b787          	fld	fa5,-1952(gp) # 20000720 <__malloc_trim_threshold+0x4c>
    6a64:	157d                	addi	a0,a0,-1
    6a66:	12f57553          	fmul.d	fa0,fa0,fa5
    6a6a:	fd6d                	bnez	a0,6a64 <_mprec_log10+0x16>
    6a6c:	40b2                	lw	ra,12(sp)
    6a6e:	4422                	lw	s0,8(sp)
    6a70:	0141                	addi	sp,sp,16
    6a72:	4501                	li	a0,0
    6a74:	4701                	li	a4,0
    6a76:	4781                	li	a5,0
    6a78:	8082                	ret
    6a7a:	40b2                	lw	ra,12(sp)
    6a7c:	4422                	lw	s0,8(sp)
    6a7e:	67ad                	lui	a5,0xb
    6a80:	050e                	slli	a0,a0,0x3
    6a82:	8e078793          	addi	a5,a5,-1824 # a8e0 <p05.0>
    6a86:	97aa                	add	a5,a5,a0
    6a88:	2b88                	fld	fa0,16(a5)
    6a8a:	0141                	addi	sp,sp,16
    6a8c:	4501                	li	a0,0
    6a8e:	4701                	li	a4,0
    6a90:	4781                	li	a5,0
    6a92:	8082                	ret

00006a94 <__copybits>:
    6a94:	1141                	addi	sp,sp,-16
    6a96:	c422                	sw	s0,8(sp)
    6a98:	c606                	sw	ra,12(sp)
    6a9a:	0800                	addi	s0,sp,16
    6a9c:	4a14                	lw	a3,16(a2)
    6a9e:	15fd                	addi	a1,a1,-1
    6aa0:	8595                	srai	a1,a1,0x5
    6aa2:	0585                	addi	a1,a1,1
    6aa4:	068a                	slli	a3,a3,0x2
    6aa6:	01460793          	addi	a5,a2,20
    6aaa:	058a                	slli	a1,a1,0x2
    6aac:	96be                	add	a3,a3,a5
    6aae:	95aa                	add	a1,a1,a0
    6ab0:	02d7f063          	bgeu	a5,a3,6ad0 <__copybits+0x3c>
    6ab4:	872a                	mv	a4,a0
    6ab6:	0007a803          	lw	a6,0(a5)
    6aba:	0791                	addi	a5,a5,4
    6abc:	0711                	addi	a4,a4,4
    6abe:	ff072e23          	sw	a6,-4(a4)
    6ac2:	fed7eae3          	bltu	a5,a3,6ab6 <__copybits+0x22>
    6ac6:	8e91                	sub	a3,a3,a2
    6ac8:	16ad                	addi	a3,a3,-21
    6aca:	9af1                	andi	a3,a3,-4
    6acc:	0511                	addi	a0,a0,4
    6ace:	9536                	add	a0,a0,a3
    6ad0:	00b57763          	bgeu	a0,a1,6ade <__copybits+0x4a>
    6ad4:	0511                	addi	a0,a0,4
    6ad6:	fe052e23          	sw	zero,-4(a0)
    6ada:	feb56de3          	bltu	a0,a1,6ad4 <__copybits+0x40>
    6ade:	40b2                	lw	ra,12(sp)
    6ae0:	4422                	lw	s0,8(sp)
    6ae2:	0141                	addi	sp,sp,16
    6ae4:	4501                	li	a0,0
    6ae6:	4581                	li	a1,0
    6ae8:	4601                	li	a2,0
    6aea:	4681                	li	a3,0
    6aec:	4701                	li	a4,0
    6aee:	4781                	li	a5,0
    6af0:	4801                	li	a6,0
    6af2:	8082                	ret

00006af4 <__any_on>:
    6af4:	1141                	addi	sp,sp,-16
    6af6:	c422                	sw	s0,8(sp)
    6af8:	c606                	sw	ra,12(sp)
    6afa:	0800                	addi	s0,sp,16
    6afc:	4918                	lw	a4,16(a0)
    6afe:	4055d613          	srai	a2,a1,0x5
    6b02:	01450693          	addi	a3,a0,20
    6b06:	02c75563          	bge	a4,a2,6b30 <__any_on+0x3c>
    6b0a:	070a                	slli	a4,a4,0x2
    6b0c:	00e687b3          	add	a5,a3,a4
    6b10:	04f6f063          	bgeu	a3,a5,6b50 <__any_on+0x5c>
    6b14:	ffc7a703          	lw	a4,-4(a5)
    6b18:	17f1                	addi	a5,a5,-4
    6b1a:	db7d                	beqz	a4,6b10 <__any_on+0x1c>
    6b1c:	4505                	li	a0,1
    6b1e:	40b2                	lw	ra,12(sp)
    6b20:	4422                	lw	s0,8(sp)
    6b22:	0141                	addi	sp,sp,16
    6b24:	4581                	li	a1,0
    6b26:	4601                	li	a2,0
    6b28:	4681                	li	a3,0
    6b2a:	4701                	li	a4,0
    6b2c:	4781                	li	a5,0
    6b2e:	8082                	ret
    6b30:	00261793          	slli	a5,a2,0x2
    6b34:	97b6                	add	a5,a5,a3
    6b36:	fce65de3          	bge	a2,a4,6b10 <__any_on+0x1c>
    6b3a:	89fd                	andi	a1,a1,31
    6b3c:	d9f1                	beqz	a1,6b10 <__any_on+0x1c>
    6b3e:	4390                	lw	a2,0(a5)
    6b40:	4505                	li	a0,1
    6b42:	00b65733          	srl	a4,a2,a1
    6b46:	00b71733          	sll	a4,a4,a1
    6b4a:	fce61ae3          	bne	a2,a4,6b1e <__any_on+0x2a>
    6b4e:	b7c9                	j	6b10 <__any_on+0x1c>
    6b50:	40b2                	lw	ra,12(sp)
    6b52:	4422                	lw	s0,8(sp)
    6b54:	4501                	li	a0,0
    6b56:	0141                	addi	sp,sp,16
    6b58:	4581                	li	a1,0
    6b5a:	4601                	li	a2,0
    6b5c:	4681                	li	a3,0
    6b5e:	4701                	li	a4,0
    6b60:	4781                	li	a5,0
    6b62:	8082                	ret

00006b64 <_realloc_r>:
    6b64:	1a058463          	beqz	a1,6d0c <_realloc_r+0x1a8>
    6b68:	1101                	addi	sp,sp,-32
    6b6a:	cc22                	sw	s0,24(sp)
    6b6c:	ca26                	sw	s1,20(sp)
    6b6e:	1000                	addi	s0,sp,32
    6b70:	c84a                	sw	s2,16(sp)
    6b72:	ce06                	sw	ra,28(sp)
    6b74:	84ae                	mv	s1,a1
    6b76:	892a                	mv	s2,a0
    6b78:	fec42623          	sw	a2,-20(s0)
    6b7c:	854ff0ef          	jal	5bd0 <__malloc_lock>
    6b80:	fec42583          	lw	a1,-20(s0)
    6b84:	4759                	li	a4,22
    6b86:	00b58793          	addi	a5,a1,11
    6b8a:	10f77563          	bgeu	a4,a5,6c94 <_realloc_r+0x130>
    6b8e:	9be1                	andi	a5,a5,-8
    6b90:	86be                	mv	a3,a5
    6b92:	01f7d713          	srli	a4,a5,0x1f
    6b96:	18b7ef63          	bltu	a5,a1,6d34 <_realloc_r+0x1d0>
    6b9a:	18071d63          	bnez	a4,6d34 <_realloc_r+0x1d0>
    6b9e:	ffc4a603          	lw	a2,-4(s1)
    6ba2:	ff848813          	addi	a6,s1,-8
    6ba6:	ffc67713          	andi	a4,a2,-4
    6baa:	10d75063          	bge	a4,a3,6caa <_realloc_r+0x146>
    6bae:	20000337          	lui	t1,0x20000
    6bb2:	14c30313          	addi	t1,t1,332 # 2000014c <__malloc_av_>
    6bb6:	00832883          	lw	a7,8(t1)
    6bba:	00e80e33          	add	t3,a6,a4
    6bbe:	004e2503          	lw	a0,4(t3)
    6bc2:	19c88e63          	beq	a7,t3,6d5e <_realloc_r+0x1fa>
    6bc6:	ffe57893          	andi	a7,a0,-2
    6bca:	98f2                	add	a7,a7,t3
    6bcc:	0048a883          	lw	a7,4(a7)
    6bd0:	0018f893          	andi	a7,a7,1
    6bd4:	12089163          	bnez	a7,6cf6 <_realloc_r+0x192>
    6bd8:	9971                	andi	a0,a0,-4
    6bda:	00a708b3          	add	a7,a4,a0
    6bde:	0ad8df63          	bge	a7,a3,6c9c <_realloc_r+0x138>
    6be2:	8a05                	andi	a2,a2,1
    6be4:	e20d                	bnez	a2,6c06 <_realloc_r+0xa2>
    6be6:	ff84ae83          	lw	t4,-8(s1)
    6bea:	41d80eb3          	sub	t4,a6,t4
    6bee:	004ea603          	lw	a2,4(t4)
    6bf2:	9a71                	andi	a2,a2,-4
    6bf4:	9532                	add	a0,a0,a2
    6bf6:	00e508b3          	add	a7,a0,a4
    6bfa:	28d8d463          	bge	a7,a3,6e82 <_realloc_r+0x31e>
    6bfe:	00c708b3          	add	a7,a4,a2
    6c02:	22d8d063          	bge	a7,a3,6e22 <_realloc_r+0x2be>
    6c06:	854a                	mv	a0,s2
    6c08:	fee42223          	sw	a4,-28(s0)
    6c0c:	ff042423          	sw	a6,-24(s0)
    6c10:	fef42623          	sw	a5,-20(s0)
    6c14:	8bffe0ef          	jal	54d2 <_malloc_r>
    6c18:	fec42783          	lw	a5,-20(s0)
    6c1c:	fe842803          	lw	a6,-24(s0)
    6c20:	fe442703          	lw	a4,-28(s0)
    6c24:	86aa                	mv	a3,a0
    6c26:	36050163          	beqz	a0,6f88 <_realloc_r+0x424>
    6c2a:	ffc4a603          	lw	a2,-4(s1)
    6c2e:	ff850593          	addi	a1,a0,-8
    6c32:	9a79                	andi	a2,a2,-2
    6c34:	9642                	add	a2,a2,a6
    6c36:	1cb60563          	beq	a2,a1,6e00 <_realloc_r+0x29c>
    6c3a:	ffc70613          	addi	a2,a4,-4
    6c3e:	02400793          	li	a5,36
    6c42:	22c7e863          	bltu	a5,a2,6e72 <_realloc_r+0x30e>
    6c46:	474d                	li	a4,19
    6c48:	1cc76163          	bltu	a4,a2,6e0a <_realloc_r+0x2a6>
    6c4c:	87aa                	mv	a5,a0
    6c4e:	8726                	mv	a4,s1
    6c50:	4310                	lw	a2,0(a4)
    6c52:	c390                	sw	a2,0(a5)
    6c54:	4350                	lw	a2,4(a4)
    6c56:	c3d0                	sw	a2,4(a5)
    6c58:	4718                	lw	a4,8(a4)
    6c5a:	c798                	sw	a4,8(a5)
    6c5c:	85a6                	mv	a1,s1
    6c5e:	854a                	mv	a0,s2
    6c60:	fed42623          	sw	a3,-20(s0)
    6c64:	e2efe0ef          	jal	5292 <_free_r>
    6c68:	854a                	mv	a0,s2
    6c6a:	f7dfe0ef          	jal	5be6 <__malloc_unlock>
    6c6e:	fec42683          	lw	a3,-20(s0)
    6c72:	40f2                	lw	ra,28(sp)
    6c74:	4462                	lw	s0,24(sp)
    6c76:	44d2                	lw	s1,20(sp)
    6c78:	4942                	lw	s2,16(sp)
    6c7a:	8536                	mv	a0,a3
    6c7c:	6105                	addi	sp,sp,32
    6c7e:	4301                	li	t1,0
    6c80:	4581                	li	a1,0
    6c82:	4601                	li	a2,0
    6c84:	4681                	li	a3,0
    6c86:	4701                	li	a4,0
    6c88:	4781                	li	a5,0
    6c8a:	4801                	li	a6,0
    6c8c:	4881                	li	a7,0
    6c8e:	4e01                	li	t3,0
    6c90:	4e81                	li	t4,0
    6c92:	8082                	ret
    6c94:	46c1                	li	a3,16
    6c96:	87b6                	mv	a5,a3
    6c98:	4701                	li	a4,0
    6c9a:	bdf5                	j	6b96 <_realloc_r+0x32>
    6c9c:	00ce2683          	lw	a3,12(t3)
    6ca0:	008e2603          	lw	a2,8(t3)
    6ca4:	8746                	mv	a4,a7
    6ca6:	c654                	sw	a3,12(a2)
    6ca8:	c690                	sw	a2,8(a3)
    6caa:	00482683          	lw	a3,4(a6)
    6cae:	40f70533          	sub	a0,a4,a5
    6cb2:	45bd                	li	a1,15
    6cb4:	8a85                	andi	a3,a3,1
    6cb6:	00e80633          	add	a2,a6,a4
    6cba:	04a5ec63          	bltu	a1,a0,6d12 <_realloc_r+0x1ae>
    6cbe:	8ed9                	or	a3,a3,a4
    6cc0:	00d82223          	sw	a3,4(a6)
    6cc4:	425c                	lw	a5,4(a2)
    6cc6:	0017e793          	ori	a5,a5,1
    6cca:	c25c                	sw	a5,4(a2)
    6ccc:	854a                	mv	a0,s2
    6cce:	f19fe0ef          	jal	5be6 <__malloc_unlock>
    6cd2:	86a6                	mv	a3,s1
    6cd4:	40f2                	lw	ra,28(sp)
    6cd6:	4462                	lw	s0,24(sp)
    6cd8:	44d2                	lw	s1,20(sp)
    6cda:	4942                	lw	s2,16(sp)
    6cdc:	8536                	mv	a0,a3
    6cde:	6105                	addi	sp,sp,32
    6ce0:	4301                	li	t1,0
    6ce2:	4581                	li	a1,0
    6ce4:	4601                	li	a2,0
    6ce6:	4681                	li	a3,0
    6ce8:	4701                	li	a4,0
    6cea:	4781                	li	a5,0
    6cec:	4801                	li	a6,0
    6cee:	4881                	li	a7,0
    6cf0:	4e01                	li	t3,0
    6cf2:	4e81                	li	t4,0
    6cf4:	8082                	ret
    6cf6:	8a05                	andi	a2,a2,1
    6cf8:	f00617e3          	bnez	a2,6c06 <_realloc_r+0xa2>
    6cfc:	ff84ae83          	lw	t4,-8(s1)
    6d00:	41d80eb3          	sub	t4,a6,t4
    6d04:	004ea603          	lw	a2,4(t4)
    6d08:	9a71                	andi	a2,a2,-4
    6d0a:	bdd5                	j	6bfe <_realloc_r+0x9a>
    6d0c:	85b2                	mv	a1,a2
    6d0e:	fc4fe06f          	j	54d2 <_malloc_r>
    6d12:	8edd                	or	a3,a3,a5
    6d14:	00d82223          	sw	a3,4(a6)
    6d18:	00f805b3          	add	a1,a6,a5
    6d1c:	00156513          	ori	a0,a0,1
    6d20:	c1c8                	sw	a0,4(a1)
    6d22:	425c                	lw	a5,4(a2)
    6d24:	05a1                	addi	a1,a1,8
    6d26:	854a                	mv	a0,s2
    6d28:	0017e793          	ori	a5,a5,1
    6d2c:	c25c                	sw	a5,4(a2)
    6d2e:	d64fe0ef          	jal	5292 <_free_r>
    6d32:	bf69                	j	6ccc <_realloc_r+0x168>
    6d34:	47b1                	li	a5,12
    6d36:	00f92023          	sw	a5,0(s2)
    6d3a:	4681                	li	a3,0
    6d3c:	40f2                	lw	ra,28(sp)
    6d3e:	4462                	lw	s0,24(sp)
    6d40:	44d2                	lw	s1,20(sp)
    6d42:	4942                	lw	s2,16(sp)
    6d44:	8536                	mv	a0,a3
    6d46:	6105                	addi	sp,sp,32
    6d48:	4301                	li	t1,0
    6d4a:	4581                	li	a1,0
    6d4c:	4601                	li	a2,0
    6d4e:	4681                	li	a3,0
    6d50:	4701                	li	a4,0
    6d52:	4781                	li	a5,0
    6d54:	4801                	li	a6,0
    6d56:	4881                	li	a7,0
    6d58:	4e01                	li	t3,0
    6d5a:	4e81                	li	t4,0
    6d5c:	8082                	ret
    6d5e:	9971                	andi	a0,a0,-4
    6d60:	00e508b3          	add	a7,a0,a4
    6d64:	01078e13          	addi	t3,a5,16
    6d68:	1bc8db63          	bge	a7,t3,6f1e <_realloc_r+0x3ba>
    6d6c:	8a05                	andi	a2,a2,1
    6d6e:	e8061ce3          	bnez	a2,6c06 <_realloc_r+0xa2>
    6d72:	ff84ae83          	lw	t4,-8(s1)
    6d76:	41d80eb3          	sub	t4,a6,t4
    6d7a:	004ea603          	lw	a2,4(t4)
    6d7e:	9a71                	andi	a2,a2,-4
    6d80:	9532                	add	a0,a0,a2
    6d82:	00e508b3          	add	a7,a0,a4
    6d86:	e7c8cce3          	blt	a7,t3,6bfe <_realloc_r+0x9a>
    6d8a:	00cea683          	lw	a3,12(t4)
    6d8e:	008ea583          	lw	a1,8(t4)
    6d92:	ffc70613          	addi	a2,a4,-4
    6d96:	02400713          	li	a4,36
    6d9a:	c5d4                	sw	a3,12(a1)
    6d9c:	c68c                	sw	a1,8(a3)
    6d9e:	008e8693          	addi	a3,t4,8
    6da2:	20c76f63          	bltu	a4,a2,6fc0 <_realloc_r+0x45c>
    6da6:	45cd                	li	a1,19
    6da8:	8736                	mv	a4,a3
    6daa:	00c5fe63          	bgeu	a1,a2,6dc6 <_realloc_r+0x262>
    6dae:	408c                	lw	a1,0(s1)
    6db0:	476d                	li	a4,27
    6db2:	00bea423          	sw	a1,8(t4)
    6db6:	40cc                	lw	a1,4(s1)
    6db8:	00bea623          	sw	a1,12(t4)
    6dbc:	24c76663          	bltu	a4,a2,7008 <_realloc_r+0x4a4>
    6dc0:	04a1                	addi	s1,s1,8
    6dc2:	010e8713          	addi	a4,t4,16
    6dc6:	4090                	lw	a2,0(s1)
    6dc8:	c310                	sw	a2,0(a4)
    6dca:	40d0                	lw	a2,4(s1)
    6dcc:	c350                	sw	a2,4(a4)
    6dce:	4490                	lw	a2,8(s1)
    6dd0:	c710                	sw	a2,8(a4)
    6dd2:	00fe8633          	add	a2,t4,a5
    6dd6:	40f88733          	sub	a4,a7,a5
    6dda:	00c32423          	sw	a2,8(t1)
    6dde:	00176713          	ori	a4,a4,1
    6de2:	c258                	sw	a4,4(a2)
    6de4:	004ea703          	lw	a4,4(t4)
    6de8:	854a                	mv	a0,s2
    6dea:	fed42623          	sw	a3,-20(s0)
    6dee:	8b05                	andi	a4,a4,1
    6df0:	8fd9                	or	a5,a5,a4
    6df2:	00fea223          	sw	a5,4(t4)
    6df6:	df1fe0ef          	jal	5be6 <__malloc_unlock>
    6dfa:	fec42683          	lw	a3,-20(s0)
    6dfe:	bdd9                	j	6cd4 <_realloc_r+0x170>
    6e00:	ffc52683          	lw	a3,-4(a0)
    6e04:	9af1                	andi	a3,a3,-4
    6e06:	9736                	add	a4,a4,a3
    6e08:	b54d                	j	6caa <_realloc_r+0x146>
    6e0a:	408c                	lw	a1,0(s1)
    6e0c:	476d                	li	a4,27
    6e0e:	c10c                	sw	a1,0(a0)
    6e10:	40cc                	lw	a1,4(s1)
    6e12:	c14c                	sw	a1,4(a0)
    6e14:	0cc76563          	bltu	a4,a2,6ede <_realloc_r+0x37a>
    6e18:	00848713          	addi	a4,s1,8
    6e1c:	00850793          	addi	a5,a0,8
    6e20:	bd05                	j	6c50 <_realloc_r+0xec>
    6e22:	00cea683          	lw	a3,12(t4)
    6e26:	008ea583          	lw	a1,8(t4)
    6e2a:	ffc70613          	addi	a2,a4,-4
    6e2e:	02400513          	li	a0,36
    6e32:	c5d4                	sw	a3,12(a1)
    6e34:	c68c                	sw	a1,8(a3)
    6e36:	008e8693          	addi	a3,t4,8
    6e3a:	0ac56d63          	bltu	a0,a2,6ef4 <_realloc_r+0x390>
    6e3e:	45cd                	li	a1,19
    6e40:	8736                	mv	a4,a3
    6e42:	00c5fe63          	bgeu	a1,a2,6e5e <_realloc_r+0x2fa>
    6e46:	408c                	lw	a1,0(s1)
    6e48:	476d                	li	a4,27
    6e4a:	00bea423          	sw	a1,8(t4)
    6e4e:	40cc                	lw	a1,4(s1)
    6e50:	00bea623          	sw	a1,12(t4)
    6e54:	10c76e63          	bltu	a4,a2,6f70 <_realloc_r+0x40c>
    6e58:	04a1                	addi	s1,s1,8
    6e5a:	010e8713          	addi	a4,t4,16
    6e5e:	4090                	lw	a2,0(s1)
    6e60:	c310                	sw	a2,0(a4)
    6e62:	40d0                	lw	a2,4(s1)
    6e64:	c350                	sw	a2,4(a4)
    6e66:	4490                	lw	a2,8(s1)
    6e68:	c710                	sw	a2,8(a4)
    6e6a:	84b6                	mv	s1,a3
    6e6c:	8746                	mv	a4,a7
    6e6e:	8876                	mv	a6,t4
    6e70:	bd2d                	j	6caa <_realloc_r+0x146>
    6e72:	85a6                	mv	a1,s1
    6e74:	fea42623          	sw	a0,-20(s0)
    6e78:	ff9fc0ef          	jal	3e70 <memmove>
    6e7c:	fec42683          	lw	a3,-20(s0)
    6e80:	bbf1                	j	6c5c <_realloc_r+0xf8>
    6e82:	00ce2683          	lw	a3,12(t3)
    6e86:	008e2583          	lw	a1,8(t3)
    6e8a:	ffc70613          	addi	a2,a4,-4
    6e8e:	02400513          	li	a0,36
    6e92:	c5d4                	sw	a3,12(a1)
    6e94:	c68c                	sw	a1,8(a3)
    6e96:	00cea703          	lw	a4,12(t4)
    6e9a:	008ea683          	lw	a3,8(t4)
    6e9e:	008e8813          	addi	a6,t4,8
    6ea2:	c6d8                	sw	a4,12(a3)
    6ea4:	c714                	sw	a3,8(a4)
    6ea6:	0ac56063          	bltu	a0,a2,6f46 <_realloc_r+0x3e2>
    6eaa:	46cd                	li	a3,19
    6eac:	8742                	mv	a4,a6
    6eae:	00c6fe63          	bgeu	a3,a2,6eca <_realloc_r+0x366>
    6eb2:	4094                	lw	a3,0(s1)
    6eb4:	476d                	li	a4,27
    6eb6:	00dea423          	sw	a3,8(t4)
    6eba:	40d4                	lw	a3,4(s1)
    6ebc:	00dea623          	sw	a3,12(t4)
    6ec0:	0ec76263          	bltu	a4,a2,6fa4 <_realloc_r+0x440>
    6ec4:	04a1                	addi	s1,s1,8
    6ec6:	010e8713          	addi	a4,t4,16
    6eca:	4094                	lw	a3,0(s1)
    6ecc:	c314                	sw	a3,0(a4)
    6ece:	40d4                	lw	a3,4(s1)
    6ed0:	c354                	sw	a3,4(a4)
    6ed2:	4494                	lw	a3,8(s1)
    6ed4:	c714                	sw	a3,8(a4)
    6ed6:	84c2                	mv	s1,a6
    6ed8:	8746                	mv	a4,a7
    6eda:	8876                	mv	a6,t4
    6edc:	b3f9                	j	6caa <_realloc_r+0x146>
    6ede:	4498                	lw	a4,8(s1)
    6ee0:	c518                	sw	a4,8(a0)
    6ee2:	44d8                	lw	a4,12(s1)
    6ee4:	c558                	sw	a4,12(a0)
    6ee6:	0af60663          	beq	a2,a5,6f92 <_realloc_r+0x42e>
    6eea:	01048713          	addi	a4,s1,16
    6eee:	01050793          	addi	a5,a0,16
    6ef2:	bbb9                	j	6c50 <_realloc_r+0xec>
    6ef4:	8536                	mv	a0,a3
    6ef6:	85a6                	mv	a1,s1
    6ef8:	ffd42023          	sw	t4,-32(s0)
    6efc:	fef42223          	sw	a5,-28(s0)
    6f00:	ff142423          	sw	a7,-24(s0)
    6f04:	fed42623          	sw	a3,-20(s0)
    6f08:	f69fc0ef          	jal	3e70 <memmove>
    6f0c:	fe042e83          	lw	t4,-32(s0)
    6f10:	fe442783          	lw	a5,-28(s0)
    6f14:	fe842883          	lw	a7,-24(s0)
    6f18:	fec42683          	lw	a3,-20(s0)
    6f1c:	b7b9                	j	6e6a <_realloc_r+0x306>
    6f1e:	983e                	add	a6,a6,a5
    6f20:	40f88733          	sub	a4,a7,a5
    6f24:	01032423          	sw	a6,8(t1)
    6f28:	00176713          	ori	a4,a4,1
    6f2c:	00e82223          	sw	a4,4(a6)
    6f30:	ffc4a703          	lw	a4,-4(s1)
    6f34:	854a                	mv	a0,s2
    6f36:	8b05                	andi	a4,a4,1
    6f38:	8fd9                	or	a5,a5,a4
    6f3a:	fef4ae23          	sw	a5,-4(s1)
    6f3e:	ca9fe0ef          	jal	5be6 <__malloc_unlock>
    6f42:	86a6                	mv	a3,s1
    6f44:	bb41                	j	6cd4 <_realloc_r+0x170>
    6f46:	8542                	mv	a0,a6
    6f48:	85a6                	mv	a1,s1
    6f4a:	ffd42023          	sw	t4,-32(s0)
    6f4e:	fef42223          	sw	a5,-28(s0)
    6f52:	ff142423          	sw	a7,-24(s0)
    6f56:	ff042623          	sw	a6,-20(s0)
    6f5a:	f17fc0ef          	jal	3e70 <memmove>
    6f5e:	fec42803          	lw	a6,-20(s0)
    6f62:	fe842883          	lw	a7,-24(s0)
    6f66:	fe442783          	lw	a5,-28(s0)
    6f6a:	fe042e83          	lw	t4,-32(s0)
    6f6e:	b7a5                	j	6ed6 <_realloc_r+0x372>
    6f70:	4498                	lw	a4,8(s1)
    6f72:	00eea823          	sw	a4,16(t4)
    6f76:	44d8                	lw	a4,12(s1)
    6f78:	00eeaa23          	sw	a4,20(t4)
    6f7c:	06a60b63          	beq	a2,a0,6ff2 <_realloc_r+0x48e>
    6f80:	04c1                	addi	s1,s1,16
    6f82:	018e8713          	addi	a4,t4,24
    6f86:	bde1                	j	6e5e <_realloc_r+0x2fa>
    6f88:	854a                	mv	a0,s2
    6f8a:	c5dfe0ef          	jal	5be6 <__malloc_unlock>
    6f8e:	4681                	li	a3,0
    6f90:	b375                	j	6d3c <_realloc_r+0x1d8>
    6f92:	4890                	lw	a2,16(s1)
    6f94:	01848713          	addi	a4,s1,24
    6f98:	01850793          	addi	a5,a0,24
    6f9c:	c910                	sw	a2,16(a0)
    6f9e:	48d0                	lw	a2,20(s1)
    6fa0:	c950                	sw	a2,20(a0)
    6fa2:	b17d                	j	6c50 <_realloc_r+0xec>
    6fa4:	4494                	lw	a3,8(s1)
    6fa6:	02400713          	li	a4,36
    6faa:	00dea823          	sw	a3,16(t4)
    6fae:	44d4                	lw	a3,12(s1)
    6fb0:	00deaa23          	sw	a3,20(t4)
    6fb4:	06e60863          	beq	a2,a4,7024 <_realloc_r+0x4c0>
    6fb8:	04c1                	addi	s1,s1,16
    6fba:	018e8713          	addi	a4,t4,24
    6fbe:	b731                	j	6eca <_realloc_r+0x366>
    6fc0:	8536                	mv	a0,a3
    6fc2:	85a6                	mv	a1,s1
    6fc4:	ffd42023          	sw	t4,-32(s0)
    6fc8:	fef42223          	sw	a5,-28(s0)
    6fcc:	ff142423          	sw	a7,-24(s0)
    6fd0:	fed42623          	sw	a3,-20(s0)
    6fd4:	e9dfc0ef          	jal	3e70 <memmove>
    6fd8:	200007b7          	lui	a5,0x20000
    6fdc:	14c78313          	addi	t1,a5,332 # 2000014c <__malloc_av_>
    6fe0:	fe042e83          	lw	t4,-32(s0)
    6fe4:	fe442783          	lw	a5,-28(s0)
    6fe8:	fe842883          	lw	a7,-24(s0)
    6fec:	fec42683          	lw	a3,-20(s0)
    6ff0:	b3cd                	j	6dd2 <_realloc_r+0x26e>
    6ff2:	4890                	lw	a2,16(s1)
    6ff4:	020e8713          	addi	a4,t4,32
    6ff8:	04e1                	addi	s1,s1,24
    6ffa:	00ceac23          	sw	a2,24(t4)
    6ffe:	ffc4a603          	lw	a2,-4(s1)
    7002:	00ceae23          	sw	a2,28(t4)
    7006:	bda1                	j	6e5e <_realloc_r+0x2fa>
    7008:	448c                	lw	a1,8(s1)
    700a:	02400713          	li	a4,36
    700e:	00bea823          	sw	a1,16(t4)
    7012:	44cc                	lw	a1,12(s1)
    7014:	00beaa23          	sw	a1,20(t4)
    7018:	02e60163          	beq	a2,a4,703a <_realloc_r+0x4d6>
    701c:	04c1                	addi	s1,s1,16
    701e:	018e8713          	addi	a4,t4,24
    7022:	b355                	j	6dc6 <_realloc_r+0x262>
    7024:	4894                	lw	a3,16(s1)
    7026:	020e8713          	addi	a4,t4,32
    702a:	04e1                	addi	s1,s1,24
    702c:	00deac23          	sw	a3,24(t4)
    7030:	ffc4a683          	lw	a3,-4(s1)
    7034:	00deae23          	sw	a3,28(t4)
    7038:	bd49                	j	6eca <_realloc_r+0x366>
    703a:	4890                	lw	a2,16(s1)
    703c:	020e8713          	addi	a4,t4,32
    7040:	00ceac23          	sw	a2,24(t4)
    7044:	48d0                	lw	a2,20(s1)
    7046:	04e1                	addi	s1,s1,24
    7048:	00ceae23          	sw	a2,28(t4)
    704c:	bbad                	j	6dc6 <_realloc_r+0x262>

0000704e <_fclose_r>:
    704e:	1101                	addi	sp,sp,-32
    7050:	cc22                	sw	s0,24(sp)
    7052:	ce06                	sw	ra,28(sp)
    7054:	c64e                	sw	s3,12(sp)
    7056:	1000                	addi	s0,sp,32
    7058:	cdc9                	beqz	a1,70f2 <_fclose_r+0xa4>
    705a:	ca26                	sw	s1,20(sp)
    705c:	c84a                	sw	s2,16(sp)
    705e:	84ae                	mv	s1,a1
    7060:	892a                	mv	s2,a0
    7062:	c119                	beqz	a0,7068 <_fclose_r+0x1a>
    7064:	595c                	lw	a5,52(a0)
    7066:	cbdd                	beqz	a5,711c <_fclose_r+0xce>
    7068:	50fc                	lw	a5,100(s1)
    706a:	00c49703          	lh	a4,12(s1)
    706e:	8b85                	andi	a5,a5,1
    7070:	efb5                	bnez	a5,70ec <_fclose_r+0x9e>
    7072:	20077713          	andi	a4,a4,512
    7076:	c755                	beqz	a4,7122 <_fclose_r+0xd4>
    7078:	85a6                	mv	a1,s1
    707a:	854a                	mv	a0,s2
    707c:	d21fb0ef          	jal	2d9c <__sflush_r>
    7080:	54dc                	lw	a5,44(s1)
    7082:	89aa                	mv	s3,a0
    7084:	c791                	beqz	a5,7090 <_fclose_r+0x42>
    7086:	4ccc                	lw	a1,28(s1)
    7088:	854a                	mv	a0,s2
    708a:	9782                	jalr	a5
    708c:	06054d63          	bltz	a0,7106 <_fclose_r+0xb8>
    7090:	00c4d783          	lhu	a5,12(s1)
    7094:	0807f793          	andi	a5,a5,128
    7098:	efad                	bnez	a5,7112 <_fclose_r+0xc4>
    709a:	588c                	lw	a1,48(s1)
    709c:	c991                	beqz	a1,70b0 <_fclose_r+0x62>
    709e:	04048793          	addi	a5,s1,64
    70a2:	00f58563          	beq	a1,a5,70ac <_fclose_r+0x5e>
    70a6:	854a                	mv	a0,s2
    70a8:	9eafe0ef          	jal	5292 <_free_r>
    70ac:	0204a823          	sw	zero,48(s1)
    70b0:	40ec                	lw	a1,68(s1)
    70b2:	c591                	beqz	a1,70be <_fclose_r+0x70>
    70b4:	854a                	mv	a0,s2
    70b6:	9dcfe0ef          	jal	5292 <_free_r>
    70ba:	0404a223          	sw	zero,68(s1)
    70be:	b74fc0ef          	jal	3432 <__sfp_lock_acquire>
    70c2:	50fc                	lw	a5,100(s1)
    70c4:	00049623          	sh	zero,12(s1)
    70c8:	8b85                	andi	a5,a5,1
    70ca:	cbbd                	beqz	a5,7140 <_fclose_r+0xf2>
    70cc:	4ca8                	lw	a0,88(s1)
    70ce:	d2ffc0ef          	jal	3dfc <__retarget_lock_close_recursive>
    70d2:	b76fc0ef          	jal	3448 <__sfp_lock_release>
    70d6:	40f2                	lw	ra,28(sp)
    70d8:	4462                	lw	s0,24(sp)
    70da:	44d2                	lw	s1,20(sp)
    70dc:	4942                	lw	s2,16(sp)
    70de:	854e                	mv	a0,s3
    70e0:	49b2                	lw	s3,12(sp)
    70e2:	6105                	addi	sp,sp,32
    70e4:	4581                	li	a1,0
    70e6:	4701                	li	a4,0
    70e8:	4781                	li	a5,0
    70ea:	8082                	ret
    70ec:	f751                	bnez	a4,7078 <_fclose_r+0x2a>
    70ee:	44d2                	lw	s1,20(sp)
    70f0:	4942                	lw	s2,16(sp)
    70f2:	40f2                	lw	ra,28(sp)
    70f4:	4462                	lw	s0,24(sp)
    70f6:	4981                	li	s3,0
    70f8:	854e                	mv	a0,s3
    70fa:	49b2                	lw	s3,12(sp)
    70fc:	6105                	addi	sp,sp,32
    70fe:	4581                	li	a1,0
    7100:	4701                	li	a4,0
    7102:	4781                	li	a5,0
    7104:	8082                	ret
    7106:	00c4d783          	lhu	a5,12(s1)
    710a:	59fd                	li	s3,-1
    710c:	0807f793          	andi	a5,a5,128
    7110:	d7c9                	beqz	a5,709a <_fclose_r+0x4c>
    7112:	488c                	lw	a1,16(s1)
    7114:	854a                	mv	a0,s2
    7116:	97cfe0ef          	jal	5292 <_free_r>
    711a:	b741                	j	709a <_fclose_r+0x4c>
    711c:	ac4fc0ef          	jal	33e0 <__sinit>
    7120:	b7a1                	j	7068 <_fclose_r+0x1a>
    7122:	4ca8                	lw	a0,88(s1)
    7124:	cf9fc0ef          	jal	3e1c <__retarget_lock_acquire_recursive>
    7128:	00c49783          	lh	a5,12(s1)
    712c:	f7b1                	bnez	a5,7078 <_fclose_r+0x2a>
    712e:	50fc                	lw	a5,100(s1)
    7130:	8b85                	andi	a5,a5,1
    7132:	ffd5                	bnez	a5,70ee <_fclose_r+0xa0>
    7134:	4ca8                	lw	a0,88(s1)
    7136:	d2bfc0ef          	jal	3e60 <__retarget_lock_release_recursive>
    713a:	44d2                	lw	s1,20(sp)
    713c:	4942                	lw	s2,16(sp)
    713e:	bf55                	j	70f2 <_fclose_r+0xa4>
    7140:	4ca8                	lw	a0,88(s1)
    7142:	d1ffc0ef          	jal	3e60 <__retarget_lock_release_recursive>
    7146:	b759                	j	70cc <_fclose_r+0x7e>

00007148 <fclose>:
    7148:	1141                	addi	sp,sp,-16
    714a:	c422                	sw	s0,8(sp)
    714c:	c606                	sw	ra,12(sp)
    714e:	0800                	addi	s0,sp,16
    7150:	200007b7          	lui	a5,0x20000
    7154:	4422                	lw	s0,8(sp)
    7156:	40b2                	lw	ra,12(sp)
    7158:	85aa                	mv	a1,a0
    715a:	6c87a503          	lw	a0,1736(a5) # 200006c8 <_impure_ptr>
    715e:	0141                	addi	sp,sp,16
    7160:	b5fd                	j	704e <_fclose_r>

00007162 <__smakebuf_r>:
    7162:	00c59783          	lh	a5,12(a1)
    7166:	0027f713          	andi	a4,a5,2
    716a:	cf11                	beqz	a4,7186 <__smakebuf_r+0x24>
    716c:	04358793          	addi	a5,a1,67
    7170:	4705                	li	a4,1
    7172:	c19c                	sw	a5,0(a1)
    7174:	c99c                	sw	a5,16(a1)
    7176:	c9d8                	sw	a4,20(a1)
    7178:	4501                	li	a0,0
    717a:	4581                	li	a1,0
    717c:	4601                	li	a2,0
    717e:	4681                	li	a3,0
    7180:	4701                	li	a4,0
    7182:	4781                	li	a5,0
    7184:	8082                	ret
    7186:	7119                	addi	sp,sp,-128
    7188:	dca2                	sw	s0,120(sp)
    718a:	daa6                	sw	s1,116(sp)
    718c:	de86                	sw	ra,124(sp)
    718e:	0100                	addi	s0,sp,128
    7190:	872e                	mv	a4,a1
    7192:	00e59583          	lh	a1,14(a1)
    7196:	84aa                	mv	s1,a0
    7198:	0605ce63          	bltz	a1,7214 <__smakebuf_r+0xb2>
    719c:	f9840613          	addi	a2,s0,-104
    71a0:	f8e42623          	sw	a4,-116(s0)
    71a4:	2ad1                	jal	7378 <_fstat_r>
    71a6:	f8c42703          	lw	a4,-116(s0)
    71aa:	06054363          	bltz	a0,7210 <__smakebuf_r+0xae>
    71ae:	40000593          	li	a1,1024
    71b2:	8526                	mv	a0,s1
    71b4:	d8ca                	sw	s2,112(sp)
    71b6:	f8e42623          	sw	a4,-116(s0)
    71ba:	f9c42903          	lw	s2,-100(s0)
    71be:	b14fe0ef          	jal	54d2 <_malloc_r>
    71c2:	f8c42703          	lw	a4,-116(s0)
    71c6:	00c71783          	lh	a5,12(a4)
    71ca:	c14d                	beqz	a0,726c <__smakebuf_r+0x10a>
    71cc:	40000693          	li	a3,1024
    71d0:	0807e793          	ori	a5,a5,128
    71d4:	cb54                	sw	a3,20(a4)
    71d6:	40c95693          	srai	a3,s2,0xc
    71da:	00f71623          	sh	a5,12(a4)
    71de:	c308                	sw	a0,0(a4)
    71e0:	cb08                	sw	a0,16(a4)
    71e2:	8abd                	andi	a3,a3,15
    71e4:	4609                	li	a2,2
    71e6:	0ac69363          	bne	a3,a2,728c <__smakebuf_r+0x12a>
    71ea:	00e71583          	lh	a1,14(a4)
    71ee:	8526                	mv	a0,s1
    71f0:	f8e42623          	sw	a4,-116(s0)
    71f4:	2ae1                	jal	73cc <_isatty_r>
    71f6:	f8c42703          	lw	a4,-116(s0)
    71fa:	00c71783          	lh	a5,12(a4)
    71fe:	c559                	beqz	a0,728c <__smakebuf_r+0x12a>
    7200:	9bf1                	andi	a5,a5,-4
    7202:	6685                	lui	a3,0x1
    7204:	5946                	lw	s2,112(sp)
    7206:	0017e793          	ori	a5,a5,1
    720a:	80068693          	addi	a3,a3,-2048 # 800 <__stack_size>
    720e:	a089                	j	7250 <__smakebuf_r+0xee>
    7210:	00c71783          	lh	a5,12(a4)
    7214:	0807f793          	andi	a5,a5,128
    7218:	0017b793          	seqz	a5,a5
    721c:	40f007b3          	neg	a5,a5
    7220:	3c07f593          	andi	a1,a5,960
    7224:	04058593          	addi	a1,a1,64
    7228:	8526                	mv	a0,s1
    722a:	f8e42423          	sw	a4,-120(s0)
    722e:	f8b42623          	sw	a1,-116(s0)
    7232:	aa0fe0ef          	jal	54d2 <_malloc_r>
    7236:	f8842703          	lw	a4,-120(s0)
    723a:	f8c42583          	lw	a1,-116(s0)
    723e:	00c71783          	lh	a5,12(a4)
    7242:	c515                	beqz	a0,726e <__smakebuf_r+0x10c>
    7244:	0807e793          	ori	a5,a5,128
    7248:	c308                	sw	a0,0(a4)
    724a:	cb08                	sw	a0,16(a4)
    724c:	cb4c                	sw	a1,20(a4)
    724e:	4681                	li	a3,0
    7250:	8fd5                	or	a5,a5,a3
    7252:	00f71623          	sh	a5,12(a4)
    7256:	50f6                	lw	ra,124(sp)
    7258:	5466                	lw	s0,120(sp)
    725a:	54d6                	lw	s1,116(sp)
    725c:	6109                	addi	sp,sp,128
    725e:	4501                	li	a0,0
    7260:	4581                	li	a1,0
    7262:	4601                	li	a2,0
    7264:	4681                	li	a3,0
    7266:	4701                	li	a4,0
    7268:	4781                	li	a5,0
    726a:	8082                	ret
    726c:	5946                	lw	s2,112(sp)
    726e:	2007f693          	andi	a3,a5,512
    7272:	f2f5                	bnez	a3,7256 <__smakebuf_r+0xf4>
    7274:	9bf1                	andi	a5,a5,-4
    7276:	04370693          	addi	a3,a4,67
    727a:	0027e793          	ori	a5,a5,2
    727e:	4605                	li	a2,1
    7280:	00f71623          	sh	a5,12(a4)
    7284:	c314                	sw	a3,0(a4)
    7286:	cb14                	sw	a3,16(a4)
    7288:	cb50                	sw	a2,20(a4)
    728a:	b7f1                	j	7256 <__smakebuf_r+0xf4>
    728c:	6685                	lui	a3,0x1
    728e:	5946                	lw	s2,112(sp)
    7290:	80068693          	addi	a3,a3,-2048 # 800 <__stack_size>
    7294:	bf75                	j	7250 <__smakebuf_r+0xee>

00007296 <__swhatbuf_r>:
    7296:	87ae                	mv	a5,a1
    7298:	00e59583          	lh	a1,14(a1)
    729c:	8732                	mv	a4,a2
    729e:	0805c363          	bltz	a1,7324 <__swhatbuf_r+0x8e>
    72a2:	7119                	addi	sp,sp,-128
    72a4:	dca2                	sw	s0,120(sp)
    72a6:	de86                	sw	ra,124(sp)
    72a8:	0100                	addi	s0,sp,128
    72aa:	f8c42423          	sw	a2,-120(s0)
    72ae:	f9840613          	addi	a2,s0,-104
    72b2:	f8d42223          	sw	a3,-124(s0)
    72b6:	f8f42623          	sw	a5,-116(s0)
    72ba:	287d                	jal	7378 <_fstat_r>
    72bc:	f8c42783          	lw	a5,-116(s0)
    72c0:	f8842703          	lw	a4,-120(s0)
    72c4:	f8442683          	lw	a3,-124(s0)
    72c8:	02054a63          	bltz	a0,72fc <__swhatbuf_r+0x66>
    72cc:	f9c42783          	lw	a5,-100(s0)
    72d0:	65bd                	lui	a1,0xf
    72d2:	7679                	lui	a2,0xffffe
    72d4:	8fed                	and	a5,a5,a1
    72d6:	97b2                	add	a5,a5,a2
    72d8:	50f6                	lw	ra,124(sp)
    72da:	5466                	lw	s0,120(sp)
    72dc:	0017b793          	seqz	a5,a5
    72e0:	c29c                	sw	a5,0(a3)
    72e2:	40000613          	li	a2,1024
    72e6:	6505                	lui	a0,0x1
    72e8:	c310                	sw	a2,0(a4)
    72ea:	80050513          	addi	a0,a0,-2048 # 800 <__stack_size>
    72ee:	6109                	addi	sp,sp,128
    72f0:	4581                	li	a1,0
    72f2:	4601                	li	a2,0
    72f4:	4681                	li	a3,0
    72f6:	4701                	li	a4,0
    72f8:	4781                	li	a5,0
    72fa:	8082                	ret
    72fc:	00c7d783          	lhu	a5,12(a5)
    7300:	0807f793          	andi	a5,a5,128
    7304:	c3a1                	beqz	a5,7344 <__swhatbuf_r+0xae>
    7306:	50f6                	lw	ra,124(sp)
    7308:	5466                	lw	s0,120(sp)
    730a:	4781                	li	a5,0
    730c:	c29c                	sw	a5,0(a3)
    730e:	04000613          	li	a2,64
    7312:	c310                	sw	a2,0(a4)
    7314:	4501                	li	a0,0
    7316:	6109                	addi	sp,sp,128
    7318:	4581                	li	a1,0
    731a:	4601                	li	a2,0
    731c:	4681                	li	a3,0
    731e:	4701                	li	a4,0
    7320:	4781                	li	a5,0
    7322:	8082                	ret
    7324:	00c7d783          	lhu	a5,12(a5)
    7328:	0807f793          	andi	a5,a5,128
    732c:	eb95                	bnez	a5,7360 <__swhatbuf_r+0xca>
    732e:	40000613          	li	a2,1024
    7332:	c29c                	sw	a5,0(a3)
    7334:	4501                	li	a0,0
    7336:	c310                	sw	a2,0(a4)
    7338:	4581                	li	a1,0
    733a:	4601                	li	a2,0
    733c:	4681                	li	a3,0
    733e:	4701                	li	a4,0
    7340:	4781                	li	a5,0
    7342:	8082                	ret
    7344:	50f6                	lw	ra,124(sp)
    7346:	5466                	lw	s0,120(sp)
    7348:	c29c                	sw	a5,0(a3)
    734a:	40000613          	li	a2,1024
    734e:	c310                	sw	a2,0(a4)
    7350:	4501                	li	a0,0
    7352:	6109                	addi	sp,sp,128
    7354:	4581                	li	a1,0
    7356:	4601                	li	a2,0
    7358:	4681                	li	a3,0
    735a:	4701                	li	a4,0
    735c:	4781                	li	a5,0
    735e:	8082                	ret
    7360:	4781                	li	a5,0
    7362:	04000613          	li	a2,64
    7366:	c29c                	sw	a5,0(a3)
    7368:	4501                	li	a0,0
    736a:	c310                	sw	a2,0(a4)
    736c:	4581                	li	a1,0
    736e:	4601                	li	a2,0
    7370:	4681                	li	a3,0
    7372:	4701                	li	a4,0
    7374:	4781                	li	a5,0
    7376:	8082                	ret

00007378 <_fstat_r>:
    7378:	1141                	addi	sp,sp,-16
    737a:	87ae                	mv	a5,a1
    737c:	c422                	sw	s0,8(sp)
    737e:	c226                	sw	s1,4(sp)
    7380:	c04a                	sw	s2,0(sp)
    7382:	c606                	sw	ra,12(sp)
    7384:	0800                	addi	s0,sp,16
    7386:	85b2                	mv	a1,a2
    7388:	892a                	mv	s2,a0
    738a:	853e                	mv	a0,a5
    738c:	8801a823          	sw	zero,-1904(gp) # 20000750 <errno>
    7390:	2e1010ef          	jal	8e70 <_fstat>
    7394:	57fd                	li	a5,-1
    7396:	00f50c63          	beq	a0,a5,73ae <_fstat_r+0x36>
    739a:	40b2                	lw	ra,12(sp)
    739c:	4422                	lw	s0,8(sp)
    739e:	4492                	lw	s1,4(sp)
    73a0:	4902                	lw	s2,0(sp)
    73a2:	0141                	addi	sp,sp,16
    73a4:	4581                	li	a1,0
    73a6:	4601                	li	a2,0
    73a8:	4701                	li	a4,0
    73aa:	4781                	li	a5,0
    73ac:	8082                	ret
    73ae:	8901a783          	lw	a5,-1904(gp) # 20000750 <errno>
    73b2:	d7e5                	beqz	a5,739a <_fstat_r+0x22>
    73b4:	40b2                	lw	ra,12(sp)
    73b6:	4422                	lw	s0,8(sp)
    73b8:	00f92023          	sw	a5,0(s2)
    73bc:	4492                	lw	s1,4(sp)
    73be:	4902                	lw	s2,0(sp)
    73c0:	0141                	addi	sp,sp,16
    73c2:	4581                	li	a1,0
    73c4:	4601                	li	a2,0
    73c6:	4701                	li	a4,0
    73c8:	4781                	li	a5,0
    73ca:	8082                	ret

000073cc <_isatty_r>:
    73cc:	1141                	addi	sp,sp,-16
    73ce:	c422                	sw	s0,8(sp)
    73d0:	c226                	sw	s1,4(sp)
    73d2:	c04a                	sw	s2,0(sp)
    73d4:	c606                	sw	ra,12(sp)
    73d6:	0800                	addi	s0,sp,16
    73d8:	892a                	mv	s2,a0
    73da:	852e                	mv	a0,a1
    73dc:	8801a823          	sw	zero,-1904(gp) # 20000750 <errno>
    73e0:	2f1010ef          	jal	8ed0 <_isatty>
    73e4:	57fd                	li	a5,-1
    73e6:	00f50b63          	beq	a0,a5,73fc <_isatty_r+0x30>
    73ea:	40b2                	lw	ra,12(sp)
    73ec:	4422                	lw	s0,8(sp)
    73ee:	4492                	lw	s1,4(sp)
    73f0:	4902                	lw	s2,0(sp)
    73f2:	0141                	addi	sp,sp,16
    73f4:	4581                	li	a1,0
    73f6:	4701                	li	a4,0
    73f8:	4781                	li	a5,0
    73fa:	8082                	ret
    73fc:	8901a783          	lw	a5,-1904(gp) # 20000750 <errno>
    7400:	d7ed                	beqz	a5,73ea <_isatty_r+0x1e>
    7402:	40b2                	lw	ra,12(sp)
    7404:	4422                	lw	s0,8(sp)
    7406:	00f92023          	sw	a5,0(s2)
    740a:	4492                	lw	s1,4(sp)
    740c:	4902                	lw	s2,0(sp)
    740e:	0141                	addi	sp,sp,16
    7410:	4581                	li	a1,0
    7412:	4701                	li	a4,0
    7414:	4781                	li	a5,0
    7416:	8082                	ret

00007418 <_sbrk_r>:
    7418:	1141                	addi	sp,sp,-16
    741a:	c422                	sw	s0,8(sp)
    741c:	c226                	sw	s1,4(sp)
    741e:	c04a                	sw	s2,0(sp)
    7420:	c606                	sw	ra,12(sp)
    7422:	0800                	addi	s0,sp,16
    7424:	892a                	mv	s2,a0
    7426:	852e                	mv	a0,a1
    7428:	8801a823          	sw	zero,-1904(gp) # 20000750 <errno>
    742c:	7d3020ef          	jal	a3fe <_sbrk>
    7430:	57fd                	li	a5,-1
    7432:	00f50b63          	beq	a0,a5,7448 <_sbrk_r+0x30>
    7436:	40b2                	lw	ra,12(sp)
    7438:	4422                	lw	s0,8(sp)
    743a:	4492                	lw	s1,4(sp)
    743c:	4902                	lw	s2,0(sp)
    743e:	0141                	addi	sp,sp,16
    7440:	4581                	li	a1,0
    7442:	4701                	li	a4,0
    7444:	4781                	li	a5,0
    7446:	8082                	ret
    7448:	8901a783          	lw	a5,-1904(gp) # 20000750 <errno>
    744c:	d7ed                	beqz	a5,7436 <_sbrk_r+0x1e>
    744e:	40b2                	lw	ra,12(sp)
    7450:	4422                	lw	s0,8(sp)
    7452:	00f92023          	sw	a5,0(s2)
    7456:	4492                	lw	s1,4(sp)
    7458:	4902                	lw	s2,0(sp)
    745a:	0141                	addi	sp,sp,16
    745c:	4581                	li	a1,0
    745e:	4701                	li	a4,0
    7460:	4781                	li	a5,0
    7462:	8082                	ret

00007464 <__assert_func>:
    7464:	1141                	addi	sp,sp,-16
    7466:	c422                	sw	s0,8(sp)
    7468:	c606                	sw	ra,12(sp)
    746a:	0800                	addi	s0,sp,16
    746c:	200007b7          	lui	a5,0x20000
    7470:	6c87a783          	lw	a5,1736(a5) # 200006c8 <_impure_ptr>
    7474:	8832                	mv	a6,a2
    7476:	832a                	mv	t1,a0
    7478:	872e                	mv	a4,a1
    747a:	47c8                	lw	a0,12(a5)
    747c:	8636                	mv	a2,a3
    747e:	00080c63          	beqz	a6,7496 <__assert_func+0x32>
    7482:	67ad                	lui	a5,0xb
    7484:	db078793          	addi	a5,a5,-592 # adb0 <zeroes.0+0x128>
    7488:	65ad                	lui	a1,0xb
    748a:	869a                	mv	a3,t1
    748c:	dc058593          	addi	a1,a1,-576 # adc0 <zeroes.0+0x138>
    7490:	2c01                	jal	76a0 <fiprintf>
    7492:	488010ef          	jal	891a <abort>
    7496:	67ad                	lui	a5,0xb
    7498:	dbc78793          	addi	a5,a5,-580 # adbc <zeroes.0+0x134>
    749c:	883e                	mv	a6,a5
    749e:	b7ed                	j	7488 <__assert_func+0x24>

000074a0 <__assert>:
    74a0:	1141                	addi	sp,sp,-16
    74a2:	c422                	sw	s0,8(sp)
    74a4:	c606                	sw	ra,12(sp)
    74a6:	0800                	addi	s0,sp,16
    74a8:	86b2                	mv	a3,a2
    74aa:	4601                	li	a2,0
    74ac:	3f65                	jal	7464 <__assert_func>

000074ae <_calloc_r>:
    74ae:	02c5b7b3          	mulhu	a5,a1,a2
    74b2:	1101                	addi	sp,sp,-32
    74b4:	cc22                	sw	s0,24(sp)
    74b6:	ce06                	sw	ra,28(sp)
    74b8:	1000                	addi	s0,sp,32
    74ba:	02c585b3          	mul	a1,a1,a2
    74be:	ebd1                	bnez	a5,7552 <_calloc_r+0xa4>
    74c0:	812fe0ef          	jal	54d2 <_malloc_r>
    74c4:	87aa                	mv	a5,a0
    74c6:	c951                	beqz	a0,755a <_calloc_r+0xac>
    74c8:	ffc52603          	lw	a2,-4(a0)
    74cc:	02400693          	li	a3,36
    74d0:	9a71                	andi	a2,a2,-4
    74d2:	1671                	addi	a2,a2,-4 # ffffdffc <_eusrstack+0xdfff5ffc>
    74d4:	04c6e563          	bltu	a3,a2,751e <_calloc_r+0x70>
    74d8:	45cd                	li	a1,19
    74da:	872a                	mv	a4,a0
    74dc:	02c5f163          	bgeu	a1,a2,74fe <_calloc_r+0x50>
    74e0:	00052023          	sw	zero,0(a0)
    74e4:	00052223          	sw	zero,4(a0)
    74e8:	476d                	li	a4,27
    74ea:	04c77b63          	bgeu	a4,a2,7540 <_calloc_r+0x92>
    74ee:	00052423          	sw	zero,8(a0)
    74f2:	00052623          	sw	zero,12(a0)
    74f6:	01050713          	addi	a4,a0,16
    74fa:	06d60b63          	beq	a2,a3,7570 <_calloc_r+0xc2>
    74fe:	00072023          	sw	zero,0(a4)
    7502:	00072223          	sw	zero,4(a4)
    7506:	00072423          	sw	zero,8(a4)
    750a:	40f2                	lw	ra,28(sp)
    750c:	4462                	lw	s0,24(sp)
    750e:	853e                	mv	a0,a5
    7510:	6105                	addi	sp,sp,32
    7512:	4581                	li	a1,0
    7514:	4601                	li	a2,0
    7516:	4681                	li	a3,0
    7518:	4701                	li	a4,0
    751a:	4781                	li	a5,0
    751c:	8082                	ret
    751e:	4581                	li	a1,0
    7520:	fea42623          	sw	a0,-20(s0)
    7524:	a5dfc0ef          	jal	3f80 <memset>
    7528:	fec42783          	lw	a5,-20(s0)
    752c:	40f2                	lw	ra,28(sp)
    752e:	4462                	lw	s0,24(sp)
    7530:	853e                	mv	a0,a5
    7532:	6105                	addi	sp,sp,32
    7534:	4581                	li	a1,0
    7536:	4601                	li	a2,0
    7538:	4681                	li	a3,0
    753a:	4701                	li	a4,0
    753c:	4781                	li	a5,0
    753e:	8082                	ret
    7540:	00850713          	addi	a4,a0,8
    7544:	00072023          	sw	zero,0(a4)
    7548:	00072223          	sw	zero,4(a4)
    754c:	00072423          	sw	zero,8(a4)
    7550:	bf6d                	j	750a <_calloc_r+0x5c>
    7552:	3ae010ef          	jal	8900 <__errno>
    7556:	47b1                	li	a5,12
    7558:	c11c                	sw	a5,0(a0)
    755a:	40f2                	lw	ra,28(sp)
    755c:	4462                	lw	s0,24(sp)
    755e:	4781                	li	a5,0
    7560:	853e                	mv	a0,a5
    7562:	6105                	addi	sp,sp,32
    7564:	4581                	li	a1,0
    7566:	4601                	li	a2,0
    7568:	4681                	li	a3,0
    756a:	4701                	li	a4,0
    756c:	4781                	li	a5,0
    756e:	8082                	ret
    7570:	00052823          	sw	zero,16(a0)
    7574:	00052a23          	sw	zero,20(a0)
    7578:	01850713          	addi	a4,a0,24
    757c:	b749                	j	74fe <_calloc_r+0x50>

0000757e <_mbtowc_r>:
    757e:	1141                	addi	sp,sp,-16
    7580:	c422                	sw	s0,8(sp)
    7582:	c606                	sw	ra,12(sp)
    7584:	0800                	addi	s0,sp,16
    7586:	200007b7          	lui	a5,0x20000
    758a:	4422                	lw	s0,8(sp)
    758c:	40b2                	lw	ra,12(sp)
    758e:	6387a783          	lw	a5,1592(a5) # 20000638 <__global_locale+0xe4>
    7592:	0141                	addi	sp,sp,16
    7594:	8782                	jr	a5

00007596 <__ascii_mbtowc>:
    7596:	cd99                	beqz	a1,75b4 <__ascii_mbtowc+0x1e>
    7598:	c629                	beqz	a2,75e2 <__ascii_mbtowc+0x4c>
    759a:	cea1                	beqz	a3,75f2 <__ascii_mbtowc+0x5c>
    759c:	00064783          	lbu	a5,0(a2)
    75a0:	c19c                	sw	a5,0(a1)
    75a2:	00064503          	lbu	a0,0(a2)
    75a6:	00a03533          	snez	a0,a0
    75aa:	4581                	li	a1,0
    75ac:	4601                	li	a2,0
    75ae:	4681                	li	a3,0
    75b0:	4781                	li	a5,0
    75b2:	8082                	ret
    75b4:	1101                	addi	sp,sp,-32
    75b6:	cc22                	sw	s0,24(sp)
    75b8:	ce06                	sw	ra,28(sp)
    75ba:	1000                	addi	s0,sp,32
    75bc:	fec40593          	addi	a1,s0,-20
    75c0:	c61d                	beqz	a2,75ee <__ascii_mbtowc+0x58>
    75c2:	ce95                	beqz	a3,75fe <__ascii_mbtowc+0x68>
    75c4:	00064783          	lbu	a5,0(a2)
    75c8:	c19c                	sw	a5,0(a1)
    75ca:	00064503          	lbu	a0,0(a2)
    75ce:	00a03533          	snez	a0,a0
    75d2:	40f2                	lw	ra,28(sp)
    75d4:	4462                	lw	s0,24(sp)
    75d6:	6105                	addi	sp,sp,32
    75d8:	4581                	li	a1,0
    75da:	4601                	li	a2,0
    75dc:	4681                	li	a3,0
    75de:	4781                	li	a5,0
    75e0:	8082                	ret
    75e2:	4501                	li	a0,0
    75e4:	4581                	li	a1,0
    75e6:	4601                	li	a2,0
    75e8:	4681                	li	a3,0
    75ea:	4781                	li	a5,0
    75ec:	8082                	ret
    75ee:	4501                	li	a0,0
    75f0:	b7cd                	j	75d2 <__ascii_mbtowc+0x3c>
    75f2:	5579                	li	a0,-2
    75f4:	4581                	li	a1,0
    75f6:	4601                	li	a2,0
    75f8:	4681                	li	a3,0
    75fa:	4781                	li	a5,0
    75fc:	8082                	ret
    75fe:	5579                	li	a0,-2
    7600:	bfc9                	j	75d2 <__ascii_mbtowc+0x3c>

00007602 <_wctomb_r>:
    7602:	1141                	addi	sp,sp,-16
    7604:	c422                	sw	s0,8(sp)
    7606:	c606                	sw	ra,12(sp)
    7608:	0800                	addi	s0,sp,16
    760a:	200007b7          	lui	a5,0x20000
    760e:	4422                	lw	s0,8(sp)
    7610:	40b2                	lw	ra,12(sp)
    7612:	6347a783          	lw	a5,1588(a5) # 20000634 <__global_locale+0xe0>
    7616:	0141                	addi	sp,sp,16
    7618:	8782                	jr	a5

0000761a <__ascii_wctomb>:
    761a:	1141                	addi	sp,sp,-16
    761c:	c422                	sw	s0,8(sp)
    761e:	c606                	sw	ra,12(sp)
    7620:	0800                	addi	s0,sp,16
    7622:	c995                	beqz	a1,7656 <__ascii_wctomb+0x3c>
    7624:	0ff00793          	li	a5,255
    7628:	00c7ec63          	bltu	a5,a2,7640 <__ascii_wctomb+0x26>
    762c:	40b2                	lw	ra,12(sp)
    762e:	4422                	lw	s0,8(sp)
    7630:	00c58023          	sb	a2,0(a1)
    7634:	4505                	li	a0,1
    7636:	0141                	addi	sp,sp,16
    7638:	4581                	li	a1,0
    763a:	4601                	li	a2,0
    763c:	4781                	li	a5,0
    763e:	8082                	ret
    7640:	40b2                	lw	ra,12(sp)
    7642:	4422                	lw	s0,8(sp)
    7644:	08a00793          	li	a5,138
    7648:	c11c                	sw	a5,0(a0)
    764a:	557d                	li	a0,-1
    764c:	0141                	addi	sp,sp,16
    764e:	4581                	li	a1,0
    7650:	4601                	li	a2,0
    7652:	4781                	li	a5,0
    7654:	8082                	ret
    7656:	40b2                	lw	ra,12(sp)
    7658:	4422                	lw	s0,8(sp)
    765a:	4501                	li	a0,0
    765c:	0141                	addi	sp,sp,16
    765e:	4581                	li	a1,0
    7660:	4601                	li	a2,0
    7662:	4781                	li	a5,0
    7664:	8082                	ret

00007666 <_fiprintf_r>:
    7666:	7139                	addi	sp,sp,-64
    7668:	cc22                	sw	s0,24(sp)
    766a:	ce06                	sw	ra,28(sp)
    766c:	1000                	addi	s0,sp,32
    766e:	00c40313          	addi	t1,s0,12
    7672:	c454                	sw	a3,12(s0)
    7674:	869a                	mv	a3,t1
    7676:	c818                	sw	a4,16(s0)
    7678:	c85c                	sw	a5,20(s0)
    767a:	01042c23          	sw	a6,24(s0)
    767e:	01142e23          	sw	a7,28(s0)
    7682:	fe642623          	sw	t1,-20(s0)
    7686:	20ad                	jal	76f0 <_vfiprintf_r>
    7688:	40f2                	lw	ra,28(sp)
    768a:	4462                	lw	s0,24(sp)
    768c:	6121                	addi	sp,sp,64
    768e:	4301                	li	t1,0
    7690:	4581                	li	a1,0
    7692:	4601                	li	a2,0
    7694:	4681                	li	a3,0
    7696:	4701                	li	a4,0
    7698:	4781                	li	a5,0
    769a:	4801                	li	a6,0
    769c:	4881                	li	a7,0
    769e:	8082                	ret

000076a0 <fiprintf>:
    76a0:	7139                	addi	sp,sp,-64
    76a2:	cc22                	sw	s0,24(sp)
    76a4:	ce06                	sw	ra,28(sp)
    76a6:	1000                	addi	s0,sp,32
    76a8:	20000337          	lui	t1,0x20000
    76ac:	8eaa                	mv	t4,a0
    76ae:	6c832503          	lw	a0,1736(t1) # 200006c8 <_impure_ptr>
    76b2:	8e2e                	mv	t3,a1
    76b4:	00840313          	addi	t1,s0,8
    76b8:	c410                	sw	a2,8(s0)
    76ba:	c454                	sw	a3,12(s0)
    76bc:	85f6                	mv	a1,t4
    76be:	8672                	mv	a2,t3
    76c0:	869a                	mv	a3,t1
    76c2:	c818                	sw	a4,16(s0)
    76c4:	c85c                	sw	a5,20(s0)
    76c6:	01042c23          	sw	a6,24(s0)
    76ca:	01142e23          	sw	a7,28(s0)
    76ce:	fe642623          	sw	t1,-20(s0)
    76d2:	2839                	jal	76f0 <_vfiprintf_r>
    76d4:	40f2                	lw	ra,28(sp)
    76d6:	4462                	lw	s0,24(sp)
    76d8:	6121                	addi	sp,sp,64
    76da:	4301                	li	t1,0
    76dc:	4581                	li	a1,0
    76de:	4601                	li	a2,0
    76e0:	4681                	li	a3,0
    76e2:	4701                	li	a4,0
    76e4:	4781                	li	a5,0
    76e6:	4801                	li	a6,0
    76e8:	4881                	li	a7,0
    76ea:	4e01                	li	t3,0
    76ec:	4e81                	li	t4,0
    76ee:	8082                	ret

000076f0 <_vfiprintf_r>:
    76f0:	7169                	addi	sp,sp,-304
    76f2:	12812423          	sw	s0,296(sp)
    76f6:	13212023          	sw	s2,288(sp)
    76fa:	11412c23          	sw	s4,280(sp)
    76fe:	11512a23          	sw	s5,276(sp)
    7702:	11612823          	sw	s6,272(sp)
    7706:	12112623          	sw	ra,300(sp)
    770a:	11912223          	sw	s9,260(sp)
    770e:	1a00                	addi	s0,sp,304
    7710:	8b2a                	mv	s6,a0
    7712:	8932                	mv	s2,a2
    7714:	8ab6                	mv	s5,a3
    7716:	8a2e                	mv	s4,a1
    7718:	c501                	beqz	a0,7720 <_vfiprintf_r+0x30>
    771a:	595c                	lw	a5,52(a0)
    771c:	660788e3          	beqz	a5,858c <_vfiprintf_r+0xe9c>
    7720:	064a2703          	lw	a4,100(s4)
    7724:	00ca1783          	lh	a5,12(s4)
    7728:	00177693          	andi	a3,a4,1
    772c:	2e068a63          	beqz	a3,7a20 <_vfiprintf_r+0x330>
    7730:	01279693          	slli	a3,a5,0x12
    7734:	3006cfe3          	bltz	a3,8252 <_vfiprintf_r+0xb62>
    7738:	76f9                	lui	a3,0xffffe
    773a:	16fd                	addi	a3,a3,-1 # ffffdfff <_eusrstack+0xdfff5fff>
    773c:	6609                	lui	a2,0x2
    773e:	8f75                	and	a4,a4,a3
    7740:	8fd1                	or	a5,a5,a2
    7742:	06ea2223          	sw	a4,100(s4)
    7746:	00fa1623          	sh	a5,12(s4)
    774a:	01271793          	slli	a5,a4,0x12
    774e:	0007d463          	bgez	a5,7756 <_vfiprintf_r+0x66>
    7752:	0820106f          	j	87d4 <_vfiprintf_r+0x10e4>
    7756:	00ca1783          	lh	a5,12(s4)
    775a:	0087f713          	andi	a4,a5,8
    775e:	1c070963          	beqz	a4,7930 <_vfiprintf_r+0x240>
    7762:	010a2703          	lw	a4,16(s4)
    7766:	1c070563          	beqz	a4,7930 <_vfiprintf_r+0x240>
    776a:	01a7f713          	andi	a4,a5,26
    776e:	46a9                	li	a3,10
    7770:	1cd70d63          	beq	a4,a3,794a <_vfiprintf_r+0x25a>
    7774:	11a12023          	sw	s10,256(sp)
    7778:	6d2d                	lui	s10,0xb
    777a:	11712623          	sw	s7,268(sp)
    777e:	11812423          	sw	s8,264(sp)
    7782:	f1c40b93          	addi	s7,s0,-228
    7786:	6c2d                	lui	s8,0xb
    7788:	b0cd0713          	addi	a4,s10,-1268 # ab0c <_ctype_+0x104>
    778c:	11312e23          	sw	s3,284(sp)
    7790:	12912223          	sw	s1,292(sp)
    7794:	dfee                	sw	s11,252(sp)
    7796:	f0042c23          	sw	zero,-232(s0)
    779a:	f0042a23          	sw	zero,-236(s0)
    779e:	f1742823          	sw	s7,-240(s0)
    77a2:	87de                	mv	a5,s7
    77a4:	eee42e23          	sw	a4,-260(s0)
    77a8:	c88c0c13          	addi	s8,s8,-888 # ac88 <zeroes.0>
    77ac:	ee042423          	sw	zero,-280(s0)
    77b0:	ee042223          	sw	zero,-284(s0)
    77b4:	ee042023          	sw	zero,-288(s0)
    77b8:	4c81                	li	s9,0
    77ba:	49c1                	li	s3,16
    77bc:	00094703          	lbu	a4,0(s2)
    77c0:	84ca                	mv	s1,s2
    77c2:	fdb70693          	addi	a3,a4,-37
    77c6:	c2b9                	beqz	a3,780c <_vfiprintf_r+0x11c>
    77c8:	c331                	beqz	a4,780c <_vfiprintf_r+0x11c>
    77ca:	8d26                	mv	s10,s1
    77cc:	0014c703          	lbu	a4,1(s1)
    77d0:	0485                	addi	s1,s1,1
    77d2:	c701                	beqz	a4,77da <_vfiprintf_r+0xea>
    77d4:	fdb70693          	addi	a3,a4,-37
    77d8:	faed                	bnez	a3,77ca <_vfiprintf_r+0xda>
    77da:	41248db3          	sub	s11,s1,s2
    77de:	03248763          	beq	s1,s2,780c <_vfiprintf_r+0x11c>
    77e2:	f1842683          	lw	a3,-232(s0)
    77e6:	f1442703          	lw	a4,-236(s0)
    77ea:	0127a023          	sw	s2,0(a5)
    77ee:	96ee                	add	a3,a3,s11
    77f0:	0705                	addi	a4,a4,1
    77f2:	01b7a223          	sw	s11,4(a5)
    77f6:	f0d42c23          	sw	a3,-232(s0)
    77fa:	f0e42a23          	sw	a4,-236(s0)
    77fe:	469d                	li	a3,7
    7800:	07a1                	addi	a5,a5,8
    7802:	18e6cd63          	blt	a3,a4,799c <_vfiprintf_r+0x2ac>
    7806:	001d4703          	lbu	a4,1(s10)
    780a:	9cee                	add	s9,s9,s11
    780c:	1a070163          	beqz	a4,79ae <_vfiprintf_r+0x2be>
    7810:	0014c683          	lbu	a3,1(s1)
    7814:	00148913          	addi	s2,s1,1
    7818:	f00405a3          	sb	zero,-245(s0)
    781c:	54fd                	li	s1,-1
    781e:	4d01                	li	s10,0
    7820:	4d81                	li	s11,0
    7822:	05a00593          	li	a1,90
    7826:	0905                	addi	s2,s2,1
    7828:	fe068713          	addi	a4,a3,-32
    782c:	02e5ec63          	bltu	a1,a4,7864 <_vfiprintf_r+0x174>
    7830:	efc42603          	lw	a2,-260(s0)
    7834:	070a                	slli	a4,a4,0x2
    7836:	9732                	add	a4,a4,a2
    7838:	4318                	lw	a4,0(a4)
    783a:	8702                	jr	a4
    783c:	fd068713          	addi	a4,a3,-48
    7840:	4d01                	li	s10,0
    7842:	4525                	li	a0,9
    7844:	002d1613          	slli	a2,s10,0x2
    7848:	00094683          	lbu	a3,0(s2)
    784c:	9d32                	add	s10,s10,a2
    784e:	0d06                	slli	s10,s10,0x1
    7850:	9d3a                	add	s10,s10,a4
    7852:	fd068713          	addi	a4,a3,-48
    7856:	0905                	addi	s2,s2,1
    7858:	fee576e3          	bgeu	a0,a4,7844 <_vfiprintf_r+0x154>
    785c:	fe068713          	addi	a4,a3,-32
    7860:	fce5f8e3          	bgeu	a1,a4,7830 <_vfiprintf_r+0x140>
    7864:	14068563          	beqz	a3,79ae <_vfiprintf_r+0x2be>
    7868:	4305                	li	t1,1
    786a:	f4d40e23          	sb	a3,-164(s0)
    786e:	f00405a3          	sb	zero,-245(s0)
    7872:	889a                	mv	a7,t1
    7874:	4481                	li	s1,0
    7876:	f5c40813          	addi	a6,s0,-164
    787a:	f1842583          	lw	a1,-232(s0)
    787e:	f1442603          	lw	a2,-236(s0)
    7882:	084dff13          	andi	t5,s11,132
    7886:	86ae                	mv	a3,a1
    7888:	8732                	mv	a4,a2
    788a:	040f1b63          	bnez	t5,78e0 <_vfiprintf_r+0x1f0>
    788e:	411d0e33          	sub	t3,s10,a7
    7892:	33c04063          	bgtz	t3,7bb2 <_vfiprintf_r+0x4c2>
    7896:	f0b44603          	lbu	a2,-245(s0)
    789a:	c639                	beqz	a2,78e8 <_vfiprintf_r+0x1f8>
    789c:	4f01                	li	t5,0
    789e:	4e81                	li	t4,0
    78a0:	f0b40613          	addi	a2,s0,-245
    78a4:	c390                	sw	a2,0(a5)
    78a6:	0685                	addi	a3,a3,1
    78a8:	4605                	li	a2,1
    78aa:	0705                	addi	a4,a4,1
    78ac:	c3d0                	sw	a2,4(a5)
    78ae:	f0d42c23          	sw	a3,-232(s0)
    78b2:	f0e42a23          	sw	a4,-236(s0)
    78b6:	461d                	li	a2,7
    78b8:	07a1                	addi	a5,a5,8
    78ba:	18e64763          	blt	a2,a4,7a48 <_vfiprintf_r+0x358>
    78be:	020e8163          	beqz	t4,78e0 <_vfiprintf_r+0x1f0>
    78c2:	f0c40613          	addi	a2,s0,-244
    78c6:	c390                	sw	a2,0(a5)
    78c8:	0689                	addi	a3,a3,2
    78ca:	4609                	li	a2,2
    78cc:	0705                	addi	a4,a4,1
    78ce:	c3d0                	sw	a2,4(a5)
    78d0:	f0d42c23          	sw	a3,-232(s0)
    78d4:	f0e42a23          	sw	a4,-236(s0)
    78d8:	461d                	li	a2,7
    78da:	07a1                	addi	a5,a5,8
    78dc:	0ee640e3          	blt	a2,a4,81bc <_vfiprintf_r+0xacc>
    78e0:	08000613          	li	a2,128
    78e4:	70cf0163          	beq	t5,a2,7fe6 <_vfiprintf_r+0x8f6>
    78e8:	406484b3          	sub	s1,s1,t1
    78ec:	7c904d63          	bgtz	s1,80c6 <_vfiprintf_r+0x9d6>
    78f0:	969a                	add	a3,a3,t1
    78f2:	0705                	addi	a4,a4,1
    78f4:	0107a023          	sw	a6,0(a5)
    78f8:	0067a223          	sw	t1,4(a5)
    78fc:	f0d42c23          	sw	a3,-232(s0)
    7900:	f0e42a23          	sw	a4,-236(s0)
    7904:	461d                	li	a2,7
    7906:	07a1                	addi	a5,a5,8
    7908:	06e64fe3          	blt	a2,a4,8186 <_vfiprintf_r+0xa96>
    790c:	004dfd93          	andi	s11,s11,4
    7910:	000d8663          	beqz	s11,791c <_vfiprintf_r+0x22c>
    7914:	411d04b3          	sub	s1,s10,a7
    7918:	16904963          	bgtz	s1,7a8a <_vfiprintf_r+0x39a>
    791c:	011d5363          	bge	s10,a7,7922 <_vfiprintf_r+0x232>
    7920:	8d46                	mv	s10,a7
    7922:	9cea                	add	s9,s9,s10
    7924:	080692e3          	bnez	a3,81a8 <_vfiprintf_r+0xab8>
    7928:	f0042a23          	sw	zero,-236(s0)
    792c:	87de                	mv	a5,s7
    792e:	b579                	j	77bc <_vfiprintf_r+0xcc>
    7930:	85d2                	mv	a1,s4
    7932:	855a                	mv	a0,s6
    7934:	886fc0ef          	jal	39ba <__swsetup_r>
    7938:	6a0519e3          	bnez	a0,87ea <_vfiprintf_r+0x10fa>
    793c:	00ca1783          	lh	a5,12(s4)
    7940:	46a9                	li	a3,10
    7942:	01a7f713          	andi	a4,a5,26
    7946:	e2d717e3          	bne	a4,a3,7774 <_vfiprintf_r+0x84>
    794a:	00ea1703          	lh	a4,14(s4)
    794e:	e20743e3          	bltz	a4,7774 <_vfiprintf_r+0x84>
    7952:	064a2703          	lw	a4,100(s4)
    7956:	8b05                	andi	a4,a4,1
    7958:	e709                	bnez	a4,7962 <_vfiprintf_r+0x272>
    795a:	2007f793          	andi	a5,a5,512
    795e:	500782e3          	beqz	a5,8662 <_vfiprintf_r+0xf72>
    7962:	12812403          	lw	s0,296(sp)
    7966:	12c12083          	lw	ra,300(sp)
    796a:	10412c83          	lw	s9,260(sp)
    796e:	86d6                	mv	a3,s5
    7970:	864a                	mv	a2,s2
    7972:	11412a83          	lw	s5,276(sp)
    7976:	12012903          	lw	s2,288(sp)
    797a:	85d2                	mv	a1,s4
    797c:	855a                	mv	a0,s6
    797e:	11812a03          	lw	s4,280(sp)
    7982:	11012b03          	lw	s6,272(sp)
    7986:	6155                	addi	sp,sp,304
    7988:	6930006f          	j	881a <__sbprintf>
    798c:	00094683          	lbu	a3,0(s2)
    7990:	bd59                	j	7826 <_vfiprintf_r+0x136>
    7992:	00094683          	lbu	a3,0(s2)
    7996:	020ded93          	ori	s11,s11,32
    799a:	b571                	j	7826 <_vfiprintf_r+0x136>
    799c:	f1040613          	addi	a2,s0,-240
    79a0:	85d2                	mv	a1,s4
    79a2:	855a                	mv	a0,s6
    79a4:	bb8fb0ef          	jal	2d5c <__sprint_r>
    79a8:	e909                	bnez	a0,79ba <_vfiprintf_r+0x2ca>
    79aa:	87de                	mv	a5,s7
    79ac:	bda9                	j	7806 <_vfiprintf_r+0x116>
    79ae:	f1842783          	lw	a5,-232(s0)
    79b2:	48079ce3          	bnez	a5,864a <_vfiprintf_r+0xf5a>
    79b6:	f0042a23          	sw	zero,-236(s0)
    79ba:	064a2703          	lw	a4,100(s4)
    79be:	00ca1783          	lh	a5,12(s4)
    79c2:	8b05                	andi	a4,a4,1
    79c4:	16070263          	beqz	a4,7b28 <_vfiprintf_r+0x438>
    79c8:	0407f793          	andi	a5,a5,64
    79cc:	12412483          	lw	s1,292(sp)
    79d0:	11c12983          	lw	s3,284(sp)
    79d4:	10c12b83          	lw	s7,268(sp)
    79d8:	10812c03          	lw	s8,264(sp)
    79dc:	10012d03          	lw	s10,256(sp)
    79e0:	5dfe                	lw	s11,252(sp)
    79e2:	e3ad                	bnez	a5,7a44 <_vfiprintf_r+0x354>
    79e4:	12c12083          	lw	ra,300(sp)
    79e8:	12812403          	lw	s0,296(sp)
    79ec:	12012903          	lw	s2,288(sp)
    79f0:	11812a03          	lw	s4,280(sp)
    79f4:	11412a83          	lw	s5,276(sp)
    79f8:	11012b03          	lw	s6,272(sp)
    79fc:	8566                	mv	a0,s9
    79fe:	10412c83          	lw	s9,260(sp)
    7a02:	6155                	addi	sp,sp,304
    7a04:	4281                	li	t0,0
    7a06:	4301                	li	t1,0
    7a08:	4581                	li	a1,0
    7a0a:	4601                	li	a2,0
    7a0c:	4681                	li	a3,0
    7a0e:	4701                	li	a4,0
    7a10:	4781                	li	a5,0
    7a12:	4801                	li	a6,0
    7a14:	4881                	li	a7,0
    7a16:	4e01                	li	t3,0
    7a18:	4e81                	li	t4,0
    7a1a:	4f01                	li	t5,0
    7a1c:	4f81                	li	t6,0
    7a1e:	8082                	ret
    7a20:	2007f693          	andi	a3,a5,512
    7a24:	2a068963          	beqz	a3,7cd6 <_vfiprintf_r+0x5e6>
    7a28:	01279693          	slli	a3,a5,0x12
    7a2c:	d006d6e3          	bgez	a3,7738 <_vfiprintf_r+0x48>
    7a30:	01271693          	slli	a3,a4,0x12
    7a34:	d206d3e3          	bgez	a3,775a <_vfiprintf_r+0x6a>
    7a38:	00ca5783          	lhu	a5,12(s4)
    7a3c:	2007f793          	andi	a5,a5,512
    7a40:	580783e3          	beqz	a5,87c6 <_vfiprintf_r+0x10d6>
    7a44:	5cfd                	li	s9,-1
    7a46:	bf79                	j	79e4 <_vfiprintf_r+0x2f4>
    7a48:	f1040613          	addi	a2,s0,-240
    7a4c:	85d2                	mv	a1,s4
    7a4e:	855a                	mv	a0,s6
    7a50:	ed042e23          	sw	a6,-292(s0)
    7a54:	efe42623          	sw	t5,-276(s0)
    7a58:	efd42823          	sw	t4,-272(s0)
    7a5c:	ef142a23          	sw	a7,-268(s0)
    7a60:	ee642c23          	sw	t1,-264(s0)
    7a64:	af8fb0ef          	jal	2d5c <__sprint_r>
    7a68:	f929                	bnez	a0,79ba <_vfiprintf_r+0x2ca>
    7a6a:	f1842683          	lw	a3,-232(s0)
    7a6e:	f1442703          	lw	a4,-236(s0)
    7a72:	edc42803          	lw	a6,-292(s0)
    7a76:	eec42f03          	lw	t5,-276(s0)
    7a7a:	ef042e83          	lw	t4,-272(s0)
    7a7e:	ef442883          	lw	a7,-268(s0)
    7a82:	ef842303          	lw	t1,-264(s0)
    7a86:	87de                	mv	a5,s7
    7a88:	bd1d                	j	78be <_vfiprintf_r+0x1ce>
    7a8a:	4dc1                	li	s11,16
    7a8c:	f1442703          	lw	a4,-236(s0)
    7a90:	6f2d                	lui	t5,0xb
    7a92:	509dd1e3          	bge	s11,s1,8794 <_vfiprintf_r+0x10a4>
    7a96:	ef242a23          	sw	s2,-268(s0)
    7a9a:	481d                	li	a6,7
    7a9c:	ef142c23          	sw	a7,-264(s0)
    7aa0:	c78f0913          	addi	s2,t5,-904 # ac78 <blanks.1>
    7aa4:	a021                	j	7aac <_vfiprintf_r+0x3bc>
    7aa6:	14c1                	addi	s1,s1,-16
    7aa8:	049dd063          	bge	s11,s1,7ae8 <_vfiprintf_r+0x3f8>
    7aac:	06c1                	addi	a3,a3,16
    7aae:	0705                	addi	a4,a4,1
    7ab0:	0127a023          	sw	s2,0(a5)
    7ab4:	01b7a223          	sw	s11,4(a5)
    7ab8:	f0d42c23          	sw	a3,-232(s0)
    7abc:	f0e42a23          	sw	a4,-236(s0)
    7ac0:	07a1                	addi	a5,a5,8
    7ac2:	fee852e3          	bge	a6,a4,7aa6 <_vfiprintf_r+0x3b6>
    7ac6:	f1040613          	addi	a2,s0,-240
    7aca:	85d2                	mv	a1,s4
    7acc:	855a                	mv	a0,s6
    7ace:	a8efb0ef          	jal	2d5c <__sprint_r>
    7ad2:	ee0514e3          	bnez	a0,79ba <_vfiprintf_r+0x2ca>
    7ad6:	14c1                	addi	s1,s1,-16
    7ad8:	f1842683          	lw	a3,-232(s0)
    7adc:	f1442703          	lw	a4,-236(s0)
    7ae0:	87de                	mv	a5,s7
    7ae2:	481d                	li	a6,7
    7ae4:	fc9dc4e3          	blt	s11,s1,7aac <_vfiprintf_r+0x3bc>
    7ae8:	8f4a                	mv	t5,s2
    7aea:	ef842883          	lw	a7,-264(s0)
    7aee:	ef442903          	lw	s2,-268(s0)
    7af2:	96a6                	add	a3,a3,s1
    7af4:	0705                	addi	a4,a4,1
    7af6:	01e7a023          	sw	t5,0(a5)
    7afa:	c3c4                	sw	s1,4(a5)
    7afc:	f0d42c23          	sw	a3,-232(s0)
    7b00:	f0e42a23          	sw	a4,-236(s0)
    7b04:	479d                	li	a5,7
    7b06:	e0e7dbe3          	bge	a5,a4,791c <_vfiprintf_r+0x22c>
    7b0a:	f1040613          	addi	a2,s0,-240
    7b0e:	85d2                	mv	a1,s4
    7b10:	855a                	mv	a0,s6
    7b12:	ef142c23          	sw	a7,-264(s0)
    7b16:	a46fb0ef          	jal	2d5c <__sprint_r>
    7b1a:	ea0510e3          	bnez	a0,79ba <_vfiprintf_r+0x2ca>
    7b1e:	f1842683          	lw	a3,-232(s0)
    7b22:	ef842883          	lw	a7,-264(s0)
    7b26:	bbdd                	j	791c <_vfiprintf_r+0x22c>
    7b28:	2007f713          	andi	a4,a5,512
    7b2c:	e8071ee3          	bnez	a4,79c8 <_vfiprintf_r+0x2d8>
    7b30:	058a2503          	lw	a0,88(s4)
    7b34:	b2cfc0ef          	jal	3e60 <__retarget_lock_release_recursive>
    7b38:	00ca1783          	lh	a5,12(s4)
    7b3c:	b571                	j	79c8 <_vfiprintf_r+0x2d8>
    7b3e:	020df713          	andi	a4,s11,32
    7b42:	1a071f63          	bnez	a4,7d00 <_vfiprintf_r+0x610>
    7b46:	010df613          	andi	a2,s11,16
    7b4a:	000aa703          	lw	a4,0(s5)
    7b4e:	004a8693          	addi	a3,s5,4
    7b52:	74061363          	bnez	a2,8298 <_vfiprintf_r+0xba8>
    7b56:	040df613          	andi	a2,s11,64
    7b5a:	26060de3          	beqz	a2,85d4 <_vfiprintf_r+0xee4>
    7b5e:	0742                	slli	a4,a4,0x10
    7b60:	8741                	srai	a4,a4,0x10
    7b62:	41f75f13          	srai	t5,a4,0x1f
    7b66:	8ab6                	mv	s5,a3
    7b68:	86fa                	mv	a3,t5
    7b6a:	1a06c563          	bltz	a3,7d14 <_vfiprintf_r+0x624>
    7b6e:	1c04c363          	bltz	s1,7d34 <_vfiprintf_r+0x644>
    7b72:	f7fdfd93          	andi	s11,s11,-129
    7b76:	1a049f63          	bnez	s1,7d34 <_vfiprintf_r+0x644>
    7b7a:	01e766b3          	or	a3,a4,t5
    7b7e:	1a069b63          	bnez	a3,7d34 <_vfiprintf_r+0x644>
    7b82:	f0b44703          	lbu	a4,-245(s0)
    7b86:	4301                	li	t1,0
    7b88:	4481                	li	s1,0
    7b8a:	fc040813          	addi	a6,s0,-64
    7b8e:	2c070563          	beqz	a4,7e58 <_vfiprintf_r+0x768>
    7b92:	4885                	li	a7,1
    7b94:	f1842683          	lw	a3,-232(s0)
    7b98:	f1442703          	lw	a4,-236(s0)
    7b9c:	084dff13          	andi	t5,s11,132
    7ba0:	85b6                	mv	a1,a3
    7ba2:	863a                	mv	a2,a4
    7ba4:	4e81                	li	t4,0
    7ba6:	ce0f1de3          	bnez	t5,78a0 <_vfiprintf_r+0x1b0>
    7baa:	411d0e33          	sub	t3,s10,a7
    7bae:	cfc054e3          	blez	t3,7896 <_vfiprintf_r+0x1a6>
    7bb2:	4e81                	li	t4,0
    7bb4:	4fc1                	li	t6,16
    7bb6:	86ae                	mv	a3,a1
    7bb8:	8732                	mv	a4,a2
    7bba:	6f2d                	lui	t5,0xb
    7bbc:	3dcfd8e3          	bge	t6,t3,878c <_vfiprintf_r+0x109c>
    7bc0:	ec942e23          	sw	s1,-292(s0)
    7bc4:	ed242c23          	sw	s2,-296(s0)
    7bc8:	429d                	li	t0,7
    7bca:	ee642c23          	sw	t1,-264(s0)
    7bce:	ef142a23          	sw	a7,-268(s0)
    7bd2:	efd42823          	sw	t4,-272(s0)
    7bd6:	ef042623          	sw	a6,-276(s0)
    7bda:	84f2                	mv	s1,t3
    7bdc:	c78f0913          	addi	s2,t5,-904 # ac78 <blanks.1>
    7be0:	a021                	j	7be8 <_vfiprintf_r+0x4f8>
    7be2:	14c1                	addi	s1,s1,-16
    7be4:	049fd163          	bge	t6,s1,7c26 <_vfiprintf_r+0x536>
    7be8:	06c1                	addi	a3,a3,16
    7bea:	0705                	addi	a4,a4,1
    7bec:	0127a023          	sw	s2,0(a5)
    7bf0:	01f7a223          	sw	t6,4(a5)
    7bf4:	f0d42c23          	sw	a3,-232(s0)
    7bf8:	f0e42a23          	sw	a4,-236(s0)
    7bfc:	07a1                	addi	a5,a5,8
    7bfe:	fee2d2e3          	bge	t0,a4,7be2 <_vfiprintf_r+0x4f2>
    7c02:	f1040613          	addi	a2,s0,-240
    7c06:	85d2                	mv	a1,s4
    7c08:	855a                	mv	a0,s6
    7c0a:	952fb0ef          	jal	2d5c <__sprint_r>
    7c0e:	da0516e3          	bnez	a0,79ba <_vfiprintf_r+0x2ca>
    7c12:	4fc1                	li	t6,16
    7c14:	14c1                	addi	s1,s1,-16
    7c16:	f1842683          	lw	a3,-232(s0)
    7c1a:	f1442703          	lw	a4,-236(s0)
    7c1e:	87de                	mv	a5,s7
    7c20:	429d                	li	t0,7
    7c22:	fc9fc3e3          	blt	t6,s1,7be8 <_vfiprintf_r+0x4f8>
    7c26:	8e26                	mv	t3,s1
    7c28:	8f4a                	mv	t5,s2
    7c2a:	ef842303          	lw	t1,-264(s0)
    7c2e:	ef442883          	lw	a7,-268(s0)
    7c32:	ef042e83          	lw	t4,-272(s0)
    7c36:	eec42803          	lw	a6,-276(s0)
    7c3a:	edc42483          	lw	s1,-292(s0)
    7c3e:	ed842903          	lw	s2,-296(s0)
    7c42:	96f2                	add	a3,a3,t3
    7c44:	0705                	addi	a4,a4,1
    7c46:	f0d42c23          	sw	a3,-232(s0)
    7c4a:	f0e42a23          	sw	a4,-236(s0)
    7c4e:	01e7a023          	sw	t5,0(a5)
    7c52:	01c7a223          	sw	t3,4(a5)
    7c56:	461d                	li	a2,7
    7c58:	0ae642e3          	blt	a2,a4,84fc <_vfiprintf_r+0xe0c>
    7c5c:	f0b44603          	lbu	a2,-245(s0)
    7c60:	07a1                	addi	a5,a5,8
    7c62:	5e061f63          	bnez	a2,8260 <_vfiprintf_r+0xb70>
    7c66:	c80e81e3          	beqz	t4,78e8 <_vfiprintf_r+0x1f8>
    7c6a:	4f01                	li	t5,0
    7c6c:	b999                	j	78c2 <_vfiprintf_r+0x1d2>
    7c6e:	000aa803          	lw	a6,0(s5)
    7c72:	f00405a3          	sb	zero,-245(s0)
    7c76:	0a91                	addi	s5,s5,4
    7c78:	140803e3          	beqz	a6,85be <_vfiprintf_r+0xece>
    7c7c:	eef42a23          	sw	a5,-268(s0)
    7c80:	7204c163          	bltz	s1,83a2 <_vfiprintf_r+0xcb2>
    7c84:	8542                	mv	a0,a6
    7c86:	8626                	mv	a2,s1
    7c88:	4581                	li	a1,0
    7c8a:	ef042c23          	sw	a6,-264(s0)
    7c8e:	e45fb0ef          	jal	3ad2 <memchr>
    7c92:	f0b44703          	lbu	a4,-245(s0)
    7c96:	ef842803          	lw	a6,-264(s0)
    7c9a:	ef442783          	lw	a5,-268(s0)
    7c9e:	2e0500e3          	beqz	a0,877e <_vfiprintf_r+0x108e>
    7ca2:	41050333          	sub	t1,a0,a6
    7ca6:	fff34893          	not	a7,t1
    7caa:	41f8d893          	srai	a7,a7,0x1f
    7cae:	011378b3          	and	a7,t1,a7
    7cb2:	70070c63          	beqz	a4,83ca <_vfiprintf_r+0xcda>
    7cb6:	0885                	addi	a7,a7,1
    7cb8:	4481                	li	s1,0
    7cba:	bde9                	j	7b94 <_vfiprintf_r+0x4a4>
    7cbc:	000aa703          	lw	a4,0(s5)
    7cc0:	4305                	li	t1,1
    7cc2:	f00405a3          	sb	zero,-245(s0)
    7cc6:	f4e40e23          	sb	a4,-164(s0)
    7cca:	0a91                	addi	s5,s5,4
    7ccc:	889a                	mv	a7,t1
    7cce:	4481                	li	s1,0
    7cd0:	f5c40813          	addi	a6,s0,-164
    7cd4:	b65d                	j	787a <_vfiprintf_r+0x18a>
    7cd6:	058a2503          	lw	a0,88(s4)
    7cda:	942fc0ef          	jal	3e1c <__retarget_lock_acquire_recursive>
    7cde:	00ca1783          	lh	a5,12(s4)
    7ce2:	064a2703          	lw	a4,100(s4)
    7ce6:	01279693          	slli	a3,a5,0x12
    7cea:	a606c0e3          	bltz	a3,774a <_vfiprintf_r+0x5a>
    7cee:	b4a9                	j	7738 <_vfiprintf_r+0x48>
    7cf0:	020df713          	andi	a4,s11,32
    7cf4:	004a8693          	addi	a3,s5,4
    7cf8:	010ded93          	ori	s11,s11,16
    7cfc:	58070e63          	beqz	a4,8298 <_vfiprintf_r+0xba8>
    7d00:	007a8713          	addi	a4,s5,7
    7d04:	9b61                	andi	a4,a4,-8
    7d06:	4354                	lw	a3,4(a4)
    7d08:	00870a93          	addi	s5,a4,8
    7d0c:	4318                	lw	a4,0(a4)
    7d0e:	8f36                	mv	t5,a3
    7d10:	e406dfe3          	bgez	a3,7b6e <_vfiprintf_r+0x47e>
    7d14:	00e036b3          	snez	a3,a4
    7d18:	41e00f33          	neg	t5,t5
    7d1c:	40df0f33          	sub	t5,t5,a3
    7d20:	02d00693          	li	a3,45
    7d24:	f0d405a3          	sb	a3,-245(s0)
    7d28:	40e00733          	neg	a4,a4
    7d2c:	0004c463          	bltz	s1,7d34 <_vfiprintf_r+0x644>
    7d30:	f7fdfd93          	andi	s11,s11,-129
    7d34:	6a0f1c63          	bnez	t5,83ec <_vfiprintf_r+0xcfc>
    7d38:	46a5                	li	a3,9
    7d3a:	6ae6e963          	bltu	a3,a4,83ec <_vfiprintf_r+0xcfc>
    7d3e:	03070713          	addi	a4,a4,48
    7d42:	fae40fa3          	sb	a4,-65(s0)
    7d46:	88a6                	mv	a7,s1
    7d48:	58905163          	blez	s1,82ca <_vfiprintf_r+0xbda>
    7d4c:	f0b44703          	lbu	a4,-245(s0)
    7d50:	4e071c63          	bnez	a4,8248 <_vfiprintf_r+0xb58>
    7d54:	4305                	li	t1,1
    7d56:	fbf40813          	addi	a6,s0,-65
    7d5a:	b605                	j	787a <_vfiprintf_r+0x18a>
    7d5c:	000aad03          	lw	s10,0(s5)
    7d60:	4c0d5f63          	bgez	s10,823e <_vfiprintf_r+0xb4e>
    7d64:	41a00d33          	neg	s10,s10
    7d68:	0a91                	addi	s5,s5,4
    7d6a:	00094683          	lbu	a3,0(s2)
    7d6e:	004ded93          	ori	s11,s11,4
    7d72:	bc55                	j	7826 <_vfiprintf_r+0x136>
    7d74:	02b00713          	li	a4,43
    7d78:	00094683          	lbu	a3,0(s2)
    7d7c:	f0e405a3          	sb	a4,-245(s0)
    7d80:	b45d                	j	7826 <_vfiprintf_r+0x136>
    7d82:	020df713          	andi	a4,s11,32
    7d86:	010de893          	ori	a7,s11,16
    7d8a:	004a8693          	addi	a3,s5,4
    7d8e:	50070d63          	beqz	a4,82a8 <_vfiprintf_r+0xbb8>
    7d92:	007a8693          	addi	a3,s5,7
    7d96:	9ae1                	andi	a3,a3,-8
    7d98:	4298                	lw	a4,0(a3)
    7d9a:	42d0                	lw	a2,4(a3)
    7d9c:	00868a93          	addi	s5,a3,8
    7da0:	f00405a3          	sb	zero,-245(s0)
    7da4:	bff8fd93          	andi	s11,a7,-1025
    7da8:	4404c963          	bltz	s1,81fa <_vfiprintf_r+0xb0a>
    7dac:	b7f8fd93          	andi	s11,a7,-1153
    7db0:	44049563          	bnez	s1,81fa <_vfiprintf_r+0xb0a>
    7db4:	00c766b3          	or	a3,a4,a2
    7db8:	44069163          	bnez	a3,81fa <_vfiprintf_r+0xb0a>
    7dbc:	0018f893          	andi	a7,a7,1
    7dc0:	54088f63          	beqz	a7,831e <_vfiprintf_r+0xc2e>
    7dc4:	03000713          	li	a4,48
    7dc8:	fae40fa3          	sb	a4,-65(s0)
    7dcc:	8346                	mv	t1,a7
    7dce:	fbf40813          	addi	a6,s0,-65
    7dd2:	b465                	j	787a <_vfiprintf_r+0x18a>
    7dd4:	020df713          	andi	a4,s11,32
    7dd8:	eb29                	bnez	a4,7e2a <_vfiprintf_r+0x73a>
    7dda:	010df893          	andi	a7,s11,16
    7dde:	000aa703          	lw	a4,0(s5)
    7de2:	004a8693          	addi	a3,s5,4
    7de6:	4a089063          	bnez	a7,8286 <_vfiprintf_r+0xb96>
    7dea:	040df613          	andi	a2,s11,64
    7dee:	5e060163          	beqz	a2,83d0 <_vfiprintf_r+0xce0>
    7df2:	0742                	slli	a4,a4,0x10
    7df4:	f00405a3          	sb	zero,-245(s0)
    7df8:	8341                	srli	a4,a4,0x10
    7dfa:	4f01                	li	t5,0
    7dfc:	5e04c563          	bltz	s1,83e6 <_vfiprintf_r+0xcf6>
    7e00:	f7fdfd93          	andi	s11,s11,-129
    7e04:	5e049163          	bnez	s1,83e6 <_vfiprintf_r+0xcf6>
    7e08:	01e76633          	or	a2,a4,t5
    7e0c:	5c061d63          	bnez	a2,83e6 <_vfiprintf_r+0xcf6>
    7e10:	8ab6                	mv	s5,a3
    7e12:	4301                	li	t1,0
    7e14:	fc040813          	addi	a6,s0,-64
    7e18:	b48d                	j	787a <_vfiprintf_r+0x18a>
    7e1a:	020df713          	andi	a4,s11,32
    7e1e:	004a8693          	addi	a3,s5,4
    7e22:	010ded93          	ori	s11,s11,16
    7e26:	46070063          	beqz	a4,8286 <_vfiprintf_r+0xb96>
    7e2a:	007a8693          	addi	a3,s5,7
    7e2e:	9ae1                	andi	a3,a3,-8
    7e30:	f00405a3          	sb	zero,-245(s0)
    7e34:	4298                	lw	a4,0(a3)
    7e36:	0046af03          	lw	t5,4(a3)
    7e3a:	00868a93          	addi	s5,a3,8
    7e3e:	ee04cbe3          	bltz	s1,7d34 <_vfiprintf_r+0x644>
    7e42:	01e766b3          	or	a3,a4,t5
    7e46:	f7fdfd93          	andi	s11,s11,-129
    7e4a:	ee0695e3          	bnez	a3,7d34 <_vfiprintf_r+0x644>
    7e4e:	ee0493e3          	bnez	s1,7d34 <_vfiprintf_r+0x644>
    7e52:	4301                	li	t1,0
    7e54:	fc040813          	addi	a6,s0,-64
    7e58:	4881                	li	a7,0
    7e5a:	b405                	j	787a <_vfiprintf_r+0x18a>
    7e5c:	6721                	lui	a4,0x8
    7e5e:	83070713          	addi	a4,a4,-2000 # 7830 <_vfiprintf_r+0x140>
    7e62:	f0e41623          	sh	a4,-244(s0)
    7e66:	f00405a3          	sb	zero,-245(s0)
    7e6a:	000aa703          	lw	a4,0(s5)
    7e6e:	004a8693          	addi	a3,s5,4
    7e72:	4601                	li	a2,0
    7e74:	4604c163          	bltz	s1,82d6 <_vfiprintf_r+0xbe6>
    7e78:	f7fdfd93          	andi	s11,s11,-129
    7e7c:	002ded93          	ori	s11,s11,2
    7e80:	14049fe3          	bnez	s1,87de <_vfiprintf_r+0x10ee>
    7e84:	14071de3          	bnez	a4,87de <_vfiprintf_r+0x10ee>
    7e88:	8ab6                	mv	s5,a3
    7e8a:	4301                	li	t1,0
    7e8c:	4881                	li	a7,0
    7e8e:	fc040813          	addi	a6,s0,-64
    7e92:	f1842583          	lw	a1,-232(s0)
    7e96:	f1442603          	lw	a2,-236(s0)
    7e9a:	084dff13          	andi	t5,s11,132
    7e9e:	0889                	addi	a7,a7,2
    7ea0:	86ae                	mv	a3,a1
    7ea2:	8732                	mv	a4,a2
    7ea4:	a00f1fe3          	bnez	t5,78c2 <_vfiprintf_r+0x1d2>
    7ea8:	411d0e33          	sub	t3,s10,a7
    7eac:	a1c05be3          	blez	t3,78c2 <_vfiprintf_r+0x1d2>
    7eb0:	4e89                	li	t4,2
    7eb2:	b309                	j	7bb4 <_vfiprintf_r+0x4c4>
    7eb4:	020df713          	andi	a4,s11,32
    7eb8:	3e071d63          	bnez	a4,82b2 <_vfiprintf_r+0xbc2>
    7ebc:	010df613          	andi	a2,s11,16
    7ec0:	000aa703          	lw	a4,0(s5)
    7ec4:	004a8693          	addi	a3,s5,4
    7ec8:	3c061f63          	bnez	a2,82a6 <_vfiprintf_r+0xbb6>
    7ecc:	040df613          	andi	a2,s11,64
    7ed0:	70060d63          	beqz	a2,85ea <_vfiprintf_r+0xefa>
    7ed4:	0742                	slli	a4,a4,0x10
    7ed6:	8341                	srli	a4,a4,0x10
    7ed8:	8ab6                	mv	s5,a3
    7eda:	88ee                	mv	a7,s11
    7edc:	4601                	li	a2,0
    7ede:	b5c9                	j	7da0 <_vfiprintf_r+0x6b0>
    7ee0:	020df713          	andi	a4,s11,32
    7ee4:	004a8693          	addi	a3,s5,4
    7ee8:	3c071763          	bnez	a4,82b6 <_vfiprintf_r+0xbc6>
    7eec:	010df713          	andi	a4,s11,16
    7ef0:	6c071063          	bnez	a4,85b0 <_vfiprintf_r+0xec0>
    7ef4:	040df713          	andi	a4,s11,64
    7ef8:	70071e63          	bnez	a4,8614 <_vfiprintf_r+0xf24>
    7efc:	200dfd93          	andi	s11,s11,512
    7f00:	6a0d8863          	beqz	s11,85b0 <_vfiprintf_r+0xec0>
    7f04:	000aa703          	lw	a4,0(s5)
    7f08:	8ab6                	mv	s5,a3
    7f0a:	01970023          	sb	s9,0(a4)
    7f0e:	b07d                	j	77bc <_vfiprintf_r+0xcc>
    7f10:	00094683          	lbu	a3,0(s2)
    7f14:	06c00713          	li	a4,108
    7f18:	66e68e63          	beq	a3,a4,8594 <_vfiprintf_r+0xea4>
    7f1c:	010ded93          	ori	s11,s11,16
    7f20:	b219                	j	7826 <_vfiprintf_r+0x136>
    7f22:	00094683          	lbu	a3,0(s2)
    7f26:	06800713          	li	a4,104
    7f2a:	66e68c63          	beq	a3,a4,85a2 <_vfiprintf_r+0xeb2>
    7f2e:	040ded93          	ori	s11,s11,64
    7f32:	b8d5                	j	7826 <_vfiprintf_r+0x136>
    7f34:	855a                	mv	a0,s6
    7f36:	eef42c23          	sw	a5,-264(s0)
    7f3a:	d09fb0ef          	jal	3c42 <_localeconv_r>
    7f3e:	415c                	lw	a5,4(a0)
    7f40:	853e                	mv	a0,a5
    7f42:	eef42023          	sw	a5,-288(s0)
    7f46:	8e2fc0ef          	jal	4028 <strlen>
    7f4a:	eea42223          	sw	a0,-284(s0)
    7f4e:	855a                	mv	a0,s6
    7f50:	cf3fb0ef          	jal	3c42 <_localeconv_r>
    7f54:	4510                	lw	a2,8(a0)
    7f56:	ee442703          	lw	a4,-284(s0)
    7f5a:	00094683          	lbu	a3,0(s2)
    7f5e:	eec42423          	sw	a2,-280(s0)
    7f62:	ef842783          	lw	a5,-264(s0)
    7f66:	05a00593          	li	a1,90
    7f6a:	8a070ee3          	beqz	a4,7826 <_vfiprintf_r+0x136>
    7f6e:	8a060ce3          	beqz	a2,7826 <_vfiprintf_r+0x136>
    7f72:	00064703          	lbu	a4,0(a2) # 2000 <__stack_size+0x1800>
    7f76:	8a0708e3          	beqz	a4,7826 <_vfiprintf_r+0x136>
    7f7a:	400ded93          	ori	s11,s11,1024
    7f7e:	b065                	j	7826 <_vfiprintf_r+0x136>
    7f80:	00094683          	lbu	a3,0(s2)
    7f84:	080ded93          	ori	s11,s11,128
    7f88:	b879                	j	7826 <_vfiprintf_r+0x136>
    7f8a:	00094683          	lbu	a3,0(s2)
    7f8e:	02a00713          	li	a4,42
    7f92:	00190513          	addi	a0,s2,1
    7f96:	00e68be3          	beq	a3,a4,87ac <_vfiprintf_r+0x10bc>
    7f9a:	fd068713          	addi	a4,a3,-48
    7f9e:	4825                	li	a6,9
    7fa0:	4481                	li	s1,0
    7fa2:	02e86063          	bltu	a6,a4,7fc2 <_vfiprintf_r+0x8d2>
    7fa6:	00249613          	slli	a2,s1,0x2
    7faa:	00054683          	lbu	a3,0(a0)
    7fae:	94b2                	add	s1,s1,a2
    7fb0:	0486                	slli	s1,s1,0x1
    7fb2:	94ba                	add	s1,s1,a4
    7fb4:	fd068713          	addi	a4,a3,-48
    7fb8:	0505                	addi	a0,a0,1
    7fba:	fee876e3          	bgeu	a6,a4,7fa6 <_vfiprintf_r+0x8b6>
    7fbe:	3604c663          	bltz	s1,832a <_vfiprintf_r+0xc3a>
    7fc2:	892a                	mv	s2,a0
    7fc4:	b095                	j	7828 <_vfiprintf_r+0x138>
    7fc6:	00094683          	lbu	a3,0(s2)
    7fca:	001ded93          	ori	s11,s11,1
    7fce:	b8a1                	j	7826 <_vfiprintf_r+0x136>
    7fd0:	f0b44703          	lbu	a4,-245(s0)
    7fd4:	00094683          	lbu	a3,0(s2)
    7fd8:	840717e3          	bnez	a4,7826 <_vfiprintf_r+0x136>
    7fdc:	02000713          	li	a4,32
    7fe0:	f0e405a3          	sb	a4,-245(s0)
    7fe4:	b089                	j	7826 <_vfiprintf_r+0x136>
    7fe6:	411d0e33          	sub	t3,s10,a7
    7fea:	8fc05fe3          	blez	t3,78e8 <_vfiprintf_r+0x1f8>
    7fee:	4ec1                	li	t4,16
    7ff0:	6f2d                	lui	t5,0xb
    7ff2:	7bced563          	bge	t4,t3,879c <_vfiprintf_r+0x10ac>
    7ff6:	ee942623          	sw	s1,-276(s0)
    7ffa:	ed242e23          	sw	s2,-292(s0)
    7ffe:	4f9d                	li	t6,7
    8000:	ee642c23          	sw	t1,-264(s0)
    8004:	ef142a23          	sw	a7,-268(s0)
    8008:	ef042823          	sw	a6,-272(s0)
    800c:	84f2                	mv	s1,t3
    800e:	c88f0913          	addi	s2,t5,-888 # ac88 <zeroes.0>
    8012:	a021                	j	801a <_vfiprintf_r+0x92a>
    8014:	14c1                	addi	s1,s1,-16
    8016:	049ed163          	bge	t4,s1,8058 <_vfiprintf_r+0x968>
    801a:	06c1                	addi	a3,a3,16
    801c:	0705                	addi	a4,a4,1
    801e:	0127a023          	sw	s2,0(a5)
    8022:	01d7a223          	sw	t4,4(a5)
    8026:	f0d42c23          	sw	a3,-232(s0)
    802a:	f0e42a23          	sw	a4,-236(s0)
    802e:	07a1                	addi	a5,a5,8
    8030:	feefd2e3          	bge	t6,a4,8014 <_vfiprintf_r+0x924>
    8034:	f1040613          	addi	a2,s0,-240
    8038:	85d2                	mv	a1,s4
    803a:	855a                	mv	a0,s6
    803c:	d21fa0ef          	jal	2d5c <__sprint_r>
    8040:	96051de3          	bnez	a0,79ba <_vfiprintf_r+0x2ca>
    8044:	4ec1                	li	t4,16
    8046:	14c1                	addi	s1,s1,-16
    8048:	f1842683          	lw	a3,-232(s0)
    804c:	f1442703          	lw	a4,-236(s0)
    8050:	87de                	mv	a5,s7
    8052:	4f9d                	li	t6,7
    8054:	fc9ec3e3          	blt	t4,s1,801a <_vfiprintf_r+0x92a>
    8058:	8e26                	mv	t3,s1
    805a:	8f4a                	mv	t5,s2
    805c:	ef842303          	lw	t1,-264(s0)
    8060:	ef442883          	lw	a7,-268(s0)
    8064:	ef042803          	lw	a6,-272(s0)
    8068:	eec42483          	lw	s1,-276(s0)
    806c:	edc42903          	lw	s2,-292(s0)
    8070:	96f2                	add	a3,a3,t3
    8072:	0705                	addi	a4,a4,1
    8074:	01e7a023          	sw	t5,0(a5)
    8078:	01c7a223          	sw	t3,4(a5)
    807c:	f0d42c23          	sw	a3,-232(s0)
    8080:	f0e42a23          	sw	a4,-236(s0)
    8084:	461d                	li	a2,7
    8086:	07a1                	addi	a5,a5,8
    8088:	86e650e3          	bge	a2,a4,78e8 <_vfiprintf_r+0x1f8>
    808c:	f1040613          	addi	a2,s0,-240
    8090:	85d2                	mv	a1,s4
    8092:	855a                	mv	a0,s6
    8094:	ef042823          	sw	a6,-272(s0)
    8098:	ef142a23          	sw	a7,-268(s0)
    809c:	ee642c23          	sw	t1,-264(s0)
    80a0:	cbdfa0ef          	jal	2d5c <__sprint_r>
    80a4:	90051be3          	bnez	a0,79ba <_vfiprintf_r+0x2ca>
    80a8:	ef842303          	lw	t1,-264(s0)
    80ac:	f1842683          	lw	a3,-232(s0)
    80b0:	f1442703          	lw	a4,-236(s0)
    80b4:	406484b3          	sub	s1,s1,t1
    80b8:	ef042803          	lw	a6,-272(s0)
    80bc:	ef442883          	lw	a7,-268(s0)
    80c0:	87de                	mv	a5,s7
    80c2:	829057e3          	blez	s1,78f0 <_vfiprintf_r+0x200>
    80c6:	6f2d                	lui	t5,0xb
    80c8:	c88f0f13          	addi	t5,t5,-888 # ac88 <zeroes.0>
    80cc:	0699d563          	bge	s3,s1,8136 <_vfiprintf_r+0xa46>
    80d0:	4e1d                	li	t3,7
    80d2:	ee642c23          	sw	t1,-264(s0)
    80d6:	ef142a23          	sw	a7,-268(s0)
    80da:	ef042823          	sw	a6,-272(s0)
    80de:	ef842623          	sw	s8,-276(s0)
    80e2:	a021                	j	80ea <_vfiprintf_r+0x9fa>
    80e4:	14c1                	addi	s1,s1,-16
    80e6:	0499d063          	bge	s3,s1,8126 <_vfiprintf_r+0xa36>
    80ea:	06c1                	addi	a3,a3,16
    80ec:	0705                	addi	a4,a4,1
    80ee:	0187a023          	sw	s8,0(a5)
    80f2:	0137a223          	sw	s3,4(a5)
    80f6:	f0d42c23          	sw	a3,-232(s0)
    80fa:	f0e42a23          	sw	a4,-236(s0)
    80fe:	07a1                	addi	a5,a5,8
    8100:	feee52e3          	bge	t3,a4,80e4 <_vfiprintf_r+0x9f4>
    8104:	f1040613          	addi	a2,s0,-240
    8108:	85d2                	mv	a1,s4
    810a:	855a                	mv	a0,s6
    810c:	c51fa0ef          	jal	2d5c <__sprint_r>
    8110:	8a0515e3          	bnez	a0,79ba <_vfiprintf_r+0x2ca>
    8114:	14c1                	addi	s1,s1,-16
    8116:	f1842683          	lw	a3,-232(s0)
    811a:	f1442703          	lw	a4,-236(s0)
    811e:	87de                	mv	a5,s7
    8120:	4e1d                	li	t3,7
    8122:	fc99c4e3          	blt	s3,s1,80ea <_vfiprintf_r+0x9fa>
    8126:	ef842303          	lw	t1,-264(s0)
    812a:	ef442883          	lw	a7,-268(s0)
    812e:	ef042803          	lw	a6,-272(s0)
    8132:	eec42f03          	lw	t5,-276(s0)
    8136:	96a6                	add	a3,a3,s1
    8138:	0705                	addi	a4,a4,1
    813a:	01e7a023          	sw	t5,0(a5)
    813e:	c3c4                	sw	s1,4(a5)
    8140:	f0d42c23          	sw	a3,-232(s0)
    8144:	f0e42a23          	sw	a4,-236(s0)
    8148:	461d                	li	a2,7
    814a:	07a1                	addi	a5,a5,8
    814c:	fae65263          	bge	a2,a4,78f0 <_vfiprintf_r+0x200>
    8150:	f1040613          	addi	a2,s0,-240
    8154:	85d2                	mv	a1,s4
    8156:	855a                	mv	a0,s6
    8158:	ef042823          	sw	a6,-272(s0)
    815c:	ef142a23          	sw	a7,-268(s0)
    8160:	ee642c23          	sw	t1,-264(s0)
    8164:	bf9fa0ef          	jal	2d5c <__sprint_r>
    8168:	840519e3          	bnez	a0,79ba <_vfiprintf_r+0x2ca>
    816c:	f1842683          	lw	a3,-232(s0)
    8170:	f1442703          	lw	a4,-236(s0)
    8174:	ef042803          	lw	a6,-272(s0)
    8178:	ef442883          	lw	a7,-268(s0)
    817c:	ef842303          	lw	t1,-264(s0)
    8180:	87de                	mv	a5,s7
    8182:	f6eff06f          	j	78f0 <_vfiprintf_r+0x200>
    8186:	f1040613          	addi	a2,s0,-240
    818a:	85d2                	mv	a1,s4
    818c:	855a                	mv	a0,s6
    818e:	ef142c23          	sw	a7,-264(s0)
    8192:	bcbfa0ef          	jal	2d5c <__sprint_r>
    8196:	820512e3          	bnez	a0,79ba <_vfiprintf_r+0x2ca>
    819a:	f1842683          	lw	a3,-232(s0)
    819e:	ef842883          	lw	a7,-264(s0)
    81a2:	87de                	mv	a5,s7
    81a4:	f68ff06f          	j	790c <_vfiprintf_r+0x21c>
    81a8:	f1040613          	addi	a2,s0,-240
    81ac:	85d2                	mv	a1,s4
    81ae:	855a                	mv	a0,s6
    81b0:	badfa0ef          	jal	2d5c <__sprint_r>
    81b4:	f6050a63          	beqz	a0,7928 <_vfiprintf_r+0x238>
    81b8:	803ff06f          	j	79ba <_vfiprintf_r+0x2ca>
    81bc:	f1040613          	addi	a2,s0,-240
    81c0:	85d2                	mv	a1,s4
    81c2:	855a                	mv	a0,s6
    81c4:	ef042623          	sw	a6,-276(s0)
    81c8:	efe42823          	sw	t5,-272(s0)
    81cc:	ef142a23          	sw	a7,-268(s0)
    81d0:	ee642c23          	sw	t1,-264(s0)
    81d4:	b89fa0ef          	jal	2d5c <__sprint_r>
    81d8:	fe051163          	bnez	a0,79ba <_vfiprintf_r+0x2ca>
    81dc:	f1842683          	lw	a3,-232(s0)
    81e0:	f1442703          	lw	a4,-236(s0)
    81e4:	eec42803          	lw	a6,-276(s0)
    81e8:	ef042f03          	lw	t5,-272(s0)
    81ec:	ef442883          	lw	a7,-268(s0)
    81f0:	ef842303          	lw	t1,-264(s0)
    81f4:	87de                	mv	a5,s7
    81f6:	eeaff06f          	j	78e0 <_vfiprintf_r+0x1f0>
    81fa:	fc040813          	addi	a6,s0,-64
    81fe:	01d61593          	slli	a1,a2,0x1d
    8202:	00777693          	andi	a3,a4,7
    8206:	830d                	srli	a4,a4,0x3
    8208:	8542                	mv	a0,a6
    820a:	972e                	add	a4,a4,a1
    820c:	03068693          	addi	a3,a3,48
    8210:	820d                	srli	a2,a2,0x3
    8212:	00c765b3          	or	a1,a4,a2
    8216:	fed80fa3          	sb	a3,-1(a6)
    821a:	187d                	addi	a6,a6,-1
    821c:	f1ed                	bnez	a1,81fe <_vfiprintf_r+0xb0e>
    821e:	fd068693          	addi	a3,a3,-48
    8222:	c681                	beqz	a3,822a <_vfiprintf_r+0xb3a>
    8224:	001df713          	andi	a4,s11,1
    8228:	ef1d                	bnez	a4,8266 <_vfiprintf_r+0xb76>
    822a:	fc040713          	addi	a4,s0,-64
    822e:	41070333          	sub	t1,a4,a6
    8232:	88a6                	mv	a7,s1
    8234:	e464d363          	bge	s1,t1,787a <_vfiprintf_r+0x18a>
    8238:	889a                	mv	a7,t1
    823a:	e40ff06f          	j	787a <_vfiprintf_r+0x18a>
    823e:	00094683          	lbu	a3,0(s2)
    8242:	0a91                	addi	s5,s5,4
    8244:	de2ff06f          	j	7826 <_vfiprintf_r+0x136>
    8248:	0885                	addi	a7,a7,1
    824a:	4305                	li	t1,1
    824c:	fbf40813          	addi	a6,s0,-65
    8250:	b291                	j	7b94 <_vfiprintf_r+0x4a4>
    8252:	01271693          	slli	a3,a4,0x12
    8256:	d006d263          	bgez	a3,775a <_vfiprintf_r+0x6a>
    825a:	5cfd                	li	s9,-1
    825c:	f88ff06f          	j	79e4 <_vfiprintf_r+0x2f4>
    8260:	4f01                	li	t5,0
    8262:	e3eff06f          	j	78a0 <_vfiprintf_r+0x1b0>
    8266:	1579                	addi	a0,a0,-2
    8268:	03000713          	li	a4,48
    826c:	fc040693          	addi	a3,s0,-64
    8270:	40a68333          	sub	t1,a3,a0
    8274:	fee80fa3          	sb	a4,-1(a6)
    8278:	88a6                	mv	a7,s1
    827a:	0064d363          	bge	s1,t1,8280 <_vfiprintf_r+0xb90>
    827e:	889a                	mv	a7,t1
    8280:	882a                	mv	a6,a0
    8282:	df8ff06f          	j	787a <_vfiprintf_r+0x18a>
    8286:	f00405a3          	sb	zero,-245(s0)
    828a:	000aa703          	lw	a4,0(s5)
    828e:	4f01                	li	t5,0
    8290:	8ab6                	mv	s5,a3
    8292:	ba04d8e3          	bgez	s1,7e42 <_vfiprintf_r+0x752>
    8296:	b44d                	j	7d38 <_vfiprintf_r+0x648>
    8298:	000aa703          	lw	a4,0(s5)
    829c:	8ab6                	mv	s5,a3
    829e:	41f75f13          	srai	t5,a4,0x1f
    82a2:	86fa                	mv	a3,t5
    82a4:	b0d9                	j	7b6a <_vfiprintf_r+0x47a>
    82a6:	88ee                	mv	a7,s11
    82a8:	000aa703          	lw	a4,0(s5)
    82ac:	4601                	li	a2,0
    82ae:	8ab6                	mv	s5,a3
    82b0:	bcc5                	j	7da0 <_vfiprintf_r+0x6b0>
    82b2:	88ee                	mv	a7,s11
    82b4:	bcf9                	j	7d92 <_vfiprintf_r+0x6a2>
    82b6:	000aa703          	lw	a4,0(s5)
    82ba:	41fcd613          	srai	a2,s9,0x1f
    82be:	8ab6                	mv	s5,a3
    82c0:	01972023          	sw	s9,0(a4)
    82c4:	c350                	sw	a2,4(a4)
    82c6:	cf6ff06f          	j	77bc <_vfiprintf_r+0xcc>
    82ca:	f0b44703          	lbu	a4,-245(s0)
    82ce:	4885                	li	a7,1
    82d0:	a80702e3          	beqz	a4,7d54 <_vfiprintf_r+0x664>
    82d4:	bf95                	j	8248 <_vfiprintf_r+0xb58>
    82d6:	652d                	lui	a0,0xb
    82d8:	002ded93          	ori	s11,s11,2
    82dc:	8ab6                	mv	s5,a3
    82de:	d0050513          	addi	a0,a0,-768 # ad00 <zeroes.0+0x78>
    82e2:	4589                	li	a1,2
    82e4:	fc040813          	addi	a6,s0,-64
    82e8:	00f77693          	andi	a3,a4,15
    82ec:	96aa                	add	a3,a3,a0
    82ee:	0006c683          	lbu	a3,0(a3)
    82f2:	01c61893          	slli	a7,a2,0x1c
    82f6:	8311                	srli	a4,a4,0x4
    82f8:	9746                	add	a4,a4,a7
    82fa:	8211                	srli	a2,a2,0x4
    82fc:	fed80fa3          	sb	a3,-1(a6)
    8300:	00c766b3          	or	a3,a4,a2
    8304:	187d                	addi	a6,a6,-1
    8306:	f2ed                	bnez	a3,82e8 <_vfiprintf_r+0xbf8>
    8308:	fc040713          	addi	a4,s0,-64
    830c:	41070333          	sub	t1,a4,a6
    8310:	88a6                	mv	a7,s1
    8312:	0064d363          	bge	s1,t1,8318 <_vfiprintf_r+0xc28>
    8316:	889a                	mv	a7,t1
    8318:	b6059de3          	bnez	a1,7e92 <_vfiprintf_r+0x7a2>
    831c:	a8b1                	j	8378 <_vfiprintf_r+0xc88>
    831e:	4301                	li	t1,0
    8320:	4481                	li	s1,0
    8322:	fc040813          	addi	a6,s0,-64
    8326:	d54ff06f          	j	787a <_vfiprintf_r+0x18a>
    832a:	54fd                	li	s1,-1
    832c:	892a                	mv	s2,a0
    832e:	cfaff06f          	j	7828 <_vfiprintf_r+0x138>
    8332:	652d                	lui	a0,0xb
    8334:	d1450513          	addi	a0,a0,-748 # ad14 <zeroes.0+0x8c>
    8338:	020df713          	andi	a4,s11,32
    833c:	18070963          	beqz	a4,84ce <_vfiprintf_r+0xdde>
    8340:	007a8613          	addi	a2,s5,7
    8344:	9a61                	andi	a2,a2,-8
    8346:	4218                	lw	a4,0(a2)
    8348:	00860a93          	addi	s5,a2,8
    834c:	4250                	lw	a2,4(a2)
    834e:	001df593          	andi	a1,s11,1
    8352:	00c76833          	or	a6,a4,a2
    8356:	c199                	beqz	a1,835c <_vfiprintf_r+0xc6c>
    8358:	1e081763          	bnez	a6,8546 <_vfiprintf_r+0xe56>
    835c:	f00405a3          	sb	zero,-245(s0)
    8360:	1804ca63          	bltz	s1,84f4 <_vfiprintf_r+0xe04>
    8364:	b7fdfd93          	andi	s11,s11,-1153
    8368:	44049d63          	bnez	s1,87c2 <_vfiprintf_r+0x10d2>
    836c:	44081b63          	bnez	a6,87c2 <_vfiprintf_r+0x10d2>
    8370:	4301                	li	t1,0
    8372:	fc040813          	addi	a6,s0,-64
    8376:	4881                	li	a7,0
    8378:	f1842683          	lw	a3,-232(s0)
    837c:	f1442703          	lw	a4,-236(s0)
    8380:	084dff13          	andi	t5,s11,132
    8384:	85b6                	mv	a1,a3
    8386:	863a                	mv	a2,a4
    8388:	d00f0363          	beqz	t5,788e <_vfiprintf_r+0x19e>
    838c:	f0b44603          	lbu	a2,-245(s0)
    8390:	4e81                	li	t4,0
    8392:	d0061763          	bnez	a2,78a0 <_vfiprintf_r+0x1b0>
    8396:	d4aff06f          	j	78e0 <_vfiprintf_r+0x1f0>
    839a:	652d                	lui	a0,0xb
    839c:	d0050513          	addi	a0,a0,-768 # ad00 <zeroes.0+0x78>
    83a0:	bf61                	j	8338 <_vfiprintf_r+0xc48>
    83a2:	8542                	mv	a0,a6
    83a4:	ef042c23          	sw	a6,-264(s0)
    83a8:	c81fb0ef          	jal	4028 <strlen>
    83ac:	f0b44703          	lbu	a4,-245(s0)
    83b0:	fff54893          	not	a7,a0
    83b4:	41f8d893          	srai	a7,a7,0x1f
    83b8:	ef842803          	lw	a6,-264(s0)
    83bc:	ef442783          	lw	a5,-268(s0)
    83c0:	832a                	mv	t1,a0
    83c2:	011578b3          	and	a7,a0,a7
    83c6:	8e0718e3          	bnez	a4,7cb6 <_vfiprintf_r+0x5c6>
    83ca:	4481                	li	s1,0
    83cc:	caeff06f          	j	787a <_vfiprintf_r+0x18a>
    83d0:	200df613          	andi	a2,s11,512
    83d4:	f00405a3          	sb	zero,-245(s0)
    83d8:	24060d63          	beqz	a2,8632 <_vfiprintf_r+0xf42>
    83dc:	0ff77713          	zext.b	a4,a4
    83e0:	4f01                	li	t5,0
    83e2:	a004dfe3          	bgez	s1,7e00 <_vfiprintf_r+0x710>
    83e6:	8ab6                	mv	s5,a3
    83e8:	940f08e3          	beqz	t5,7d38 <_vfiprintf_r+0x648>
    83ec:	ccccd8b7          	lui	a7,0xccccd
    83f0:	ccccd337          	lui	t1,0xccccd
    83f4:	ccd88893          	addi	a7,a7,-819 # cccccccd <_eusrstack+0xaccc4ccd>
    83f8:	ccc30313          	addi	t1,t1,-820 # cccccccc <_eusrstack+0xaccc4ccc>
    83fc:	400dfe13          	andi	t3,s11,1024
    8400:	4581                	li	a1,0
    8402:	fc040613          	addi	a2,s0,-64
    8406:	a0ad                	j	8470 <_vfiprintf_r+0xd80>
    8408:	ee842683          	lw	a3,-280(s0)
    840c:	0006c683          	lbu	a3,0(a3)
    8410:	00b69663          	bne	a3,a1,841c <_vfiprintf_r+0xd2c>
    8414:	f0168693          	addi	a3,a3,-255
    8418:	14069763          	bnez	a3,8566 <_vfiprintf_r+0xe76>
    841c:	8eba                	mv	t4,a4
    841e:	857a                	mv	a0,t5
    8420:	8642                	mv	a2,a6
    8422:	01e70fb3          	add	t6,a4,t5
    8426:	00efb6b3          	sltu	a3,t6,a4
    842a:	96fe                	add	a3,a3,t6
    842c:	0316bfb3          	mulhu	t6,a3,a7
    8430:	002fd293          	srli	t0,t6,0x2
    8434:	ffcfff93          	andi	t6,t6,-4
    8438:	9f96                	add	t6,t6,t0
    843a:	41f686b3          	sub	a3,a3,t6
    843e:	40d706b3          	sub	a3,a4,a3
    8442:	00d73733          	sltu	a4,a4,a3
    8446:	40ef0733          	sub	a4,t5,a4
    844a:	02668fb3          	mul	t6,a3,t1
    844e:	03170733          	mul	a4,a4,a7
    8452:	0316bf33          	mulhu	t5,a3,a7
    8456:	977e                	add	a4,a4,t6
    8458:	031686b3          	mul	a3,a3,a7
    845c:	977a                	add	a4,a4,t5
    845e:	01f71f93          	slli	t6,a4,0x1f
    8462:	00175f13          	srli	t5,a4,0x1
    8466:	8285                	srli	a3,a3,0x1
    8468:	00df8733          	add	a4,t6,a3
    846c:	30050563          	beqz	a0,8776 <_vfiprintf_r+0x1086>
    8470:	01e70fb3          	add	t6,a4,t5
    8474:	00efb6b3          	sltu	a3,t6,a4
    8478:	96fe                	add	a3,a3,t6
    847a:	0316b533          	mulhu	a0,a3,a7
    847e:	0585                	addi	a1,a1,1
    8480:	fff60813          	addi	a6,a2,-1
    8484:	00255e93          	srli	t4,a0,0x2
    8488:	9971                	andi	a0,a0,-4
    848a:	9576                	add	a0,a0,t4
    848c:	8e89                	sub	a3,a3,a0
    848e:	40d706b3          	sub	a3,a4,a3
    8492:	00d73533          	sltu	a0,a4,a3
    8496:	40af0533          	sub	a0,t5,a0
    849a:	0316beb3          	mulhu	t4,a3,a7
    849e:	03150533          	mul	a0,a0,a7
    84a2:	031686b3          	mul	a3,a3,a7
    84a6:	9576                	add	a0,a0,t4
    84a8:	057e                	slli	a0,a0,0x1f
    84aa:	8285                	srli	a3,a3,0x1
    84ac:	96aa                	add	a3,a3,a0
    84ae:	00269513          	slli	a0,a3,0x2
    84b2:	96aa                	add	a3,a3,a0
    84b4:	0686                	slli	a3,a3,0x1
    84b6:	40d706b3          	sub	a3,a4,a3
    84ba:	03068693          	addi	a3,a3,48
    84be:	fed60fa3          	sb	a3,-1(a2)
    84c2:	f40e13e3          	bnez	t3,8408 <_vfiprintf_r+0xd18>
    84c6:	8eba                	mv	t4,a4
    84c8:	857a                	mv	a0,t5
    84ca:	8642                	mv	a2,a6
    84cc:	bfa9                	j	8426 <_vfiprintf_r+0xd36>
    84ce:	010df613          	andi	a2,s11,16
    84d2:	000aa703          	lw	a4,0(s5)
    84d6:	0a91                	addi	s5,s5,4
    84d8:	ee01                	bnez	a2,84f0 <_vfiprintf_r+0xe00>
    84da:	040df613          	andi	a2,s11,64
    84de:	c609                	beqz	a2,84e8 <_vfiprintf_r+0xdf8>
    84e0:	0742                	slli	a4,a4,0x10
    84e2:	8341                	srli	a4,a4,0x10
    84e4:	4601                	li	a2,0
    84e6:	b5a5                	j	834e <_vfiprintf_r+0xc5e>
    84e8:	200df613          	andi	a2,s11,512
    84ec:	12061b63          	bnez	a2,8622 <_vfiprintf_r+0xf32>
    84f0:	4601                	li	a2,0
    84f2:	bdb1                	j	834e <_vfiprintf_r+0xc5e>
    84f4:	bffdfd93          	andi	s11,s11,-1025
    84f8:	4581                	li	a1,0
    84fa:	b3ed                	j	82e4 <_vfiprintf_r+0xbf4>
    84fc:	f1040613          	addi	a2,s0,-240
    8500:	85d2                	mv	a1,s4
    8502:	855a                	mv	a0,s6
    8504:	ef042623          	sw	a6,-276(s0)
    8508:	efd42823          	sw	t4,-272(s0)
    850c:	ef142a23          	sw	a7,-268(s0)
    8510:	ee642c23          	sw	t1,-264(s0)
    8514:	849fa0ef          	jal	2d5c <__sprint_r>
    8518:	8f2a                	mv	t5,a0
    851a:	ca051063          	bnez	a0,79ba <_vfiprintf_r+0x2ca>
    851e:	f0b44783          	lbu	a5,-245(s0)
    8522:	f1842683          	lw	a3,-232(s0)
    8526:	f1442703          	lw	a4,-236(s0)
    852a:	ef842303          	lw	t1,-264(s0)
    852e:	ef442883          	lw	a7,-268(s0)
    8532:	ef042e83          	lw	t4,-272(s0)
    8536:	eec42803          	lw	a6,-276(s0)
    853a:	e3f1                	bnez	a5,85fe <_vfiprintf_r+0xf0e>
    853c:	87de                	mv	a5,s7
    853e:	b80e9263          	bnez	t4,78c2 <_vfiprintf_r+0x1d2>
    8542:	ba6ff06f          	j	78e8 <_vfiprintf_r+0x1f8>
    8546:	f0d406a3          	sb	a3,-243(s0)
    854a:	03000693          	li	a3,48
    854e:	f00405a3          	sb	zero,-245(s0)
    8552:	f0d40623          	sb	a3,-244(s0)
    8556:	0a04c763          	bltz	s1,8604 <_vfiprintf_r+0xf14>
    855a:	b7fdfd93          	andi	s11,s11,-1153
    855e:	002ded93          	ori	s11,s11,2
    8562:	4589                	li	a1,2
    8564:	b341                	j	82e4 <_vfiprintf_r+0xbf4>
    8566:	100f1463          	bnez	t5,866e <_vfiprintf_r+0xf7e>
    856a:	46a5                	li	a3,9
    856c:	10e6e163          	bltu	a3,a4,866e <_vfiprintf_r+0xf7e>
    8570:	fc040713          	addi	a4,s0,-64
    8574:	41070333          	sub	t1,a4,a6
    8578:	88a6                	mv	a7,s1
    857a:	f0b44703          	lbu	a4,-245(s0)
    857e:	0064d363          	bge	s1,t1,8584 <_vfiprintf_r+0xe94>
    8582:	889a                	mv	a7,t1
    8584:	00e03733          	snez	a4,a4
    8588:	98ba                	add	a7,a7,a4
    858a:	b3fd                	j	8378 <_vfiprintf_r+0xc88>
    858c:	e55fa0ef          	jal	33e0 <__sinit>
    8590:	990ff06f          	j	7720 <_vfiprintf_r+0x30>
    8594:	00194683          	lbu	a3,1(s2)
    8598:	020ded93          	ori	s11,s11,32
    859c:	0905                	addi	s2,s2,1
    859e:	a88ff06f          	j	7826 <_vfiprintf_r+0x136>
    85a2:	00194683          	lbu	a3,1(s2)
    85a6:	200ded93          	ori	s11,s11,512
    85aa:	0905                	addi	s2,s2,1
    85ac:	a7aff06f          	j	7826 <_vfiprintf_r+0x136>
    85b0:	000aa703          	lw	a4,0(s5)
    85b4:	8ab6                	mv	s5,a3
    85b6:	01972023          	sw	s9,0(a4)
    85ba:	a02ff06f          	j	77bc <_vfiprintf_r+0xcc>
    85be:	4719                	li	a4,6
    85c0:	88a6                	mv	a7,s1
    85c2:	04976763          	bltu	a4,s1,8610 <_vfiprintf_r+0xf20>
    85c6:	682d                	lui	a6,0xb
    85c8:	d2880813          	addi	a6,a6,-728 # ad28 <zeroes.0+0xa0>
    85cc:	8346                	mv	t1,a7
    85ce:	4481                	li	s1,0
    85d0:	aaaff06f          	j	787a <_vfiprintf_r+0x18a>
    85d4:	200df613          	andi	a2,s11,512
    85d8:	c23d                	beqz	a2,863e <_vfiprintf_r+0xf4e>
    85da:	0762                	slli	a4,a4,0x18
    85dc:	8761                	srai	a4,a4,0x18
    85de:	41f75f13          	srai	t5,a4,0x1f
    85e2:	8ab6                	mv	s5,a3
    85e4:	86fa                	mv	a3,t5
    85e6:	d84ff06f          	j	7b6a <_vfiprintf_r+0x47a>
    85ea:	200df613          	andi	a2,s11,512
    85ee:	ce15                	beqz	a2,862a <_vfiprintf_r+0xf3a>
    85f0:	0ff77713          	zext.b	a4,a4
    85f4:	8ab6                	mv	s5,a3
    85f6:	88ee                	mv	a7,s11
    85f8:	4601                	li	a2,0
    85fa:	fa6ff06f          	j	7da0 <_vfiprintf_r+0x6b0>
    85fe:	87de                	mv	a5,s7
    8600:	aa0ff06f          	j	78a0 <_vfiprintf_r+0x1b0>
    8604:	bffdfd93          	andi	s11,s11,-1025
    8608:	002ded93          	ori	s11,s11,2
    860c:	4589                	li	a1,2
    860e:	b9d9                	j	82e4 <_vfiprintf_r+0xbf4>
    8610:	88ba                	mv	a7,a4
    8612:	bf55                	j	85c6 <_vfiprintf_r+0xed6>
    8614:	000aa703          	lw	a4,0(s5)
    8618:	8ab6                	mv	s5,a3
    861a:	01971023          	sh	s9,0(a4)
    861e:	99eff06f          	j	77bc <_vfiprintf_r+0xcc>
    8622:	0ff77713          	zext.b	a4,a4
    8626:	4601                	li	a2,0
    8628:	b31d                	j	834e <_vfiprintf_r+0xc5e>
    862a:	8ab6                	mv	s5,a3
    862c:	88ee                	mv	a7,s11
    862e:	f72ff06f          	j	7da0 <_vfiprintf_r+0x6b0>
    8632:	4f01                	li	t5,0
    8634:	8ab6                	mv	s5,a3
    8636:	fc04d563          	bgez	s1,7e00 <_vfiprintf_r+0x710>
    863a:	efeff06f          	j	7d38 <_vfiprintf_r+0x648>
    863e:	41f75f13          	srai	t5,a4,0x1f
    8642:	8ab6                	mv	s5,a3
    8644:	86fa                	mv	a3,t5
    8646:	d24ff06f          	j	7b6a <_vfiprintf_r+0x47a>
    864a:	855a                	mv	a0,s6
    864c:	f1040613          	addi	a2,s0,-240
    8650:	85d2                	mv	a1,s4
    8652:	f0afa0ef          	jal	2d5c <__sprint_r>
    8656:	b6051263          	bnez	a0,79ba <_vfiprintf_r+0x2ca>
    865a:	f0042a23          	sw	zero,-236(s0)
    865e:	b5cff06f          	j	79ba <_vfiprintf_r+0x2ca>
    8662:	058a2503          	lw	a0,88(s4)
    8666:	ffafb0ef          	jal	3e60 <__retarget_lock_release_recursive>
    866a:	af8ff06f          	j	7962 <_vfiprintf_r+0x272>
    866e:	ee442603          	lw	a2,-284(s0)
    8672:	ee042583          	lw	a1,-288(s0)
    8676:	ede42e23          	sw	t5,-292(s0)
    867a:	40c80eb3          	sub	t4,a6,a2
    867e:	8576                	mv	a0,t4
    8680:	eee42623          	sw	a4,-276(s0)
    8684:	efc42823          	sw	t3,-272(s0)
    8688:	eef42a23          	sw	a5,-268(s0)
    868c:	efd42c23          	sw	t4,-264(s0)
    8690:	cf0fb0ef          	jal	3b80 <strncpy>
    8694:	eec42703          	lw	a4,-276(s0)
    8698:	edc42f03          	lw	t5,-292(s0)
    869c:	ccccd5b7          	lui	a1,0xccccd
    86a0:	ccc58593          	addi	a1,a1,-820 # cccccccc <_eusrstack+0xaccc4ccc>
    86a4:	01e706b3          	add	a3,a4,t5
    86a8:	00e6b633          	sltu	a2,a3,a4
    86ac:	96b2                	add	a3,a3,a2
    86ae:	ccccd637          	lui	a2,0xccccd
    86b2:	ccd60613          	addi	a2,a2,-819 # cccccccd <_eusrstack+0xaccc4ccd>
    86b6:	02c6b533          	mulhu	a0,a3,a2
    86ba:	ee842783          	lw	a5,-280(s0)
    86be:	ef842e83          	lw	t4,-264(s0)
    86c2:	ccccd8b7          	lui	a7,0xccccd
    86c6:	0017c803          	lbu	a6,1(a5)
    86ca:	ccccd337          	lui	t1,0xccccd
    86ce:	ef042e03          	lw	t3,-272(s0)
    86d2:	01003833          	snez	a6,a6
    86d6:	97c2                	add	a5,a5,a6
    86d8:	eef42423          	sw	a5,-280(s0)
    86dc:	00255f93          	srli	t6,a0,0x2
    86e0:	9971                	andi	a0,a0,-4
    86e2:	957e                	add	a0,a0,t6
    86e4:	8e89                	sub	a3,a3,a0
    86e6:	40d706b3          	sub	a3,a4,a3
    86ea:	00d73733          	sltu	a4,a4,a3
    86ee:	40ef0733          	sub	a4,t5,a4
    86f2:	02b685b3          	mul	a1,a3,a1
    86f6:	ef442783          	lw	a5,-268(s0)
    86fa:	fffe8813          	addi	a6,t4,-1
    86fe:	ccd88893          	addi	a7,a7,-819 # cccccccd <_eusrstack+0xaccc4ccd>
    8702:	ccc30313          	addi	t1,t1,-820 # cccccccc <_eusrstack+0xaccc4ccc>
    8706:	02c70733          	mul	a4,a4,a2
    870a:	972e                	add	a4,a4,a1
    870c:	02c6b5b3          	mulhu	a1,a3,a2
    8710:	02c686b3          	mul	a3,a3,a2
    8714:	972e                	add	a4,a4,a1
    8716:	01f71513          	slli	a0,a4,0x1f
    871a:	00175f13          	srli	t5,a4,0x1
    871e:	4585                	li	a1,1
    8720:	0016d713          	srli	a4,a3,0x1
    8724:	972a                	add	a4,a4,a0
    8726:	01e706b3          	add	a3,a4,t5
    872a:	00e6b533          	sltu	a0,a3,a4
    872e:	96aa                	add	a3,a3,a0
    8730:	02c6b533          	mulhu	a0,a3,a2
    8734:	00255f93          	srli	t6,a0,0x2
    8738:	9971                	andi	a0,a0,-4
    873a:	957e                	add	a0,a0,t6
    873c:	8e89                	sub	a3,a3,a0
    873e:	40d706b3          	sub	a3,a4,a3
    8742:	00d73533          	sltu	a0,a4,a3
    8746:	40af0533          	sub	a0,t5,a0
    874a:	02c6bfb3          	mulhu	t6,a3,a2
    874e:	02c50533          	mul	a0,a0,a2
    8752:	02c686b3          	mul	a3,a3,a2
    8756:	01f50633          	add	a2,a0,t6
    875a:	067e                	slli	a2,a2,0x1f
    875c:	8285                	srli	a3,a3,0x1
    875e:	96b2                	add	a3,a3,a2
    8760:	00269613          	slli	a2,a3,0x2
    8764:	96b2                	add	a3,a3,a2
    8766:	0686                	slli	a3,a3,0x1
    8768:	40d706b3          	sub	a3,a4,a3
    876c:	03068693          	addi	a3,a3,48
    8770:	fede8fa3          	sb	a3,-1(t4)
    8774:	b951                	j	8408 <_vfiprintf_r+0xd18>
    8776:	46a5                	li	a3,9
    8778:	cfd6ece3          	bltu	a3,t4,8470 <_vfiprintf_r+0xd80>
    877c:	bbd5                	j	8570 <_vfiprintf_r+0xe80>
    877e:	c315                	beqz	a4,87a2 <_vfiprintf_r+0x10b2>
    8780:	00148893          	addi	a7,s1,1
    8784:	8326                	mv	t1,s1
    8786:	4481                	li	s1,0
    8788:	c0cff06f          	j	7b94 <_vfiprintf_r+0x4a4>
    878c:	c78f0f13          	addi	t5,t5,-904
    8790:	cb2ff06f          	j	7c42 <_vfiprintf_r+0x552>
    8794:	c78f0f13          	addi	t5,t5,-904
    8798:	b5aff06f          	j	7af2 <_vfiprintf_r+0x402>
    879c:	c88f0f13          	addi	t5,t5,-888
    87a0:	b8c1                	j	8070 <_vfiprintf_r+0x980>
    87a2:	8326                	mv	t1,s1
    87a4:	88a6                	mv	a7,s1
    87a6:	4481                	li	s1,0
    87a8:	8d2ff06f          	j	787a <_vfiprintf_r+0x18a>
    87ac:	000aa483          	lw	s1,0(s5)
    87b0:	0a91                	addi	s5,s5,4
    87b2:	0004d363          	bgez	s1,87b8 <_vfiprintf_r+0x10c8>
    87b6:	54fd                	li	s1,-1
    87b8:	00194683          	lbu	a3,1(s2)
    87bc:	892a                	mv	s2,a0
    87be:	868ff06f          	j	7826 <_vfiprintf_r+0x136>
    87c2:	4581                	li	a1,0
    87c4:	b605                	j	82e4 <_vfiprintf_r+0xbf4>
    87c6:	058a2503          	lw	a0,88(s4)
    87ca:	5cfd                	li	s9,-1
    87cc:	e94fb0ef          	jal	3e60 <__retarget_lock_release_recursive>
    87d0:	a14ff06f          	j	79e4 <_vfiprintf_r+0x2f4>
    87d4:	8b05                	andi	a4,a4,1
    87d6:	a6070163          	beqz	a4,7a38 <_vfiprintf_r+0x348>
    87da:	a6aff06f          	j	7a44 <_vfiprintf_r+0x354>
    87de:	652d                	lui	a0,0xb
    87e0:	8ab6                	mv	s5,a3
    87e2:	d0050513          	addi	a0,a0,-768 # ad00 <zeroes.0+0x78>
    87e6:	4589                	li	a1,2
    87e8:	bcf5                	j	82e4 <_vfiprintf_r+0xbf4>
    87ea:	064a2783          	lw	a5,100(s4)
    87ee:	8b85                	andi	a5,a5,1
    87f0:	a4079a63          	bnez	a5,7a44 <_vfiprintf_r+0x354>
    87f4:	a44ff06f          	j	7a38 <_vfiprintf_r+0x348>

000087f8 <vfiprintf>:
    87f8:	1141                	addi	sp,sp,-16
    87fa:	c422                	sw	s0,8(sp)
    87fc:	c606                	sw	ra,12(sp)
    87fe:	0800                	addi	s0,sp,16
    8800:	200007b7          	lui	a5,0x20000
    8804:	4422                	lw	s0,8(sp)
    8806:	40b2                	lw	ra,12(sp)
    8808:	872a                	mv	a4,a0
    880a:	6c87a503          	lw	a0,1736(a5) # 200006c8 <_impure_ptr>
    880e:	86b2                	mv	a3,a2
    8810:	862e                	mv	a2,a1
    8812:	0141                	addi	sp,sp,16
    8814:	85ba                	mv	a1,a4
    8816:	edbfe06f          	j	76f0 <_vfiprintf_r>

0000881a <__sbprintf>:
    881a:	b6010113          	addi	sp,sp,-1184
    881e:	48112e23          	sw	ra,1180(sp)
    8822:	48812c23          	sw	s0,1176(sp)
    8826:	48912a23          	sw	s1,1172(sp)
    882a:	4a010413          	addi	s0,sp,1184
    882e:	49212823          	sw	s2,1168(sp)
    8832:	49312623          	sw	s3,1164(sp)
    8836:	00c5d783          	lhu	a5,12(a1)
    883a:	0645ae03          	lw	t3,100(a1)
    883e:	00e5d303          	lhu	t1,14(a1)
    8842:	01c5a883          	lw	a7,28(a1)
    8846:	0245a803          	lw	a6,36(a1)
    884a:	40000713          	li	a4,1024
    884e:	9bf5                	andi	a5,a5,-3
    8850:	89aa                	mv	s3,a0
    8852:	84ae                	mv	s1,a1
    8854:	bd040513          	addi	a0,s0,-1072
    8858:	be040593          	addi	a1,s0,-1056
    885c:	8932                	mv	s2,a2
    885e:	b6d42623          	sw	a3,-1172(s0)
    8862:	b8f41223          	sh	a5,-1148(s0)
    8866:	bdc42e23          	sw	t3,-1060(s0)
    886a:	b8641323          	sh	t1,-1146(s0)
    886e:	b9142a23          	sw	a7,-1132(s0)
    8872:	b9042e23          	sw	a6,-1124(s0)
    8876:	b6b42c23          	sw	a1,-1160(s0)
    887a:	b8b42423          	sw	a1,-1144(s0)
    887e:	b8e42023          	sw	a4,-1152(s0)
    8882:	b8e42623          	sw	a4,-1140(s0)
    8886:	b8042823          	sw	zero,-1136(s0)
    888a:	d52fb0ef          	jal	3ddc <__retarget_lock_init_recursive>
    888e:	b6c42683          	lw	a3,-1172(s0)
    8892:	864a                	mv	a2,s2
    8894:	b7840593          	addi	a1,s0,-1160
    8898:	854e                	mv	a0,s3
    889a:	e57fe0ef          	jal	76f0 <_vfiprintf_r>
    889e:	892a                	mv	s2,a0
    88a0:	04055863          	bgez	a0,88f0 <__sbprintf+0xd6>
    88a4:	b8445783          	lhu	a5,-1148(s0)
    88a8:	0407f793          	andi	a5,a5,64
    88ac:	c799                	beqz	a5,88ba <__sbprintf+0xa0>
    88ae:	00c4d783          	lhu	a5,12(s1)
    88b2:	0407e793          	ori	a5,a5,64
    88b6:	00f49623          	sh	a5,12(s1)
    88ba:	bd042503          	lw	a0,-1072(s0)
    88be:	d3efb0ef          	jal	3dfc <__retarget_lock_close_recursive>
    88c2:	49c12083          	lw	ra,1180(sp)
    88c6:	49812403          	lw	s0,1176(sp)
    88ca:	49412483          	lw	s1,1172(sp)
    88ce:	48c12983          	lw	s3,1164(sp)
    88d2:	854a                	mv	a0,s2
    88d4:	49012903          	lw	s2,1168(sp)
    88d8:	4a010113          	addi	sp,sp,1184
    88dc:	4301                	li	t1,0
    88de:	4581                	li	a1,0
    88e0:	4601                	li	a2,0
    88e2:	4681                	li	a3,0
    88e4:	4701                	li	a4,0
    88e6:	4781                	li	a5,0
    88e8:	4801                	li	a6,0
    88ea:	4881                	li	a7,0
    88ec:	4e01                	li	t3,0
    88ee:	8082                	ret
    88f0:	b7840593          	addi	a1,s0,-1160
    88f4:	854e                	mv	a0,s3
    88f6:	e66fa0ef          	jal	2f5c <_fflush_r>
    88fa:	d54d                	beqz	a0,88a4 <__sbprintf+0x8a>
    88fc:	597d                	li	s2,-1
    88fe:	b75d                	j	88a4 <__sbprintf+0x8a>

00008900 <__errno>:
    8900:	1141                	addi	sp,sp,-16
    8902:	c422                	sw	s0,8(sp)
    8904:	c606                	sw	ra,12(sp)
    8906:	0800                	addi	s0,sp,16
    8908:	40b2                	lw	ra,12(sp)
    890a:	4422                	lw	s0,8(sp)
    890c:	200007b7          	lui	a5,0x20000
    8910:	6c87a503          	lw	a0,1736(a5) # 200006c8 <_impure_ptr>
    8914:	0141                	addi	sp,sp,16
    8916:	4781                	li	a5,0
    8918:	8082                	ret

0000891a <abort>:
    891a:	1141                	addi	sp,sp,-16
    891c:	c422                	sw	s0,8(sp)
    891e:	c606                	sw	ra,12(sp)
    8920:	0800                	addi	s0,sp,16
    8922:	4519                	li	a0,6
    8924:	243d                	jal	8b52 <raise>
    8926:	4505                	li	a0,1
    8928:	2b39                	jal	8e46 <_exit>

0000892a <_init_signal_r>:
    892a:	13852703          	lw	a4,312(a0)
    892e:	c711                	beqz	a4,893a <_init_signal_r+0x10>
    8930:	4501                	li	a0,0
    8932:	4581                	li	a1,0
    8934:	4701                	li	a4,0
    8936:	4781                	li	a5,0
    8938:	8082                	ret
    893a:	1101                	addi	sp,sp,-32
    893c:	cc22                	sw	s0,24(sp)
    893e:	ce06                	sw	ra,28(sp)
    8940:	1000                	addi	s0,sp,32
    8942:	08000593          	li	a1,128
    8946:	fea42623          	sw	a0,-20(s0)
    894a:	b89fc0ef          	jal	54d2 <_malloc_r>
    894e:	fec42783          	lw	a5,-20(s0)
    8952:	12a7ac23          	sw	a0,312(a5)
    8956:	c105                	beqz	a0,8976 <_init_signal_r+0x4c>
    8958:	08050793          	addi	a5,a0,128
    895c:	00052023          	sw	zero,0(a0)
    8960:	0511                	addi	a0,a0,4
    8962:	fef51de3          	bne	a0,a5,895c <_init_signal_r+0x32>
    8966:	4501                	li	a0,0
    8968:	40f2                	lw	ra,28(sp)
    896a:	4462                	lw	s0,24(sp)
    896c:	6105                	addi	sp,sp,32
    896e:	4581                	li	a1,0
    8970:	4701                	li	a4,0
    8972:	4781                	li	a5,0
    8974:	8082                	ret
    8976:	557d                	li	a0,-1
    8978:	bfc5                	j	8968 <_init_signal_r+0x3e>

0000897a <_signal_r>:
    897a:	477d                	li	a4,31
    897c:	00b76f63          	bltu	a4,a1,899a <_signal_r+0x20>
    8980:	13852703          	lw	a4,312(a0)
    8984:	c705                	beqz	a4,89ac <_signal_r+0x32>
    8986:	058a                	slli	a1,a1,0x2
    8988:	972e                	add	a4,a4,a1
    898a:	4308                	lw	a0,0(a4)
    898c:	c310                	sw	a2,0(a4)
    898e:	4581                	li	a1,0
    8990:	4601                	li	a2,0
    8992:	4681                	li	a3,0
    8994:	4701                	li	a4,0
    8996:	4781                	li	a5,0
    8998:	8082                	ret
    899a:	4759                	li	a4,22
    899c:	c118                	sw	a4,0(a0)
    899e:	557d                	li	a0,-1
    89a0:	4581                	li	a1,0
    89a2:	4601                	li	a2,0
    89a4:	4681                	li	a3,0
    89a6:	4701                	li	a4,0
    89a8:	4781                	li	a5,0
    89aa:	8082                	ret
    89ac:	1101                	addi	sp,sp,-32
    89ae:	cc22                	sw	s0,24(sp)
    89b0:	ce06                	sw	ra,28(sp)
    89b2:	1000                	addi	s0,sp,32
    89b4:	feb42623          	sw	a1,-20(s0)
    89b8:	08000593          	li	a1,128
    89bc:	fec42423          	sw	a2,-24(s0)
    89c0:	fea42223          	sw	a0,-28(s0)
    89c4:	b0ffc0ef          	jal	54d2 <_malloc_r>
    89c8:	fe442683          	lw	a3,-28(s0)
    89cc:	872a                	mv	a4,a0
    89ce:	08050593          	addi	a1,a0,128
    89d2:	12a6ac23          	sw	a0,312(a3)
    89d6:	fec42783          	lw	a5,-20(s0)
    89da:	86aa                	mv	a3,a0
    89dc:	fe842603          	lw	a2,-24(s0)
    89e0:	557d                	li	a0,-1
    89e2:	cb19                	beqz	a4,89f8 <_signal_r+0x7e>
    89e4:	0006a023          	sw	zero,0(a3)
    89e8:	0691                	addi	a3,a3,4
    89ea:	feb69de3          	bne	a3,a1,89e4 <_signal_r+0x6a>
    89ee:	00279593          	slli	a1,a5,0x2
    89f2:	972e                	add	a4,a4,a1
    89f4:	4308                	lw	a0,0(a4)
    89f6:	c310                	sw	a2,0(a4)
    89f8:	40f2                	lw	ra,28(sp)
    89fa:	4462                	lw	s0,24(sp)
    89fc:	6105                	addi	sp,sp,32
    89fe:	4581                	li	a1,0
    8a00:	4601                	li	a2,0
    8a02:	4681                	li	a3,0
    8a04:	4701                	li	a4,0
    8a06:	4781                	li	a5,0
    8a08:	8082                	ret

00008a0a <_raise_r>:
    8a0a:	47fd                	li	a5,31
    8a0c:	06b7ee63          	bltu	a5,a1,8a88 <_raise_r+0x7e>
    8a10:	1101                	addi	sp,sp,-32
    8a12:	cc22                	sw	s0,24(sp)
    8a14:	ce06                	sw	ra,28(sp)
    8a16:	1000                	addi	s0,sp,32
    8a18:	13852783          	lw	a5,312(a0)
    8a1c:	872a                	mv	a4,a0
    8a1e:	862e                	mv	a2,a1
    8a20:	cb95                	beqz	a5,8a54 <_raise_r+0x4a>
    8a22:	00259693          	slli	a3,a1,0x2
    8a26:	97b6                	add	a5,a5,a3
    8a28:	4394                	lw	a3,0(a5)
    8a2a:	c68d                	beqz	a3,8a54 <_raise_r+0x4a>
    8a2c:	4505                	li	a0,1
    8a2e:	00a68963          	beq	a3,a0,8a40 <_raise_r+0x36>
    8a32:	55fd                	li	a1,-1
    8a34:	02b68f63          	beq	a3,a1,8a72 <_raise_r+0x68>
    8a38:	0007a023          	sw	zero,0(a5)
    8a3c:	8532                	mv	a0,a2
    8a3e:	9682                	jalr	a3
    8a40:	40f2                	lw	ra,28(sp)
    8a42:	4462                	lw	s0,24(sp)
    8a44:	4501                	li	a0,0
    8a46:	6105                	addi	sp,sp,32
    8a48:	4581                	li	a1,0
    8a4a:	4601                	li	a2,0
    8a4c:	4681                	li	a3,0
    8a4e:	4701                	li	a4,0
    8a50:	4781                	li	a5,0
    8a52:	8082                	ret
    8a54:	853a                	mv	a0,a4
    8a56:	fec42423          	sw	a2,-24(s0)
    8a5a:	fee42623          	sw	a4,-20(s0)
    8a5e:	2e71                	jal	8dfa <_getpid_r>
    8a60:	fe842603          	lw	a2,-24(s0)
    8a64:	85aa                	mv	a1,a0
    8a66:	fec42503          	lw	a0,-20(s0)
    8a6a:	4462                	lw	s0,24(sp)
    8a6c:	40f2                	lw	ra,28(sp)
    8a6e:	6105                	addi	sp,sp,32
    8a70:	ae25                	j	8da8 <_kill_r>
    8a72:	40f2                	lw	ra,28(sp)
    8a74:	4462                	lw	s0,24(sp)
    8a76:	47d9                	li	a5,22
    8a78:	c31c                	sw	a5,0(a4)
    8a7a:	6105                	addi	sp,sp,32
    8a7c:	4581                	li	a1,0
    8a7e:	4601                	li	a2,0
    8a80:	4681                	li	a3,0
    8a82:	4701                	li	a4,0
    8a84:	4781                	li	a5,0
    8a86:	8082                	ret
    8a88:	47d9                	li	a5,22
    8a8a:	c11c                	sw	a5,0(a0)
    8a8c:	557d                	li	a0,-1
    8a8e:	4581                	li	a1,0
    8a90:	4601                	li	a2,0
    8a92:	4681                	li	a3,0
    8a94:	4701                	li	a4,0
    8a96:	4781                	li	a5,0
    8a98:	8082                	ret

00008a9a <__sigtramp_r>:
    8a9a:	47fd                	li	a5,31
    8a9c:	0ab7e463          	bltu	a5,a1,8b44 <__sigtramp_r+0xaa>
    8aa0:	1101                	addi	sp,sp,-32
    8aa2:	cc22                	sw	s0,24(sp)
    8aa4:	ce06                	sw	ra,28(sp)
    8aa6:	1000                	addi	s0,sp,32
    8aa8:	13852783          	lw	a5,312(a0)
    8aac:	872e                	mv	a4,a1
    8aae:	c3a5                	beqz	a5,8b0e <__sigtramp_r+0x74>
    8ab0:	00271693          	slli	a3,a4,0x2
    8ab4:	97b6                	add	a5,a5,a3
    8ab6:	4394                	lw	a3,0(a5)
    8ab8:	c68d                	beqz	a3,8ae2 <__sigtramp_r+0x48>
    8aba:	567d                	li	a2,-1
    8abc:	04c68763          	beq	a3,a2,8b0a <__sigtramp_r+0x70>
    8ac0:	4605                	li	a2,1
    8ac2:	02c68a63          	beq	a3,a2,8af6 <__sigtramp_r+0x5c>
    8ac6:	853a                	mv	a0,a4
    8ac8:	0007a023          	sw	zero,0(a5)
    8acc:	9682                	jalr	a3
    8ace:	4501                	li	a0,0
    8ad0:	40f2                	lw	ra,28(sp)
    8ad2:	4462                	lw	s0,24(sp)
    8ad4:	6105                	addi	sp,sp,32
    8ad6:	4581                	li	a1,0
    8ad8:	4601                	li	a2,0
    8ada:	4681                	li	a3,0
    8adc:	4701                	li	a4,0
    8ade:	4781                	li	a5,0
    8ae0:	8082                	ret
    8ae2:	40f2                	lw	ra,28(sp)
    8ae4:	4462                	lw	s0,24(sp)
    8ae6:	4505                	li	a0,1
    8ae8:	6105                	addi	sp,sp,32
    8aea:	4581                	li	a1,0
    8aec:	4601                	li	a2,0
    8aee:	4681                	li	a3,0
    8af0:	4701                	li	a4,0
    8af2:	4781                	li	a5,0
    8af4:	8082                	ret
    8af6:	40f2                	lw	ra,28(sp)
    8af8:	4462                	lw	s0,24(sp)
    8afa:	450d                	li	a0,3
    8afc:	6105                	addi	sp,sp,32
    8afe:	4581                	li	a1,0
    8b00:	4601                	li	a2,0
    8b02:	4681                	li	a3,0
    8b04:	4701                	li	a4,0
    8b06:	4781                	li	a5,0
    8b08:	8082                	ret
    8b0a:	4509                	li	a0,2
    8b0c:	b7d1                	j	8ad0 <__sigtramp_r+0x36>
    8b0e:	feb42423          	sw	a1,-24(s0)
    8b12:	08000593          	li	a1,128
    8b16:	fea42623          	sw	a0,-20(s0)
    8b1a:	9b9fc0ef          	jal	54d2 <_malloc_r>
    8b1e:	fec42683          	lw	a3,-20(s0)
    8b22:	87aa                	mv	a5,a0
    8b24:	12a6ac23          	sw	a0,312(a3)
    8b28:	cd01                	beqz	a0,8b40 <__sigtramp_r+0xa6>
    8b2a:	fe842703          	lw	a4,-24(s0)
    8b2e:	86aa                	mv	a3,a0
    8b30:	08050613          	addi	a2,a0,128
    8b34:	0006a023          	sw	zero,0(a3)
    8b38:	0691                	addi	a3,a3,4
    8b3a:	fec69de3          	bne	a3,a2,8b34 <__sigtramp_r+0x9a>
    8b3e:	bf8d                	j	8ab0 <__sigtramp_r+0x16>
    8b40:	557d                	li	a0,-1
    8b42:	b779                	j	8ad0 <__sigtramp_r+0x36>
    8b44:	557d                	li	a0,-1
    8b46:	4581                	li	a1,0
    8b48:	4601                	li	a2,0
    8b4a:	4681                	li	a3,0
    8b4c:	4701                	li	a4,0
    8b4e:	4781                	li	a5,0
    8b50:	8082                	ret

00008b52 <raise>:
    8b52:	20000737          	lui	a4,0x20000
    8b56:	47fd                	li	a5,31
    8b58:	6c872803          	lw	a6,1736(a4) # 200006c8 <_impure_ptr>
    8b5c:	08a7e063          	bltu	a5,a0,8bdc <raise+0x8a>
    8b60:	1101                	addi	sp,sp,-32
    8b62:	cc22                	sw	s0,24(sp)
    8b64:	ce06                	sw	ra,28(sp)
    8b66:	1000                	addi	s0,sp,32
    8b68:	13882783          	lw	a5,312(a6)
    8b6c:	862a                	mv	a2,a0
    8b6e:	cb95                	beqz	a5,8ba2 <raise+0x50>
    8b70:	00251713          	slli	a4,a0,0x2
    8b74:	97ba                	add	a5,a5,a4
    8b76:	4398                	lw	a4,0(a5)
    8b78:	c70d                	beqz	a4,8ba2 <raise+0x50>
    8b7a:	4685                	li	a3,1
    8b7c:	00d70863          	beq	a4,a3,8b8c <raise+0x3a>
    8b80:	567d                	li	a2,-1
    8b82:	02c70f63          	beq	a4,a2,8bc0 <raise+0x6e>
    8b86:	0007a023          	sw	zero,0(a5)
    8b8a:	9702                	jalr	a4
    8b8c:	40f2                	lw	ra,28(sp)
    8b8e:	4462                	lw	s0,24(sp)
    8b90:	4501                	li	a0,0
    8b92:	6105                	addi	sp,sp,32
    8b94:	4581                	li	a1,0
    8b96:	4601                	li	a2,0
    8b98:	4681                	li	a3,0
    8b9a:	4701                	li	a4,0
    8b9c:	4781                	li	a5,0
    8b9e:	4801                	li	a6,0
    8ba0:	8082                	ret
    8ba2:	8542                	mv	a0,a6
    8ba4:	fec42423          	sw	a2,-24(s0)
    8ba8:	ff042623          	sw	a6,-20(s0)
    8bac:	24b9                	jal	8dfa <_getpid_r>
    8bae:	fe842603          	lw	a2,-24(s0)
    8bb2:	85aa                	mv	a1,a0
    8bb4:	fec42503          	lw	a0,-20(s0)
    8bb8:	4462                	lw	s0,24(sp)
    8bba:	40f2                	lw	ra,28(sp)
    8bbc:	6105                	addi	sp,sp,32
    8bbe:	a2ed                	j	8da8 <_kill_r>
    8bc0:	40f2                	lw	ra,28(sp)
    8bc2:	4462                	lw	s0,24(sp)
    8bc4:	47d9                	li	a5,22
    8bc6:	00f82023          	sw	a5,0(a6)
    8bca:	8536                	mv	a0,a3
    8bcc:	6105                	addi	sp,sp,32
    8bce:	4581                	li	a1,0
    8bd0:	4601                	li	a2,0
    8bd2:	4681                	li	a3,0
    8bd4:	4701                	li	a4,0
    8bd6:	4781                	li	a5,0
    8bd8:	4801                	li	a6,0
    8bda:	8082                	ret
    8bdc:	47d9                	li	a5,22
    8bde:	00f82023          	sw	a5,0(a6)
    8be2:	557d                	li	a0,-1
    8be4:	4581                	li	a1,0
    8be6:	4601                	li	a2,0
    8be8:	4681                	li	a3,0
    8bea:	4701                	li	a4,0
    8bec:	4781                	li	a5,0
    8bee:	4801                	li	a6,0
    8bf0:	8082                	ret

00008bf2 <signal>:
    8bf2:	20000737          	lui	a4,0x20000
    8bf6:	47fd                	li	a5,31
    8bf8:	6c872603          	lw	a2,1736(a4) # 200006c8 <_impure_ptr>
    8bfc:	00a7ef63          	bltu	a5,a0,8c1a <signal+0x28>
    8c00:	13862703          	lw	a4,312(a2)
    8c04:	c705                	beqz	a4,8c2c <signal+0x3a>
    8c06:	050a                	slli	a0,a0,0x2
    8c08:	972a                	add	a4,a4,a0
    8c0a:	4308                	lw	a0,0(a4)
    8c0c:	c30c                	sw	a1,0(a4)
    8c0e:	4581                	li	a1,0
    8c10:	4601                	li	a2,0
    8c12:	4681                	li	a3,0
    8c14:	4701                	li	a4,0
    8c16:	4781                	li	a5,0
    8c18:	8082                	ret
    8c1a:	47d9                	li	a5,22
    8c1c:	c21c                	sw	a5,0(a2)
    8c1e:	557d                	li	a0,-1
    8c20:	4581                	li	a1,0
    8c22:	4601                	li	a2,0
    8c24:	4681                	li	a3,0
    8c26:	4701                	li	a4,0
    8c28:	4781                	li	a5,0
    8c2a:	8082                	ret
    8c2c:	1101                	addi	sp,sp,-32
    8c2e:	cc22                	sw	s0,24(sp)
    8c30:	ce06                	sw	ra,28(sp)
    8c32:	1000                	addi	s0,sp,32
    8c34:	feb42223          	sw	a1,-28(s0)
    8c38:	fea42423          	sw	a0,-24(s0)
    8c3c:	08000593          	li	a1,128
    8c40:	8532                	mv	a0,a2
    8c42:	fec42623          	sw	a2,-20(s0)
    8c46:	88dfc0ef          	jal	54d2 <_malloc_r>
    8c4a:	fec42603          	lw	a2,-20(s0)
    8c4e:	872a                	mv	a4,a0
    8c50:	08050593          	addi	a1,a0,128
    8c54:	12a62c23          	sw	a0,312(a2)
    8c58:	fe842783          	lw	a5,-24(s0)
    8c5c:	862a                	mv	a2,a0
    8c5e:	fe442683          	lw	a3,-28(s0)
    8c62:	557d                	li	a0,-1
    8c64:	cb19                	beqz	a4,8c7a <signal+0x88>
    8c66:	00062023          	sw	zero,0(a2)
    8c6a:	0611                	addi	a2,a2,4
    8c6c:	fec59de3          	bne	a1,a2,8c66 <signal+0x74>
    8c70:	00279513          	slli	a0,a5,0x2
    8c74:	972a                	add	a4,a4,a0
    8c76:	4308                	lw	a0,0(a4)
    8c78:	c314                	sw	a3,0(a4)
    8c7a:	40f2                	lw	ra,28(sp)
    8c7c:	4462                	lw	s0,24(sp)
    8c7e:	6105                	addi	sp,sp,32
    8c80:	4581                	li	a1,0
    8c82:	4601                	li	a2,0
    8c84:	4681                	li	a3,0
    8c86:	4701                	li	a4,0
    8c88:	4781                	li	a5,0
    8c8a:	8082                	ret

00008c8c <_init_signal>:
    8c8c:	200007b7          	lui	a5,0x20000
    8c90:	6c87a783          	lw	a5,1736(a5) # 200006c8 <_impure_ptr>
    8c94:	1387a703          	lw	a4,312(a5)
    8c98:	c711                	beqz	a4,8ca4 <_init_signal+0x18>
    8c9a:	4501                	li	a0,0
    8c9c:	4581                	li	a1,0
    8c9e:	4701                	li	a4,0
    8ca0:	4781                	li	a5,0
    8ca2:	8082                	ret
    8ca4:	1101                	addi	sp,sp,-32
    8ca6:	cc22                	sw	s0,24(sp)
    8ca8:	ce06                	sw	ra,28(sp)
    8caa:	1000                	addi	s0,sp,32
    8cac:	853e                	mv	a0,a5
    8cae:	08000593          	li	a1,128
    8cb2:	fef42623          	sw	a5,-20(s0)
    8cb6:	81dfc0ef          	jal	54d2 <_malloc_r>
    8cba:	fec42783          	lw	a5,-20(s0)
    8cbe:	12a7ac23          	sw	a0,312(a5)
    8cc2:	c105                	beqz	a0,8ce2 <_init_signal+0x56>
    8cc4:	08050793          	addi	a5,a0,128
    8cc8:	00052023          	sw	zero,0(a0)
    8ccc:	0511                	addi	a0,a0,4
    8cce:	fef51de3          	bne	a0,a5,8cc8 <_init_signal+0x3c>
    8cd2:	4501                	li	a0,0
    8cd4:	40f2                	lw	ra,28(sp)
    8cd6:	4462                	lw	s0,24(sp)
    8cd8:	6105                	addi	sp,sp,32
    8cda:	4581                	li	a1,0
    8cdc:	4701                	li	a4,0
    8cde:	4781                	li	a5,0
    8ce0:	8082                	ret
    8ce2:	557d                	li	a0,-1
    8ce4:	bfc5                	j	8cd4 <_init_signal+0x48>

00008ce6 <__sigtramp>:
    8ce6:	47fd                	li	a5,31
    8ce8:	0aa7e963          	bltu	a5,a0,8d9a <__sigtramp+0xb4>
    8cec:	1101                	addi	sp,sp,-32
    8cee:	cc22                	sw	s0,24(sp)
    8cf0:	200007b7          	lui	a5,0x20000
    8cf4:	ce06                	sw	ra,28(sp)
    8cf6:	1000                	addi	s0,sp,32
    8cf8:	6c87a683          	lw	a3,1736(a5) # 200006c8 <_impure_ptr>
    8cfc:	872a                	mv	a4,a0
    8cfe:	1386a783          	lw	a5,312(a3)
    8d02:	c3a5                	beqz	a5,8d62 <__sigtramp+0x7c>
    8d04:	00271693          	slli	a3,a4,0x2
    8d08:	97b6                	add	a5,a5,a3
    8d0a:	4394                	lw	a3,0(a5)
    8d0c:	c68d                	beqz	a3,8d36 <__sigtramp+0x50>
    8d0e:	567d                	li	a2,-1
    8d10:	04c68763          	beq	a3,a2,8d5e <__sigtramp+0x78>
    8d14:	4605                	li	a2,1
    8d16:	02c68a63          	beq	a3,a2,8d4a <__sigtramp+0x64>
    8d1a:	853a                	mv	a0,a4
    8d1c:	0007a023          	sw	zero,0(a5)
    8d20:	9682                	jalr	a3
    8d22:	4501                	li	a0,0
    8d24:	40f2                	lw	ra,28(sp)
    8d26:	4462                	lw	s0,24(sp)
    8d28:	6105                	addi	sp,sp,32
    8d2a:	4581                	li	a1,0
    8d2c:	4601                	li	a2,0
    8d2e:	4681                	li	a3,0
    8d30:	4701                	li	a4,0
    8d32:	4781                	li	a5,0
    8d34:	8082                	ret
    8d36:	40f2                	lw	ra,28(sp)
    8d38:	4462                	lw	s0,24(sp)
    8d3a:	4505                	li	a0,1
    8d3c:	6105                	addi	sp,sp,32
    8d3e:	4581                	li	a1,0
    8d40:	4601                	li	a2,0
    8d42:	4681                	li	a3,0
    8d44:	4701                	li	a4,0
    8d46:	4781                	li	a5,0
    8d48:	8082                	ret
    8d4a:	40f2                	lw	ra,28(sp)
    8d4c:	4462                	lw	s0,24(sp)
    8d4e:	450d                	li	a0,3
    8d50:	6105                	addi	sp,sp,32
    8d52:	4581                	li	a1,0
    8d54:	4601                	li	a2,0
    8d56:	4681                	li	a3,0
    8d58:	4701                	li	a4,0
    8d5a:	4781                	li	a5,0
    8d5c:	8082                	ret
    8d5e:	4509                	li	a0,2
    8d60:	b7d1                	j	8d24 <__sigtramp+0x3e>
    8d62:	fea42423          	sw	a0,-24(s0)
    8d66:	08000593          	li	a1,128
    8d6a:	8536                	mv	a0,a3
    8d6c:	fed42623          	sw	a3,-20(s0)
    8d70:	f62fc0ef          	jal	54d2 <_malloc_r>
    8d74:	fec42683          	lw	a3,-20(s0)
    8d78:	87aa                	mv	a5,a0
    8d7a:	12a6ac23          	sw	a0,312(a3)
    8d7e:	cd01                	beqz	a0,8d96 <__sigtramp+0xb0>
    8d80:	fe842703          	lw	a4,-24(s0)
    8d84:	86aa                	mv	a3,a0
    8d86:	08050613          	addi	a2,a0,128
    8d8a:	0006a023          	sw	zero,0(a3)
    8d8e:	0691                	addi	a3,a3,4
    8d90:	fed61de3          	bne	a2,a3,8d8a <__sigtramp+0xa4>
    8d94:	bf85                	j	8d04 <__sigtramp+0x1e>
    8d96:	557d                	li	a0,-1
    8d98:	b771                	j	8d24 <__sigtramp+0x3e>
    8d9a:	557d                	li	a0,-1
    8d9c:	4581                	li	a1,0
    8d9e:	4601                	li	a2,0
    8da0:	4681                	li	a3,0
    8da2:	4701                	li	a4,0
    8da4:	4781                	li	a5,0
    8da6:	8082                	ret

00008da8 <_kill_r>:
    8da8:	1141                	addi	sp,sp,-16
    8daa:	87ae                	mv	a5,a1
    8dac:	c422                	sw	s0,8(sp)
    8dae:	c226                	sw	s1,4(sp)
    8db0:	c04a                	sw	s2,0(sp)
    8db2:	c606                	sw	ra,12(sp)
    8db4:	0800                	addi	s0,sp,16
    8db6:	85b2                	mv	a1,a2
    8db8:	892a                	mv	s2,a0
    8dba:	853e                	mv	a0,a5
    8dbc:	8801a823          	sw	zero,-1904(gp) # 20000750 <errno>
    8dc0:	2299                	jal	8f06 <_kill>
    8dc2:	57fd                	li	a5,-1
    8dc4:	00f50c63          	beq	a0,a5,8ddc <_kill_r+0x34>
    8dc8:	40b2                	lw	ra,12(sp)
    8dca:	4422                	lw	s0,8(sp)
    8dcc:	4492                	lw	s1,4(sp)
    8dce:	4902                	lw	s2,0(sp)
    8dd0:	0141                	addi	sp,sp,16
    8dd2:	4581                	li	a1,0
    8dd4:	4601                	li	a2,0
    8dd6:	4701                	li	a4,0
    8dd8:	4781                	li	a5,0
    8dda:	8082                	ret
    8ddc:	8901a783          	lw	a5,-1904(gp) # 20000750 <errno>
    8de0:	d7e5                	beqz	a5,8dc8 <_kill_r+0x20>
    8de2:	40b2                	lw	ra,12(sp)
    8de4:	4422                	lw	s0,8(sp)
    8de6:	00f92023          	sw	a5,0(s2)
    8dea:	4492                	lw	s1,4(sp)
    8dec:	4902                	lw	s2,0(sp)
    8dee:	0141                	addi	sp,sp,16
    8df0:	4581                	li	a1,0
    8df2:	4601                	li	a2,0
    8df4:	4701                	li	a4,0
    8df6:	4781                	li	a5,0
    8df8:	8082                	ret

00008dfa <_getpid_r>:
    8dfa:	1141                	addi	sp,sp,-16
    8dfc:	c422                	sw	s0,8(sp)
    8dfe:	c606                	sw	ra,12(sp)
    8e00:	0800                	addi	s0,sp,16
    8e02:	4422                	lw	s0,8(sp)
    8e04:	40b2                	lw	ra,12(sp)
    8e06:	0141                	addi	sp,sp,16
    8e08:	a85d                	j	8ebe <_getpid>

00008e0a <_close>:
    8e0a:	03900893          	li	a7,57
    8e0e:	00000073          	ecall
    8e12:	00054563          	bltz	a0,8e1c <_close+0x12>
    8e16:	4781                	li	a5,0
    8e18:	4881                	li	a7,0
    8e1a:	8082                	ret
    8e1c:	1101                	addi	sp,sp,-32
    8e1e:	cc22                	sw	s0,24(sp)
    8e20:	ce06                	sw	ra,28(sp)
    8e22:	1000                	addi	s0,sp,32
    8e24:	fea42623          	sw	a0,-20(s0)
    8e28:	ad9ff0ef          	jal	8900 <__errno>
    8e2c:	fec42783          	lw	a5,-20(s0)
    8e30:	40f2                	lw	ra,28(sp)
    8e32:	4462                	lw	s0,24(sp)
    8e34:	40f007b3          	neg	a5,a5
    8e38:	c11c                	sw	a5,0(a0)
    8e3a:	57fd                	li	a5,-1
    8e3c:	853e                	mv	a0,a5
    8e3e:	6105                	addi	sp,sp,32
    8e40:	4781                	li	a5,0
    8e42:	4881                	li	a7,0
    8e44:	8082                	ret

00008e46 <_exit>:
    8e46:	05d00893          	li	a7,93
    8e4a:	00000073          	ecall
    8e4e:	00054363          	bltz	a0,8e54 <_exit+0xe>
    8e52:	a001                	j	8e52 <_exit+0xc>
    8e54:	1101                	addi	sp,sp,-32
    8e56:	cc22                	sw	s0,24(sp)
    8e58:	ce06                	sw	ra,28(sp)
    8e5a:	1000                	addi	s0,sp,32
    8e5c:	fea42623          	sw	a0,-20(s0)
    8e60:	aa1ff0ef          	jal	8900 <__errno>
    8e64:	fec42783          	lw	a5,-20(s0)
    8e68:	40f007b3          	neg	a5,a5
    8e6c:	c11c                	sw	a5,0(a0)
    8e6e:	a001                	j	8e6e <_exit+0x28>

00008e70 <_fstat>:
    8e70:	7135                	addi	sp,sp,-160
    8e72:	cd22                	sw	s0,152(sp)
    8e74:	cf06                	sw	ra,156(sp)
    8e76:	1100                	addi	s0,sp,160
    8e78:	cb26                	sw	s1,148(sp)
    8e7a:	87ae                	mv	a5,a1
    8e7c:	05000893          	li	a7,80
    8e80:	f7040593          	addi	a1,s0,-144
    8e84:	00000073          	ecall
    8e88:	84aa                	mv	s1,a0
    8e8a:	00054f63          	bltz	a0,8ea8 <_fstat+0x38>
    8e8e:	f7040593          	addi	a1,s0,-144
    8e92:	853e                	mv	a0,a5
    8e94:	2a19                	jal	8faa <_conv_stat>
    8e96:	40fa                	lw	ra,156(sp)
    8e98:	446a                	lw	s0,152(sp)
    8e9a:	8526                	mv	a0,s1
    8e9c:	44da                	lw	s1,148(sp)
    8e9e:	610d                	addi	sp,sp,160
    8ea0:	4581                	li	a1,0
    8ea2:	4781                	li	a5,0
    8ea4:	4881                	li	a7,0
    8ea6:	8082                	ret
    8ea8:	f6f42623          	sw	a5,-148(s0)
    8eac:	409004b3          	neg	s1,s1
    8eb0:	a51ff0ef          	jal	8900 <__errno>
    8eb4:	c104                	sw	s1,0(a0)
    8eb6:	f6c42783          	lw	a5,-148(s0)
    8eba:	54fd                	li	s1,-1
    8ebc:	bfc9                	j	8e8e <_fstat+0x1e>

00008ebe <_getpid>:
    8ebe:	1141                	addi	sp,sp,-16
    8ec0:	c422                	sw	s0,8(sp)
    8ec2:	c606                	sw	ra,12(sp)
    8ec4:	0800                	addi	s0,sp,16
    8ec6:	40b2                	lw	ra,12(sp)
    8ec8:	4422                	lw	s0,8(sp)
    8eca:	4505                	li	a0,1
    8ecc:	0141                	addi	sp,sp,16
    8ece:	8082                	ret

00008ed0 <_isatty>:
    8ed0:	7159                	addi	sp,sp,-112
    8ed2:	d4a2                	sw	s0,104(sp)
    8ed4:	1880                	addi	s0,sp,112
    8ed6:	d686                	sw	ra,108(sp)
    8ed8:	f9840593          	addi	a1,s0,-104
    8edc:	3f51                	jal	8e70 <_fstat>
    8ede:	57fd                	li	a5,-1
    8ee0:	00f50c63          	beq	a0,a5,8ef8 <_isatty+0x28>
    8ee4:	f9c42503          	lw	a0,-100(s0)
    8ee8:	50b6                	lw	ra,108(sp)
    8eea:	5426                	lw	s0,104(sp)
    8eec:	8135                	srli	a0,a0,0xd
    8eee:	8905                	andi	a0,a0,1
    8ef0:	6165                	addi	sp,sp,112
    8ef2:	4581                	li	a1,0
    8ef4:	4781                	li	a5,0
    8ef6:	8082                	ret
    8ef8:	50b6                	lw	ra,108(sp)
    8efa:	5426                	lw	s0,104(sp)
    8efc:	4501                	li	a0,0
    8efe:	6165                	addi	sp,sp,112
    8f00:	4581                	li	a1,0
    8f02:	4781                	li	a5,0
    8f04:	8082                	ret

00008f06 <_kill>:
    8f06:	1141                	addi	sp,sp,-16
    8f08:	c422                	sw	s0,8(sp)
    8f0a:	c606                	sw	ra,12(sp)
    8f0c:	0800                	addi	s0,sp,16
    8f0e:	9f3ff0ef          	jal	8900 <__errno>
    8f12:	40b2                	lw	ra,12(sp)
    8f14:	4422                	lw	s0,8(sp)
    8f16:	47d9                	li	a5,22
    8f18:	c11c                	sw	a5,0(a0)
    8f1a:	557d                	li	a0,-1
    8f1c:	0141                	addi	sp,sp,16
    8f1e:	4781                	li	a5,0
    8f20:	8082                	ret

00008f22 <_lseek>:
    8f22:	03e00893          	li	a7,62
    8f26:	00000073          	ecall
    8f2a:	00054763          	bltz	a0,8f38 <_lseek+0x16>
    8f2e:	4581                	li	a1,0
    8f30:	4601                	li	a2,0
    8f32:	4781                	li	a5,0
    8f34:	4881                	li	a7,0
    8f36:	8082                	ret
    8f38:	1101                	addi	sp,sp,-32
    8f3a:	cc22                	sw	s0,24(sp)
    8f3c:	ce06                	sw	ra,28(sp)
    8f3e:	1000                	addi	s0,sp,32
    8f40:	fea42623          	sw	a0,-20(s0)
    8f44:	9bdff0ef          	jal	8900 <__errno>
    8f48:	fec42783          	lw	a5,-20(s0)
    8f4c:	40f2                	lw	ra,28(sp)
    8f4e:	4462                	lw	s0,24(sp)
    8f50:	40f007b3          	neg	a5,a5
    8f54:	c11c                	sw	a5,0(a0)
    8f56:	57fd                	li	a5,-1
    8f58:	853e                	mv	a0,a5
    8f5a:	6105                	addi	sp,sp,32
    8f5c:	4581                	li	a1,0
    8f5e:	4601                	li	a2,0
    8f60:	4781                	li	a5,0
    8f62:	4881                	li	a7,0
    8f64:	8082                	ret

00008f66 <_read>:
    8f66:	03f00893          	li	a7,63
    8f6a:	00000073          	ecall
    8f6e:	00054763          	bltz	a0,8f7c <_read+0x16>
    8f72:	4581                	li	a1,0
    8f74:	4601                	li	a2,0
    8f76:	4781                	li	a5,0
    8f78:	4881                	li	a7,0
    8f7a:	8082                	ret
    8f7c:	1101                	addi	sp,sp,-32
    8f7e:	cc22                	sw	s0,24(sp)
    8f80:	ce06                	sw	ra,28(sp)
    8f82:	1000                	addi	s0,sp,32
    8f84:	fea42623          	sw	a0,-20(s0)
    8f88:	979ff0ef          	jal	8900 <__errno>
    8f8c:	fec42783          	lw	a5,-20(s0)
    8f90:	40f2                	lw	ra,28(sp)
    8f92:	4462                	lw	s0,24(sp)
    8f94:	40f007b3          	neg	a5,a5
    8f98:	c11c                	sw	a5,0(a0)
    8f9a:	57fd                	li	a5,-1
    8f9c:	853e                	mv	a0,a5
    8f9e:	6105                	addi	sp,sp,32
    8fa0:	4581                	li	a1,0
    8fa2:	4601                	li	a2,0
    8fa4:	4781                	li	a5,0
    8fa6:	4881                	li	a7,0
    8fa8:	8082                	ret

00008faa <_conv_stat>:
    8faa:	1141                	addi	sp,sp,-16
    8fac:	c422                	sw	s0,8(sp)
    8fae:	c226                	sw	s1,4(sp)
    8fb0:	c606                	sw	ra,12(sp)
    8fb2:	0800                	addi	s0,sp,16
    8fb4:	4198                	lw	a4,0(a1)
    8fb6:	459c                	lw	a5,8(a1)
    8fb8:	4984                	lw	s1,16(a1)
    8fba:	0145a383          	lw	t2,20(a1)
    8fbe:	0185a283          	lw	t0,24(a1)
    8fc2:	01c5af83          	lw	t6,28(a1)
    8fc6:	0205af03          	lw	t5,32(a1)
    8fca:	0305ae83          	lw	t4,48(a1)
    8fce:	0405ae03          	lw	t3,64(a1)
    8fd2:	0385a303          	lw	t1,56(a1)
    8fd6:	0485a803          	lw	a6,72(a1)
    8fda:	04c5a883          	lw	a7,76(a1)
    8fde:	4db0                	lw	a2,88(a1)
    8fe0:	4df4                	lw	a3,92(a1)
    8fe2:	00e51023          	sh	a4,0(a0)
    8fe6:	00f51123          	sh	a5,2(a0)
    8fea:	55b8                	lw	a4,104(a1)
    8fec:	55fc                	lw	a5,108(a1)
    8fee:	c144                	sw	s1,4(a0)
    8ff0:	00751423          	sh	t2,8(a0)
    8ff4:	00551523          	sh	t0,10(a0)
    8ff8:	01f51623          	sh	t6,12(a0)
    8ffc:	01e51723          	sh	t5,14(a0)
    9000:	01d52823          	sw	t4,16(a0)
    9004:	05c52623          	sw	t3,76(a0)
    9008:	04652423          	sw	t1,72(a0)
    900c:	01052c23          	sw	a6,24(a0)
    9010:	01152e23          	sw	a7,28(a0)
    9014:	40b2                	lw	ra,12(sp)
    9016:	4422                	lw	s0,8(sp)
    9018:	d510                	sw	a2,40(a0)
    901a:	d554                	sw	a3,44(a0)
    901c:	dd18                	sw	a4,56(a0)
    901e:	dd5c                	sw	a5,60(a0)
    9020:	4492                	lw	s1,4(sp)
    9022:	0141                	addi	sp,sp,16
    9024:	4281                	li	t0,0
    9026:	4301                	li	t1,0
    9028:	4381                	li	t2,0
    902a:	4501                	li	a0,0
    902c:	4581                	li	a1,0
    902e:	4601                	li	a2,0
    9030:	4681                	li	a3,0
    9032:	4701                	li	a4,0
    9034:	4781                	li	a5,0
    9036:	4801                	li	a6,0
    9038:	4881                	li	a7,0
    903a:	4e01                	li	t3,0
    903c:	4e81                	li	t4,0
    903e:	4f01                	li	t5,0
    9040:	4f81                	li	t6,0
    9042:	8082                	ret

00009044 <__trunctfdf2>:
    9044:	7139                	addi	sp,sp,-64
    9046:	4110                	lw	a2,0(a0)
    9048:	414c                	lw	a1,4(a0)
    904a:	4518                	lw	a4,8(a0)
    904c:	455c                	lw	a5,12(a0)
    904e:	00202373          	frrm	t1
    9052:	01079693          	slli	a3,a5,0x10
    9056:	01f7d813          	srli	a6,a5,0x1f
    905a:	82c1                	srli	a3,a3,0x10
    905c:	cc3a                	sw	a4,24(sp)
    905e:	d43a                	sw	a4,40(sp)
    9060:	00179713          	slli	a4,a5,0x1
    9064:	ce3e                	sw	a5,28(sp)
    9066:	c832                	sw	a2,16(sp)
    9068:	ca2e                	sw	a1,20(sp)
    906a:	d22e                	sw	a1,36(sp)
    906c:	d032                	sw	a2,32(sp)
    906e:	d636                	sw	a3,44(sp)
    9070:	01175513          	srli	a0,a4,0x11
    9074:	8e42                	mv	t3,a6
    9076:	02010893          	addi	a7,sp,32
    907a:	107c                	addi	a5,sp,44
    907c:	00369593          	slli	a1,a3,0x3
    9080:	ffc7a683          	lw	a3,-4(a5)
    9084:	17f1                	addi	a5,a5,-4
    9086:	01d6d713          	srli	a4,a3,0x1d
    908a:	8f4d                	or	a4,a4,a1
    908c:	c3d8                	sw	a4,4(a5)
    908e:	fef897e3          	bne	a7,a5,907c <__trunctfdf2+0x38>
    9092:	6721                	lui	a4,0x8
    9094:	060e                	slli	a2,a2,0x3
    9096:	1779                	addi	a4,a4,-2 # 7ffe <_vfiprintf_r+0x90e>
    9098:	00150593          	addi	a1,a0,1
    909c:	d032                	sw	a2,32(sp)
    909e:	8df9                	and	a1,a1,a4
    90a0:	66a1                	lui	a3,0x8
    90a2:	cd85                	beqz	a1,90da <__trunctfdf2+0x96>
    90a4:	7771                	lui	a4,0xffffc
    90a6:	40070713          	addi	a4,a4,1024 # ffffc400 <_eusrstack+0xdfff4400>
    90aa:	972a                	add	a4,a4,a0
    90ac:	7fe00693          	li	a3,2046
    90b0:	0ce6d063          	bge	a3,a4,9170 <__trunctfdf2+0x12c>
    90b4:	30030b63          	beqz	t1,93ca <__trunctfdf2+0x386>
    90b8:	ffd30793          	addi	a5,t1,-3
    90bc:	2a079263          	bnez	a5,9360 <__trunctfdf2+0x31c>
    90c0:	2a081063          	bnez	a6,9360 <__trunctfdf2+0x31c>
    90c4:	4601                	li	a2,0
    90c6:	7ff006b7          	lui	a3,0x7ff00
    90ca:	c432                	sw	a2,8(sp)
    90cc:	c636                	sw	a3,12(sp)
    90ce:	2522                	fld	fa0,8(sp)
    90d0:	4e15                	li	t3,5
    90d2:	001e2073          	csrs	fflags,t3
    90d6:	6121                	addi	sp,sp,64
    90d8:	8082                	ret
    90da:	5e12                	lw	t3,36(sp)
    90dc:	58a2                	lw	a7,40(sp)
    90de:	5732                	lw	a4,44(sp)
    90e0:	01c8e7b3          	or	a5,a7,t3
    90e4:	8fd9                	or	a5,a5,a4
    90e6:	8fd1                	or	a5,a5,a2
    90e8:	ed01                	bnez	a0,9100 <__trunctfdf2+0xbc>
    90ea:	eff9                	bnez	a5,91c8 <__trunctfdf2+0x184>
    90ec:	4701                	li	a4,0
    90ee:	4781                	li	a5,0
    90f0:	087e                	slli	a6,a6,0x1f
    90f2:	00e866b3          	or	a3,a6,a4
    90f6:	c43e                	sw	a5,8(sp)
    90f8:	c636                	sw	a3,12(sp)
    90fa:	2522                	fld	fa0,8(sp)
    90fc:	6121                	addi	sp,sp,64
    90fe:	8082                	ret
    9100:	2a078b63          	beqz	a5,93b6 <__trunctfdf2+0x372>
    9104:	16fd                	addi	a3,a3,-1 # 7fefffff <_eusrstack+0x5fef7fff>
    9106:	00d51863          	bne	a0,a3,9116 <__trunctfdf2+0xd2>
    910a:	01275593          	srli	a1,a4,0x12
    910e:	8985                	andi	a1,a1,1
    9110:	0015c593          	xori	a1,a1,1
    9114:	0592                	slli	a1,a1,0x4
    9116:	00471793          	slli	a5,a4,0x4
    911a:	01c8d713          	srli	a4,a7,0x1c
    911e:	8f5d                	or	a4,a4,a5
    9120:	00800537          	lui	a0,0x800
    9124:	8d79                	and	a0,a0,a4
    9126:	24050d63          	beqz	a0,9380 <__trunctfdf2+0x33c>
    912a:	ff8006b7          	lui	a3,0xff800
    912e:	16fd                	addi	a3,a3,-1 # ff7fffff <_eusrstack+0xdf7f7fff>
    9130:	01ce5793          	srli	a5,t3,0x1c
    9134:	0892                	slli	a7,a7,0x4
    9136:	8f75                	and	a4,a4,a3
    9138:	0117e7b3          	or	a5,a5,a7
    913c:	004006b7          	lui	a3,0x400
    9140:	8ed9                	or	a3,a3,a4
    9142:	9be1                	andi	a5,a5,-8
    9144:	4701                	li	a4,0
    9146:	838d                	srli	a5,a5,0x3
    9148:	01d69513          	slli	a0,a3,0x1d
    914c:	00969613          	slli	a2,a3,0x9
    9150:	8d5d                	or	a0,a0,a5
    9152:	00c65793          	srli	a5,a2,0xc
    9156:	0752                	slli	a4,a4,0x14
    9158:	8f5d                	or	a4,a4,a5
    915a:	087e                	slli	a6,a6,0x1f
    915c:	010766b3          	or	a3,a4,a6
    9160:	c42a                	sw	a0,8(sp)
    9162:	c636                	sw	a3,12(sp)
    9164:	2522                	fld	fa0,8(sp)
    9166:	d9d9                	beqz	a1,90fc <__trunctfdf2+0xb8>
    9168:	8e2e                	mv	t3,a1
    916a:	001e2073          	csrs	fflags,t3
    916e:	b7a5                	j	90d6 <__trunctfdf2+0x92>
    9170:	08e05b63          	blez	a4,9206 <__trunctfdf2+0x1c2>
    9174:	5692                	lw	a3,36(sp)
    9176:	55a2                	lw	a1,40(sp)
    9178:	58b2                	lw	a7,44(sp)
    917a:	00469793          	slli	a5,a3,0x4
    917e:	8fd1                	or	a5,a5,a2
    9180:	82f1                	srli	a3,a3,0x1c
    9182:	00459613          	slli	a2,a1,0x4
    9186:	8ed1                	or	a3,a3,a2
    9188:	00f037b3          	snez	a5,a5
    918c:	8fd5                	or	a5,a5,a3
    918e:	81f1                	srli	a1,a1,0x1c
    9190:	00489613          	slli	a2,a7,0x4
    9194:	0077f693          	andi	a3,a5,7
    9198:	8e4d                	or	a2,a2,a1
    919a:	16069263          	bnez	a3,92fe <__trunctfdf2+0x2ba>
    919e:	00861693          	slli	a3,a2,0x8
    91a2:	3c06db63          	bgez	a3,9578 <__trunctfdf2+0x534>
    91a6:	7e71                	lui	t3,0xffffc
    91a8:	401e0e13          	addi	t3,t3,1025 # ffffc401 <_eusrstack+0xdfff4401>
    91ac:	9e2a                	add	t3,t3,a0
    91ae:	7ff00713          	li	a4,2047
    91b2:	4581                	li	a1,0
    91b4:	12ee1e63          	bne	t3,a4,92f0 <__trunctfdf2+0x2ac>
    91b8:	18031963          	bnez	t1,934a <__trunctfdf2+0x306>
    91bc:	7ff00793          	li	a5,2047
    91c0:	4601                	li	a2,0
    91c2:	4e15                	li	t3,5
    91c4:	4701                	li	a4,0
    91c6:	a02d                	j	91f0 <__trunctfdf2+0x1ac>
    91c8:	4789                	li	a5,2
    91ca:	30f30563          	beq	t1,a5,94d4 <__trunctfdf2+0x490>
    91ce:	478d                	li	a5,3
    91d0:	2ef30d63          	beq	t1,a5,94ca <__trunctfdf2+0x486>
    91d4:	4795                	li	a5,5
    91d6:	4601                	li	a2,0
    91d8:	2a031463          	bnez	t1,9480 <__trunctfdf2+0x43c>
    91dc:	838d                	srli	a5,a5,0x3
    91de:	01d61713          	slli	a4,a2,0x1d
    91e2:	8f5d                	or	a4,a4,a5
    91e4:	00961793          	slli	a5,a2,0x9
    91e8:	00c7d613          	srli	a2,a5,0xc
    91ec:	4e0d                	li	t3,3
    91ee:	4781                	li	a5,0
    91f0:	07d2                	slli	a5,a5,0x14
    91f2:	8fd1                	or	a5,a5,a2
    91f4:	087e                	slli	a6,a6,0x1f
    91f6:	0107e6b3          	or	a3,a5,a6
    91fa:	c43a                	sw	a4,8(sp)
    91fc:	c636                	sw	a3,12(sp)
    91fe:	2522                	fld	fa0,8(sp)
    9200:	001e2073          	csrs	fflags,t3
    9204:	bdc9                	j	90d6 <__trunctfdf2+0x92>
    9206:	fcc00693          	li	a3,-52
    920a:	18d74163          	blt	a4,a3,938c <__trunctfdf2+0x348>
    920e:	03d00693          	li	a3,61
    9212:	40e68733          	sub	a4,a3,a4
    9216:	5fb2                	lw	t6,44(sp)
    9218:	40575613          	srai	a2,a4,0x5
    921c:	000806b7          	lui	a3,0x80
    9220:	00261293          	slli	t0,a2,0x2
    9224:	00dfefb3          	or	t6,t6,a3
    9228:	005885b3          	add	a1,a7,t0
    922c:	8b7d                	andi	a4,a4,31
    922e:	8eae                	mv	t4,a1
    9230:	d67e                	sw	t6,44(sp)
    9232:	86c6                	mv	a3,a7
    9234:	4f01                	li	t5,0
    9236:	4288                	lw	a0,0(a3)
    9238:	0691                	addi	a3,a3,4 # 80004 <_data_lma+0x74ff0>
    923a:	00af6f33          	or	t5,t5,a0
    923e:	fed59ce3          	bne	a1,a3,9236 <__trunctfdf2+0x1f2>
    9242:	450d                	li	a0,3
    9244:	40c506b3          	sub	a3,a0,a2
    9248:	18071e63          	bnez	a4,93e4 <__trunctfdf2+0x3a0>
    924c:	418c                	lw	a1,0(a1)
    924e:	0705                	addi	a4,a4,1
    9250:	0791                	addi	a5,a5,4
    9252:	feb7ae23          	sw	a1,-4(a5)
    9256:	00e6cb63          	blt	a3,a4,926c <__trunctfdf2+0x228>
    925a:	005785b3          	add	a1,a5,t0
    925e:	418c                	lw	a1,0(a1)
    9260:	0705                	addi	a4,a4,1
    9262:	0791                	addi	a5,a5,4
    9264:	feb7ae23          	sw	a1,-4(a5)
    9268:	fee6d9e3          	bge	a3,a4,925a <__trunctfdf2+0x216>
    926c:	4791                	li	a5,4
    926e:	40c78633          	sub	a2,a5,a2
    9272:	4711                	li	a4,4
    9274:	8f11                	sub	a4,a4,a2
    9276:	070a                	slli	a4,a4,0x2
    9278:	060a                	slli	a2,a2,0x2
    927a:	46a1                	li	a3,8
    927c:	00c887b3          	add	a5,a7,a2
    9280:	00d76863          	bltu	a4,a3,9290 <__trunctfdf2+0x24c>
    9284:	0007a023          	sw	zero,0(a5)
    9288:	0007a223          	sw	zero,4(a5)
    928c:	1761                	addi	a4,a4,-8
    928e:	97b6                	add	a5,a5,a3
    9290:	4691                	li	a3,4
    9292:	00d76463          	bltu	a4,a3,929a <__trunctfdf2+0x256>
    9296:	0007a023          	sw	zero,0(a5)
    929a:	5702                	lw	a4,32(sp)
    929c:	5612                	lw	a2,36(sp)
    929e:	01e037b3          	snez	a5,t5
    92a2:	8fd9                	or	a5,a5,a4
    92a4:	00c7e733          	or	a4,a5,a2
    92a8:	e40702e3          	beqz	a4,90ec <__trunctfdf2+0xa8>
    92ac:	00179593          	slli	a1,a5,0x1
    92b0:	00161693          	slli	a3,a2,0x1
    92b4:	01f7d713          	srli	a4,a5,0x1f
    92b8:	0075f513          	andi	a0,a1,7
    92bc:	9736                	add	a4,a4,a3
    92be:	0077f693          	andi	a3,a5,7
    92c2:	e971                	bnez	a0,9396 <__trunctfdf2+0x352>
    92c4:	00771593          	slli	a1,a4,0x7
    92c8:	1c05c963          	bltz	a1,949a <__trunctfdf2+0x456>
    92cc:	1a068c63          	beqz	a3,9484 <__trunctfdf2+0x440>
    92d0:	470d                	li	a4,3
    92d2:	2ce30a63          	beq	t1,a4,95a6 <__trunctfdf2+0x562>
    92d6:	00674763          	blt	a4,t1,92e4 <__trunctfdf2+0x2a0>
    92da:	2a030a63          	beqz	t1,958e <__trunctfdf2+0x54a>
    92de:	4709                	li	a4,2
    92e0:	28e30e63          	beq	t1,a4,957c <__trunctfdf2+0x538>
    92e4:	00861713          	slli	a4,a2,0x8
    92e8:	458d                	li	a1,3
    92ea:	4e05                	li	t3,1
    92ec:	ee0758e3          	bgez	a4,91dc <__trunctfdf2+0x198>
    92f0:	ff8006b7          	lui	a3,0xff800
    92f4:	16fd                	addi	a3,a3,-1 # ff7fffff <_eusrstack+0xdf7f7fff>
    92f6:	7ffe7713          	andi	a4,t3,2047
    92fa:	8ef1                	and	a3,a3,a2
    92fc:	b5a9                	j	9146 <__trunctfdf2+0x102>
    92fe:	4689                	li	a3,2
    9300:	1ed30263          	beq	t1,a3,94e4 <__trunctfdf2+0x4a0>
    9304:	468d                	li	a3,3
    9306:	02d30563          	beq	t1,a3,9330 <__trunctfdf2+0x2ec>
    930a:	12030863          	beqz	t1,943a <__trunctfdf2+0x3f6>
    930e:	4585                	li	a1,1
    9310:	00861693          	slli	a3,a2,0x8
    9314:	1e06d563          	bgez	a3,94fe <__trunctfdf2+0x4ba>
    9318:	00170e13          	addi	t3,a4,1
    931c:	7ff00713          	li	a4,2047
    9320:	fcee18e3          	bne	t3,a4,92f0 <__trunctfdf2+0x2ac>
    9324:	7ff007b7          	lui	a5,0x7ff00
    9328:	087e                	slli	a6,a6,0x1f
    932a:	17fd                	addi	a5,a5,-1 # 7fefffff <_eusrstack+0x5fef7fff>
    932c:	567d                	li	a2,-1
    932e:	a055                	j	93d2 <__trunctfdf2+0x38e>
    9330:	4585                	li	a1,1
    9332:	1a080c63          	beqz	a6,94ea <__trunctfdf2+0x4a6>
    9336:	00861693          	slli	a3,a2,0x8
    933a:	1c06d263          	bgez	a3,94fe <__trunctfdf2+0x4ba>
    933e:	00170e13          	addi	t3,a4,1
    9342:	7ff00713          	li	a4,2047
    9346:	faee15e3          	bne	t3,a4,92f0 <__trunctfdf2+0x2ac>
    934a:	ffd30793          	addi	a5,t1,-3
    934e:	e399                	bnez	a5,9354 <__trunctfdf2+0x310>
    9350:	e60806e3          	beqz	a6,91bc <__trunctfdf2+0x178>
    9354:	1379                	addi	t1,t1,-2
    9356:	fc0317e3          	bnez	t1,9324 <__trunctfdf2+0x2e0>
    935a:	e60811e3          	bnez	a6,91bc <__trunctfdf2+0x178>
    935e:	b7d9                	j	9324 <__trunctfdf2+0x2e0>
    9360:	ffe30793          	addi	a5,t1,-2
    9364:	10079263          	bnez	a5,9468 <__trunctfdf2+0x424>
    9368:	10080063          	beqz	a6,9468 <__trunctfdf2+0x424>
    936c:	4601                	li	a2,0
    936e:	fff006b7          	lui	a3,0xfff00
    9372:	c432                	sw	a2,8(sp)
    9374:	c636                	sw	a3,12(sp)
    9376:	2522                	fld	fa0,8(sp)
    9378:	4e15                	li	t3,5
    937a:	001e2073          	csrs	fflags,t3
    937e:	bba1                	j	90d6 <__trunctfdf2+0x92>
    9380:	4801                	li	a6,0
    9382:	7ff00713          	li	a4,2047
    9386:	000807b7          	lui	a5,0x80
    938a:	b3f1                	j	9156 <__trunctfdf2+0x112>
    938c:	4785                	li	a5,1
    938e:	86be                	mv	a3,a5
    9390:	4601                	li	a2,0
    9392:	4589                	li	a1,2
    9394:	4701                	li	a4,0
    9396:	4509                	li	a0,2
    9398:	22a30063          	beq	t1,a0,95b8 <__trunctfdf2+0x574>
    939c:	450d                	li	a0,3
    939e:	28a30263          	beq	t1,a0,9622 <__trunctfdf2+0x5de>
    93a2:	24030663          	beqz	t1,95ee <__trunctfdf2+0x5aa>
    93a6:	00771593          	slli	a1,a4,0x7
    93aa:	2205d563          	bgez	a1,95d4 <__trunctfdf2+0x590>
    93ae:	4585                	li	a1,1
    93b0:	caed                	beqz	a3,94a2 <__trunctfdf2+0x45e>
    93b2:	4701                	li	a4,0
    93b4:	bfa9                	j	930e <__trunctfdf2+0x2ca>
    93b6:	087e                	slli	a6,a6,0x1f
    93b8:	7ff007b7          	lui	a5,0x7ff00
    93bc:	4601                	li	a2,0
    93be:	00f866b3          	or	a3,a6,a5
    93c2:	c432                	sw	a2,8(sp)
    93c4:	c636                	sw	a3,12(sp)
    93c6:	2522                	fld	fa0,8(sp)
    93c8:	bb15                	j	90fc <__trunctfdf2+0xb8>
    93ca:	087e                	slli	a6,a6,0x1f
    93cc:	4601                	li	a2,0
    93ce:	7ff007b7          	lui	a5,0x7ff00
    93d2:	00f866b3          	or	a3,a6,a5
    93d6:	c432                	sw	a2,8(sp)
    93d8:	c636                	sw	a3,12(sp)
    93da:	2522                	fld	fa0,8(sp)
    93dc:	4e15                	li	t3,5
    93de:	001e2073          	csrs	fflags,t3
    93e2:	b9d5                	j	90d6 <__trunctfdf2+0x92>
    93e4:	92c6                	add	t0,t0,a7
    93e6:	0002a583          	lw	a1,0(t0)
    93ea:	02000293          	li	t0,32
    93ee:	40e282b3          	sub	t0,t0,a4
    93f2:	005595b3          	sll	a1,a1,t0
    93f6:	00bf6f33          	or	t5,t5,a1
    93fa:	12a60763          	beq	a2,a0,9528 <__trunctfdf2+0x4e4>
    93fe:	de22                	sw	s0,60(sp)
    9400:	4381                	li	t2,0
    9402:	000ea583          	lw	a1,0(t4)
    9406:	004ea503          	lw	a0,4(t4)
    940a:	00138413          	addi	s0,t2,1
    940e:	00e5d5b3          	srl	a1,a1,a4
    9412:	00551533          	sll	a0,a0,t0
    9416:	8dc9                	or	a1,a1,a0
    9418:	c38c                	sw	a1,0(a5)
    941a:	0e91                	addi	t4,t4,4
    941c:	0791                	addi	a5,a5,4 # 7ff00004 <_eusrstack+0x5fef8004>
    941e:	4385                	li	t2,1
    9420:	fed441e3          	blt	s0,a3,9402 <__trunctfdf2+0x3be>
    9424:	5472                	lw	s0,60(sp)
    9426:	4791                	li	a5,4
    9428:	40c78633          	sub	a2,a5,a2
    942c:	068a                	slli	a3,a3,0x2
    942e:	96c6                	add	a3,a3,a7
    9430:	00efdfb3          	srl	t6,t6,a4
    9434:	01f6a023          	sw	t6,0(a3) # fff00000 <_eusrstack+0xdfef8000>
    9438:	bd2d                	j	9272 <__trunctfdf2+0x22e>
    943a:	00f7f693          	andi	a3,a5,15
    943e:	4591                	li	a1,4
    9440:	16b68663          	beq	a3,a1,95ac <__trunctfdf2+0x568>
    9444:	00b786b3          	add	a3,a5,a1
    9448:	00f6b7b3          	sltu	a5,a3,a5
    944c:	963e                	add	a2,a2,a5
    944e:	87b6                	mv	a5,a3
    9450:	00861693          	slli	a3,a2,0x8
    9454:	1006d363          	bgez	a3,955a <__trunctfdf2+0x516>
    9458:	00170e13          	addi	t3,a4,1
    945c:	7ff00713          	li	a4,2047
    9460:	4585                	li	a1,1
    9462:	d4ee0de3          	beq	t3,a4,91bc <__trunctfdf2+0x178>
    9466:	b569                	j	92f0 <__trunctfdf2+0x2ac>
    9468:	4789                	li	a5,2
    946a:	0ef30f63          	beq	t1,a5,9568 <__trunctfdf2+0x524>
    946e:	478d                	li	a5,3
    9470:	567d                	li	a2,-1
    9472:	0ef30663          	beq	t1,a5,955e <__trunctfdf2+0x51a>
    9476:	87b2                	mv	a5,a2
    9478:	7fe00713          	li	a4,2046
    947c:	4595                	li	a1,5
    947e:	bd49                	j	9310 <__trunctfdf2+0x2cc>
    9480:	4785                	li	a5,1
    9482:	bba9                	j	91dc <__trunctfdf2+0x198>
    9484:	00861713          	slli	a4,a2,0x8
    9488:	02075763          	bgez	a4,94b6 <__trunctfdf2+0x472>
    948c:	ff8006b7          	lui	a3,0xff800
    9490:	16fd                	addi	a3,a3,-1 # ff7fffff <_eusrstack+0xdf7f7fff>
    9492:	8ef1                	and	a3,a3,a2
    9494:	4705                	li	a4,1
    9496:	4581                	li	a1,0
    9498:	b17d                	j	9146 <__trunctfdf2+0x102>
    949a:	4701                	li	a4,0
    949c:	e60691e3          	bnez	a3,92fe <__trunctfdf2+0x2ba>
    94a0:	4581                	li	a1,0
    94a2:	00861713          	slli	a4,a2,0x8
    94a6:	06075763          	bgez	a4,9514 <__trunctfdf2+0x4d0>
    94aa:	ff8006b7          	lui	a3,0xff800
    94ae:	16fd                	addi	a3,a3,-1 # ff7fffff <_eusrstack+0xdf7f7fff>
    94b0:	8ef1                	and	a3,a3,a2
    94b2:	4705                	li	a4,1
    94b4:	b949                	j	9146 <__trunctfdf2+0x102>
    94b6:	0037d713          	srli	a4,a5,0x3
    94ba:	00961693          	slli	a3,a2,0x9
    94be:	01d61793          	slli	a5,a2,0x1d
    94c2:	8fd9                	or	a5,a5,a4
    94c4:	00c6d713          	srli	a4,a3,0xc
    94c8:	b125                	j	90f0 <__trunctfdf2+0xac>
    94ca:	00080a63          	beqz	a6,94de <__trunctfdf2+0x49a>
    94ce:	4601                	li	a2,0
    94d0:	4785                	li	a5,1
    94d2:	bd09                	j	92e4 <__trunctfdf2+0x2a0>
    94d4:	00081563          	bnez	a6,94de <__trunctfdf2+0x49a>
    94d8:	4785                	li	a5,1
    94da:	4601                	li	a2,0
    94dc:	b301                	j	91dc <__trunctfdf2+0x198>
    94de:	47a5                	li	a5,9
    94e0:	4601                	li	a2,0
    94e2:	b9ed                	j	91dc <__trunctfdf2+0x198>
    94e4:	4585                	li	a1,1
    94e6:	e40808e3          	beqz	a6,9336 <__trunctfdf2+0x2f2>
    94ea:	00878693          	addi	a3,a5,8
    94ee:	00f6b7b3          	sltu	a5,a3,a5
    94f2:	963e                	add	a2,a2,a5
    94f4:	87b6                	mv	a5,a3
    94f6:	00861693          	slli	a3,a2,0x8
    94fa:	e406c2e3          	bltz	a3,933e <__trunctfdf2+0x2fa>
    94fe:	838d                	srli	a5,a5,0x3
    9500:	01d61513          	slli	a0,a2,0x1d
    9504:	00961693          	slli	a3,a2,0x9
    9508:	8d5d                	or	a0,a0,a5
    950a:	7ff77713          	andi	a4,a4,2047
    950e:	00c6d793          	srli	a5,a3,0xc
    9512:	b191                	j	9156 <__trunctfdf2+0x112>
    9514:	838d                	srli	a5,a5,0x3
    9516:	00961713          	slli	a4,a2,0x9
    951a:	01d61513          	slli	a0,a2,0x1d
    951e:	8d5d                	or	a0,a0,a5
    9520:	00c75793          	srli	a5,a4,0xc
    9524:	4701                	li	a4,0
    9526:	b905                	j	9156 <__trunctfdf2+0x112>
    9528:	4605                	li	a2,1
    952a:	4681                	li	a3,0
    952c:	b701                	j	942c <__trunctfdf2+0x3e8>
    952e:	ff85b593          	sltiu	a1,a1,-8
    9532:	0015b593          	seqz	a1,a1
    9536:	972e                	add	a4,a4,a1
    9538:	00771593          	slli	a1,a4,0x7
    953c:	1605d863          	bgez	a1,96ac <__trunctfdf2+0x668>
    9540:	14068063          	beqz	a3,9680 <__trunctfdf2+0x63c>
    9544:	00878713          	addi	a4,a5,8
    9548:	00f737b3          	sltu	a5,a4,a5
    954c:	963e                	add	a2,a2,a5
    954e:	87ba                	mv	a5,a4
    9550:	00861713          	slli	a4,a2,0x8
    9554:	12074a63          	bltz	a4,9688 <__trunctfdf2+0x644>
    9558:	4701                	li	a4,0
    955a:	4585                	li	a1,1
    955c:	b74d                	j	94fe <__trunctfdf2+0x4ba>
    955e:	87b2                	mv	a5,a2
    9560:	7fe00713          	li	a4,2046
    9564:	4595                	li	a1,5
    9566:	b3f1                	j	9332 <__trunctfdf2+0x2ee>
    9568:	567d                	li	a2,-1
    956a:	87b2                	mv	a5,a2
    956c:	7fe00713          	li	a4,2046
    9570:	4595                	li	a1,5
    9572:	dc0802e3          	beqz	a6,9336 <__trunctfdf2+0x2f2>
    9576:	bf95                	j	94ea <__trunctfdf2+0x4a6>
    9578:	4581                	li	a1,0
    957a:	b751                	j	94fe <__trunctfdf2+0x4ba>
    957c:	d60804e3          	beqz	a6,92e4 <__trunctfdf2+0x2a0>
    9580:	00878713          	addi	a4,a5,8
    9584:	00f737b3          	sltu	a5,a4,a5
    9588:	963e                	add	a2,a2,a5
    958a:	87ba                	mv	a5,a4
    958c:	bba1                	j	92e4 <__trunctfdf2+0x2a0>
    958e:	00f7f713          	andi	a4,a5,15
    9592:	4691                	li	a3,4
    9594:	d4d708e3          	beq	a4,a3,92e4 <__trunctfdf2+0x2a0>
    9598:	00d78733          	add	a4,a5,a3
    959c:	00f737b3          	sltu	a5,a4,a5
    95a0:	963e                	add	a2,a2,a5
    95a2:	87ba                	mv	a5,a4
    95a4:	b381                	j	92e4 <__trunctfdf2+0x2a0>
    95a6:	d2081fe3          	bnez	a6,92e4 <__trunctfdf2+0x2a0>
    95aa:	bfd9                	j	9580 <__trunctfdf2+0x53c>
    95ac:	00861693          	slli	a3,a2,0x8
    95b0:	ea06c4e3          	bltz	a3,9458 <__trunctfdf2+0x414>
    95b4:	4585                	li	a1,1
    95b6:	b7a1                	j	94fe <__trunctfdf2+0x4ba>
    95b8:	08081363          	bnez	a6,963e <__trunctfdf2+0x5fa>
    95bc:	00771593          	slli	a1,a4,0x7
    95c0:	0005da63          	bgez	a1,95d4 <__trunctfdf2+0x590>
    95c4:	ced5                	beqz	a3,9680 <__trunctfdf2+0x63c>
    95c6:	00861713          	slli	a4,a2,0x8
    95ca:	f80757e3          	bgez	a4,9558 <__trunctfdf2+0x514>
    95ce:	4e05                	li	t3,1
    95d0:	85f2                	mv	a1,t3
    95d2:	bb39                	j	92f0 <__trunctfdf2+0x2ac>
    95d4:	d00698e3          	bnez	a3,92e4 <__trunctfdf2+0x2a0>
    95d8:	00861713          	slli	a4,a2,0x8
    95dc:	c00750e3          	bgez	a4,91dc <__trunctfdf2+0x198>
    95e0:	ff8006b7          	lui	a3,0xff800
    95e4:	16fd                	addi	a3,a3,-1 # ff7fffff <_eusrstack+0xdf7f7fff>
    95e6:	8ef1                	and	a3,a3,a2
    95e8:	4705                	li	a4,1
    95ea:	458d                	li	a1,3
    95ec:	bea9                	j	9146 <__trunctfdf2+0x102>
    95ee:	00f5f893          	andi	a7,a1,15
    95f2:	4511                	li	a0,4
    95f4:	0ca88b63          	beq	a7,a0,96ca <__trunctfdf2+0x686>
    95f8:	ffc5b593          	sltiu	a1,a1,-4
    95fc:	0015b593          	seqz	a1,a1
    9600:	972e                	add	a4,a4,a1
    9602:	00771593          	slli	a1,a4,0x7
    9606:	0a05c663          	bltz	a1,96b2 <__trunctfdf2+0x66e>
    960a:	d6f9                	beqz	a3,95d8 <__trunctfdf2+0x594>
    960c:	00f7f713          	andi	a4,a5,15
    9610:	cca70ae3          	beq	a4,a0,92e4 <__trunctfdf2+0x2a0>
    9614:	00478713          	addi	a4,a5,4
    9618:	00f737b3          	sltu	a5,a4,a5
    961c:	963e                	add	a2,a2,a5
    961e:	87ba                	mv	a5,a4
    9620:	b1d1                	j	92e4 <__trunctfdf2+0x2a0>
    9622:	f00806e3          	beqz	a6,952e <__trunctfdf2+0x4ea>
    9626:	00771593          	slli	a1,a4,0x7
    962a:	fa05d5e3          	bgez	a1,95d4 <__trunctfdf2+0x590>
    962e:	00861713          	slli	a4,a2,0x8
    9632:	c29d                	beqz	a3,9658 <__trunctfdf2+0x614>
    9634:	85c2                	mv	a1,a6
    9636:	ca074de3          	bltz	a4,92f0 <__trunctfdf2+0x2ac>
    963a:	4701                	li	a4,0
    963c:	b5c9                	j	94fe <__trunctfdf2+0x4ba>
    963e:	ff85b593          	sltiu	a1,a1,-8
    9642:	0015b593          	seqz	a1,a1
    9646:	972e                	add	a4,a4,a1
    9648:	00771593          	slli	a1,a4,0x7
    964c:	0605d063          	bgez	a1,96ac <__trunctfdf2+0x668>
    9650:	ee069ae3          	bnez	a3,9544 <__trunctfdf2+0x500>
    9654:	00861713          	slli	a4,a2,0x8
    9658:	00075963          	bgez	a4,966a <__trunctfdf2+0x626>
    965c:	ff8006b7          	lui	a3,0xff800
    9660:	16fd                	addi	a3,a3,-1 # ff7fffff <_eusrstack+0xdf7f7fff>
    9662:	8ef1                	and	a3,a3,a2
    9664:	85c2                	mv	a1,a6
    9666:	4705                	li	a4,1
    9668:	bcf9                	j	9146 <__trunctfdf2+0x102>
    966a:	838d                	srli	a5,a5,0x3
    966c:	01d61713          	slli	a4,a2,0x1d
    9670:	8f5d                	or	a4,a4,a5
    9672:	00961793          	slli	a5,a2,0x9
    9676:	00c7d613          	srli	a2,a5,0xc
    967a:	4805                	li	a6,1
    967c:	4781                	li	a5,0
    967e:	be8d                	j	91f0 <__trunctfdf2+0x1ac>
    9680:	00861713          	slli	a4,a2,0x8
    9684:	00075963          	bgez	a4,9696 <__trunctfdf2+0x652>
    9688:	ff8006b7          	lui	a3,0xff800
    968c:	16fd                	addi	a3,a3,-1 # ff7fffff <_eusrstack+0xdf7f7fff>
    968e:	4705                	li	a4,1
    9690:	8ef1                	and	a3,a3,a2
    9692:	85ba                	mv	a1,a4
    9694:	bc4d                	j	9146 <__trunctfdf2+0x102>
    9696:	838d                	srli	a5,a5,0x3
    9698:	01d61713          	slli	a4,a2,0x1d
    969c:	8f5d                	or	a4,a4,a5
    969e:	00961793          	slli	a5,a2,0x9
    96a2:	00c7d613          	srli	a2,a5,0xc
    96a6:	4e05                	li	t3,1
    96a8:	4781                	li	a5,0
    96aa:	b699                	j	91f0 <__trunctfdf2+0x1ac>
    96ac:	ec069ae3          	bnez	a3,9580 <__trunctfdf2+0x53c>
    96b0:	b725                	j	95d8 <__trunctfdf2+0x594>
    96b2:	d6f9                	beqz	a3,9680 <__trunctfdf2+0x63c>
    96b4:	00f7f713          	andi	a4,a5,15
    96b8:	e8a70ce3          	beq	a4,a0,9550 <__trunctfdf2+0x50c>
    96bc:	00478713          	addi	a4,a5,4
    96c0:	00f737b3          	sltu	a5,a4,a5
    96c4:	963e                	add	a2,a2,a5
    96c6:	87ba                	mv	a5,a4
    96c8:	b561                	j	9550 <__trunctfdf2+0x50c>
    96ca:	00771593          	slli	a1,a4,0x7
    96ce:	0005c863          	bltz	a1,96de <__trunctfdf2+0x69a>
    96d2:	d299                	beqz	a3,95d8 <__trunctfdf2+0x594>
    96d4:	00f7f713          	andi	a4,a5,15
    96d8:	f3171ee3          	bne	a4,a7,9614 <__trunctfdf2+0x5d0>
    96dc:	b121                	j	92e4 <__trunctfdf2+0x2a0>
    96de:	d2cd                	beqz	a3,9680 <__trunctfdf2+0x63c>
    96e0:	00f7f713          	andi	a4,a5,15
    96e4:	fd171ce3          	bne	a4,a7,96bc <__trunctfdf2+0x678>
    96e8:	b5a5                	j	9550 <__trunctfdf2+0x50c>

000096ea <main>:
    96ea:	1141                	addi	sp,sp,-16
    96ec:	6571                	lui	a0,0x1c
    96ee:	c606                	sw	ra,12(sp)
    96f0:	20050513          	addi	a0,a0,512 # 1c200 <_data_lma+0x111ec>
    96f4:	c422                	sw	s0,8(sp)
    96f6:	0800                	addi	s0,sp,16
    96f8:	43b000ef          	jal	a332 <USART_Printf_Init>
    96fc:	2e9000ef          	jal	a1e4 <SystemCoreClockUpdate>
    9700:	1cf000ef          	jal	a0ce <SystemInit>
    9704:	3a5000ef          	jal	a2a8 <Delay_Init>
    9708:	00001517          	auipc	a0,0x1
    970c:	59050513          	addi	a0,a0,1424 # ac98 <zeroes.0+0x10>
    9710:	b4df60ef          	jal	25c <printf>
    9714:	2e71                	jal	9ab0 <I2C_init>
    9716:	00001517          	auipc	a0,0x1
    971a:	5a250513          	addi	a0,a0,1442 # acb8 <zeroes.0+0x30>
    971e:	b3ff60ef          	jal	25c <printf>
    9722:	2e25                	jal	9a5a <OLED_init>
    9724:	45a9                	li	a1,10
    9726:	852e                	mv	a0,a1
    9728:	244d                	jal	99ca <OLED_setpos>
    972a:	24dd                	jal	9a10 <OLED_clear>
    972c:	00001517          	auipc	a0,0x1
    9730:	5bc50513          	addi	a0,a0,1468 # ace8 <zeroes.0+0x60>
    9734:	2449                	jal	99b6 <OLED_print>
    9736:	3e800513          	li	a0,1000
    973a:	3ab000ef          	jal	a2e4 <Delay_Ms>
    973e:	b7fd                	j	972c <main+0x42>

00009740 <OLED_setline>:
    9740:	1141                	addi	sp,sp,-16
    9742:	c606                	sw	ra,12(sp)
    9744:	c422                	sw	s0,8(sp)
    9746:	c226                	sw	s1,4(sp)
    9748:	0800                	addi	s0,sp,16
    974a:	84aa                	mv	s1,a0
    974c:	07800513          	li	a0,120
    9750:	26d5                	jal	9b34 <I2C_start>
    9752:	4501                	li	a0,0
    9754:	21a9                	jal	9b9e <I2C_write>
    9756:	fb048513          	addi	a0,s1,-80
    975a:	0ff57513          	zext.b	a0,a0
    975e:	2181                	jal	9b9e <I2C_write>
    9760:	4501                	li	a0,0
    9762:	2935                	jal	9b9e <I2C_write>
    9764:	4541                	li	a0,16
    9766:	2925                	jal	9b9e <I2C_write>
    9768:	4422                	lw	s0,8(sp)
    976a:	40b2                	lw	ra,12(sp)
    976c:	4492                	lw	s1,4(sp)
    976e:	0141                	addi	sp,sp,16
    9770:	a9a9                	j	9bca <I2C_stop>

00009772 <OLED_clearline>:
    9772:	1141                	addi	sp,sp,-16
    9774:	c606                	sw	ra,12(sp)
    9776:	c422                	sw	s0,8(sp)
    9778:	c226                	sw	s1,4(sp)
    977a:	0800                	addi	s0,sp,16
    977c:	c04a                	sw	s2,0(sp)
    977e:	892a                	mv	s2,a0
    9780:	fc1ff0ef          	jal	9740 <OLED_setline>
    9784:	07800513          	li	a0,120
    9788:	2675                	jal	9b34 <I2C_start>
    978a:	04000513          	li	a0,64
    978e:	2901                	jal	9b9e <I2C_write>
    9790:	00395793          	srli	a5,s2,0x3
    9794:	079e                	slli	a5,a5,0x7
    9796:	1fff7917          	auipc	s2,0x1fff7
    979a:	fea90913          	addi	s2,s2,-22 # 20000780 <SSD1306_Buffer>
    979e:	08000493          	li	s1,128
    97a2:	993e                	add	s2,s2,a5
    97a4:	4501                	li	a0,0
    97a6:	2ee5                	jal	9b9e <I2C_write>
    97a8:	009907b3          	add	a5,s2,s1
    97ac:	00078023          	sb	zero,0(a5)
    97b0:	14fd                	addi	s1,s1,-1
    97b2:	f8ed                	bnez	s1,97a4 <OLED_clearline+0x32>
    97b4:	4422                	lw	s0,8(sp)
    97b6:	40b2                	lw	ra,12(sp)
    97b8:	4492                	lw	s1,4(sp)
    97ba:	4902                	lw	s2,0(sp)
    97bc:	0141                	addi	sp,sp,16
    97be:	a131                	j	9bca <I2C_stop>

000097c0 <OLED_scrollDisplay>:
    97c0:	1141                	addi	sp,sp,-16
    97c2:	c606                	sw	ra,12(sp)
    97c4:	c422                	sw	s0,8(sp)
    97c6:	c226                	sw	s1,4(sp)
    97c8:	0800                	addi	s0,sp,16
    97ca:	87e18493          	addi	s1,gp,-1922 # 2000073e <scroll>
    97ce:	0004c503          	lbu	a0,0(s1)
    97d2:	fa1ff0ef          	jal	9772 <OLED_clearline>
    97d6:	0004c783          	lbu	a5,0(s1)
    97da:	07800513          	li	a0,120
    97de:	0785                	addi	a5,a5,1
    97e0:	8b9d                	andi	a5,a5,7
    97e2:	00f48023          	sb	a5,0(s1)
    97e6:	26b9                	jal	9b34 <I2C_start>
    97e8:	4501                	li	a0,0
    97ea:	2e55                	jal	9b9e <I2C_write>
    97ec:	0d300513          	li	a0,211
    97f0:	267d                	jal	9b9e <I2C_write>
    97f2:	0004c503          	lbu	a0,0(s1)
    97f6:	050e                	slli	a0,a0,0x3
    97f8:	0f857513          	andi	a0,a0,248
    97fc:	264d                	jal	9b9e <I2C_write>
    97fe:	4422                	lw	s0,8(sp)
    9800:	40b2                	lw	ra,12(sp)
    9802:	4492                	lw	s1,4(sp)
    9804:	0141                	addi	sp,sp,16
    9806:	a6d1                	j	9bca <I2C_stop>

00009808 <OLED_plotChar>:
    9808:	7179                	addi	sp,sp,-48
    980a:	d226                	sw	s1,36(sp)
    980c:	ca56                	sw	s5,20(sp)
    980e:	84aa                	mv	s1,a0
    9810:	4a95                	li	s5,5
    9812:	035484b3          	mul	s1,s1,s5
    9816:	d606                	sw	ra,44(sp)
    9818:	d422                	sw	s0,40(sp)
    981a:	d04a                	sw	s2,32(sp)
    981c:	ce4e                	sw	s3,28(sp)
    981e:	cc52                	sw	s4,24(sp)
    9820:	1800                	addi	s0,sp,48
    9822:	07800513          	li	a0,120
    9826:	40b00a33          	neg	s4,a1
    982a:	2629                	jal	9b34 <I2C_start>
    982c:	04000513          	li	a0,64
    9830:	26bd                	jal	9b9e <I2C_write>
    9832:	00001797          	auipc	a5,0x1
    9836:	5de78793          	addi	a5,a5,1502 # ae10 <font5x8>
    983a:	94be                	add	s1,s1,a5
    983c:	4901                	li	s2,0
    983e:	1fff7997          	auipc	s3,0x1fff7
    9842:	f4298993          	addi	s3,s3,-190 # 20000780 <SSD1306_Buffer>
    9846:	f604c503          	lbu	a0,-160(s1)
    984a:	0485                	addi	s1,s1,1
    984c:	01454533          	xor	a0,a0,s4
    9850:	0ff57513          	zext.b	a0,a0
    9854:	fca42e23          	sw	a0,-36(s0)
    9858:	2699                	jal	9b9e <I2C_write>
    985a:	87c1c783          	lbu	a5,-1924(gp) # 2000073c <cursorY>
    985e:	87d1c703          	lbu	a4,-1923(gp) # 2000073d <cursorX>
    9862:	fdc42503          	lw	a0,-36(s0)
    9866:	838d                	srli	a5,a5,0x3
    9868:	079e                	slli	a5,a5,0x7
    986a:	97ba                	add	a5,a5,a4
    986c:	97ca                	add	a5,a5,s2
    986e:	07c2                	slli	a5,a5,0x10
    9870:	87c1                	srai	a5,a5,0x10
    9872:	0905                	addi	s2,s2,1
    9874:	00f98733          	add	a4,s3,a5
    9878:	0942                	slli	s2,s2,0x10
    987a:	00a70023          	sb	a0,0(a4)
    987e:	41095913          	srai	s2,s2,0x10
    9882:	fd5912e3          	bne	s2,s5,9846 <OLED_plotChar+0x3e>
    9886:	0785                	addi	a5,a5,1
    9888:	07c2                	slli	a5,a5,0x10
    988a:	87c1                	srai	a5,a5,0x10
    988c:	99be                	add	s3,s3,a5
    988e:	4501                	li	a0,0
    9890:	00098023          	sb	zero,0(s3)
    9894:	2629                	jal	9b9e <I2C_write>
    9896:	5422                	lw	s0,40(sp)
    9898:	50b2                	lw	ra,44(sp)
    989a:	5492                	lw	s1,36(sp)
    989c:	5902                	lw	s2,32(sp)
    989e:	49f2                	lw	s3,28(sp)
    98a0:	4a62                	lw	s4,24(sp)
    98a2:	4ad2                	lw	s5,20(sp)
    98a4:	6145                	addi	sp,sp,48
    98a6:	a615                	j	9bca <I2C_stop>

000098a8 <OLED_write>:
    98a8:	1141                	addi	sp,sp,-16
    98aa:	c422                	sw	s0,8(sp)
    98ac:	87aa                	mv	a5,a0
    98ae:	c606                	sw	ra,12(sp)
    98b0:	0800                	addi	s0,sp,16
    98b2:	0607f793          	andi	a5,a5,96
    98b6:	07f57513          	andi	a0,a0,127
    98ba:	cfb5                	beqz	a5,9936 <OLED_write+0x8e>
    98bc:	f4dff0ef          	jal	9808 <OLED_plotChar>
    98c0:	87f1c783          	lbu	a5,-1921(gp) # 2000073f <column>
    98c4:	4751                	li	a4,20
    98c6:	0785                	addi	a5,a5,1
    98c8:	0ff7f793          	zext.b	a5,a5
    98cc:	02f76763          	bltu	a4,a5,98fa <OLED_write+0x52>
    98d0:	86f18fa3          	sb	a5,-1921(gp) # 2000073f <column>
    98d4:	87d1c783          	lbu	a5,-1923(gp) # 2000073d <cursorX>
    98d8:	07a00713          	li	a4,122
    98dc:	0799                	addi	a5,a5,6
    98de:	0ff7f793          	zext.b	a5,a5
    98e2:	04f76263          	bltu	a4,a5,9926 <OLED_write+0x7e>
    98e6:	86f18ea3          	sb	a5,-1923(gp) # 2000073d <cursorX>
    98ea:	40b2                	lw	ra,12(sp)
    98ec:	4422                	lw	s0,8(sp)
    98ee:	0141                	addi	sp,sp,16
    98f0:	4501                	li	a0,0
    98f2:	4581                	li	a1,0
    98f4:	4701                	li	a4,0
    98f6:	4781                	li	a5,0
    98f8:	8082                	ret
    98fa:	86018fa3          	sb	zero,-1921(gp) # 2000073f <column>
    98fe:	8801c783          	lbu	a5,-1920(gp) # 20000740 <line>
    9902:	471d                	li	a4,7
    9904:	00e79d63          	bne	a5,a4,991e <OLED_write+0x76>
    9908:	eb9ff0ef          	jal	97c0 <OLED_scrollDisplay>
    990c:	87e1c783          	lbu	a5,-1922(gp) # 2000073e <scroll>
    9910:	8801c503          	lbu	a0,-1920(gp) # 20000740 <line>
    9914:	953e                	add	a0,a0,a5
    9916:	891d                	andi	a0,a0,7
    9918:	e29ff0ef          	jal	9740 <OLED_setline>
    991c:	bf65                	j	98d4 <OLED_write+0x2c>
    991e:	0785                	addi	a5,a5,1
    9920:	88f18023          	sb	a5,-1920(gp) # 20000740 <line>
    9924:	b7e5                	j	990c <OLED_write+0x64>
    9926:	86018ea3          	sb	zero,-1923(gp) # 2000073d <cursorX>
    992a:	87c1c783          	lbu	a5,-1924(gp) # 2000073c <cursorY>
    992e:	07a1                	addi	a5,a5,8
    9930:	86f18e23          	sb	a5,-1924(gp) # 2000073c <cursorY>
    9934:	bf5d                	j	98ea <OLED_write+0x42>
    9936:	47a9                	li	a5,10
    9938:	04f51163          	bne	a0,a5,997a <OLED_write+0xd2>
    993c:	86018ea3          	sb	zero,-1923(gp) # 2000073d <cursorX>
    9940:	87c1c783          	lbu	a5,-1924(gp) # 2000073c <cursorY>
    9944:	07a1                	addi	a5,a5,8
    9946:	86f18e23          	sb	a5,-1924(gp) # 2000073c <cursorY>
    994a:	86018fa3          	sb	zero,-1921(gp) # 2000073f <column>
    994e:	8801c783          	lbu	a5,-1920(gp) # 20000740 <line>
    9952:	471d                	li	a4,7
    9954:	00e79f63          	bne	a5,a4,9972 <OLED_write+0xca>
    9958:	e69ff0ef          	jal	97c0 <OLED_scrollDisplay>
    995c:	8801c503          	lbu	a0,-1920(gp) # 20000740 <line>
    9960:	87e1c783          	lbu	a5,-1922(gp) # 2000073e <scroll>
    9964:	4422                	lw	s0,8(sp)
    9966:	40b2                	lw	ra,12(sp)
    9968:	953e                	add	a0,a0,a5
    996a:	891d                	andi	a0,a0,7
    996c:	0141                	addi	sp,sp,16
    996e:	dd3ff06f          	j	9740 <OLED_setline>
    9972:	0785                	addi	a5,a5,1
    9974:	88f18023          	sb	a5,-1920(gp) # 20000740 <line>
    9978:	b7d5                	j	995c <OLED_write+0xb4>
    997a:	47b5                	li	a5,13
    997c:	f6f517e3          	bne	a0,a5,98ea <OLED_write+0x42>
    9980:	86018fa3          	sb	zero,-1921(gp) # 2000073f <column>
    9984:	bfe1                	j	995c <OLED_write+0xb4>

00009986 <OLED_printS>:
    9986:	1101                	addi	sp,sp,-32
    9988:	cc22                	sw	s0,24(sp)
    998a:	ca26                	sw	s1,20(sp)
    998c:	ce06                	sw	ra,28(sp)
    998e:	1000                	addi	s0,sp,32
    9990:	84aa                	mv	s1,a0
    9992:	0004c503          	lbu	a0,0(s1)
    9996:	e901                	bnez	a0,99a6 <OLED_printS+0x20>
    9998:	40f2                	lw	ra,28(sp)
    999a:	4462                	lw	s0,24(sp)
    999c:	44d2                	lw	s1,20(sp)
    999e:	6105                	addi	sp,sp,32
    99a0:	4501                	li	a0,0
    99a2:	4581                	li	a1,0
    99a4:	8082                	ret
    99a6:	feb42623          	sw	a1,-20(s0)
    99aa:	effff0ef          	jal	98a8 <OLED_write>
    99ae:	fec42583          	lw	a1,-20(s0)
    99b2:	0485                	addi	s1,s1,1
    99b4:	bff9                	j	9992 <OLED_printS+0xc>

000099b6 <OLED_print>:
    99b6:	1141                	addi	sp,sp,-16
    99b8:	c422                	sw	s0,8(sp)
    99ba:	c606                	sw	ra,12(sp)
    99bc:	0800                	addi	s0,sp,16
    99be:	4422                	lw	s0,8(sp)
    99c0:	40b2                	lw	ra,12(sp)
    99c2:	4581                	li	a1,0
    99c4:	0141                	addi	sp,sp,16
    99c6:	fc1ff06f          	j	9986 <OLED_printS>

000099ca <OLED_setpos>:
    99ca:	1101                	addi	sp,sp,-32
    99cc:	ce06                	sw	ra,28(sp)
    99ce:	cc22                	sw	s0,24(sp)
    99d0:	ca26                	sw	s1,20(sp)
    99d2:	1000                	addi	s0,sp,32
    99d4:	84aa                	mv	s1,a0
    99d6:	86a18ea3          	sb	a0,-1923(gp) # 2000073d <cursorX>
    99da:	07800513          	li	a0,120
    99de:	feb42623          	sw	a1,-20(s0)
    99e2:	86b18e23          	sb	a1,-1924(gp) # 2000073c <cursorY>
    99e6:	22b9                	jal	9b34 <I2C_start>
    99e8:	4501                	li	a0,0
    99ea:	2a55                	jal	9b9e <I2C_write>
    99ec:	fec42583          	lw	a1,-20(s0)
    99f0:	0b05e513          	ori	a0,a1,176
    99f4:	226d                	jal	9b9e <I2C_write>
    99f6:	00f4f513          	andi	a0,s1,15
    99fa:	2255                	jal	9b9e <I2C_write>
    99fc:	0044d513          	srli	a0,s1,0x4
    9a00:	01056513          	ori	a0,a0,16
    9a04:	2a69                	jal	9b9e <I2C_write>
    9a06:	4462                	lw	s0,24(sp)
    9a08:	40f2                	lw	ra,28(sp)
    9a0a:	44d2                	lw	s1,20(sp)
    9a0c:	6105                	addi	sp,sp,32
    9a0e:	aa75                	j	9bca <I2C_stop>

00009a10 <OLED_clear>:
    9a10:	1141                	addi	sp,sp,-16
    9a12:	c606                	sw	ra,12(sp)
    9a14:	c422                	sw	s0,8(sp)
    9a16:	c226                	sw	s1,4(sp)
    9a18:	0800                	addi	s0,sp,16
    9a1a:	c04a                	sw	s2,0(sp)
    9a1c:	4581                	li	a1,0
    9a1e:	4501                	li	a0,0
    9a20:	fabff0ef          	jal	99ca <OLED_setpos>
    9a24:	07800513          	li	a0,120
    9a28:	2231                	jal	9b34 <I2C_start>
    9a2a:	04000513          	li	a0,64
    9a2e:	2a85                	jal	9b9e <I2C_write>
    9a30:	1fff7497          	auipc	s1,0x1fff7
    9a34:	d5048493          	addi	s1,s1,-688 # 20000780 <SSD1306_Buffer>
    9a38:	1fff7917          	auipc	s2,0x1fff7
    9a3c:	94890913          	addi	s2,s2,-1720 # 20000380 <__malloc_av_+0x234>
    9a40:	4501                	li	a0,0
    9a42:	2ab1                	jal	9b9e <I2C_write>
    9a44:	14fd                	addi	s1,s1,-1
    9a46:	40048023          	sb	zero,1024(s1)
    9a4a:	ff249be3          	bne	s1,s2,9a40 <OLED_clear+0x30>
    9a4e:	4422                	lw	s0,8(sp)
    9a50:	40b2                	lw	ra,12(sp)
    9a52:	4492                	lw	s1,4(sp)
    9a54:	4902                	lw	s2,0(sp)
    9a56:	0141                	addi	sp,sp,16
    9a58:	aa8d                	j	9bca <I2C_stop>

00009a5a <OLED_init>:
    9a5a:	1101                	addi	sp,sp,-32
    9a5c:	ce06                	sw	ra,28(sp)
    9a5e:	cc22                	sw	s0,24(sp)
    9a60:	ca26                	sw	s1,20(sp)
    9a62:	1000                	addi	s0,sp,32
    9a64:	c84a                	sw	s2,16(sp)
    9a66:	c64e                	sw	s3,12(sp)
    9a68:	20a1                	jal	9ab0 <I2C_init>
    9a6a:	07800513          	li	a0,120
    9a6e:	20d9                	jal	9b34 <I2C_start>
    9a70:	4501                	li	a0,0
    9a72:	2235                	jal	9b9e <I2C_write>
    9a74:	4481                	li	s1,0
    9a76:	00001997          	auipc	s3,0x1
    9a7a:	37a98993          	addi	s3,s3,890 # adf0 <ssd1306_init_sequence>
    9a7e:	02000913          	li	s2,32
    9a82:	013487b3          	add	a5,s1,s3
    9a86:	0007c503          	lbu	a0,0(a5)
    9a8a:	0485                	addi	s1,s1,1
    9a8c:	2a09                	jal	9b9e <I2C_write>
    9a8e:	ff249ae3          	bne	s1,s2,9a82 <OLED_init+0x28>
    9a92:	2a25                	jal	9bca <I2C_stop>
    9a94:	86018f23          	sb	zero,-1922(gp) # 2000073e <scroll>
    9a98:	f79ff0ef          	jal	9a10 <OLED_clear>
    9a9c:	4462                	lw	s0,24(sp)
    9a9e:	40f2                	lw	ra,28(sp)
    9aa0:	44d2                	lw	s1,20(sp)
    9aa2:	4942                	lw	s2,16(sp)
    9aa4:	49b2                	lw	s3,12(sp)
    9aa6:	4581                	li	a1,0
    9aa8:	4501                	li	a0,0
    9aaa:	6105                	addi	sp,sp,32
    9aac:	f1fff06f          	j	99ca <OLED_setpos>

00009ab0 <I2C_init>:
    9ab0:	7179                	addi	sp,sp,-48
    9ab2:	d606                	sw	ra,44(sp)
    9ab4:	d422                	sw	s0,40(sp)
    9ab6:	4585                	li	a1,1
    9ab8:	1800                	addi	s0,sp,48
    9aba:	4525                	li	a0,9
    9abc:	2b5d                	jal	a072 <RCC_APB2PeriphClockCmd>
    9abe:	4585                	li	a1,1
    9ac0:	4509                	li	a0,2
    9ac2:	2c2d                	jal	9cfc <GPIO_PinRemapConfig>
    9ac4:	4585                	li	a1,1
    9ac6:	00200537          	lui	a0,0x200
    9aca:	2bd9                	jal	a0a0 <RCC_APB1PeriphClockCmd>
    9acc:	40011537          	lui	a0,0x40011
    9ad0:	30000593          	li	a1,768
    9ad4:	c0050513          	addi	a0,a0,-1024 # 40010c00 <_eusrstack+0x20008c00>
    9ad8:	2439                	jal	9ce6 <GPIO_SetBits>
    9ada:	4641                	li	a2,16
    9adc:	00001597          	auipc	a1,0x1
    9ae0:	c5858593          	addi	a1,a1,-936 # a734 <register_fini+0x28>
    9ae4:	fe040513          	addi	a0,s0,-32
    9ae8:	86bf60ef          	jal	352 <memcpy>
    9aec:	40005537          	lui	a0,0x40005
    9af0:	fe040593          	addi	a1,s0,-32
    9af4:	40050513          	addi	a0,a0,1024 # 40005400 <_eusrstack+0x1fffd400>
    9af8:	24e1                	jal	9dc0 <I2C_Init>
    9afa:	40005537          	lui	a0,0x40005
    9afe:	4585                	li	a1,1
    9b00:	40050513          	addi	a0,a0,1024 # 40005400 <_eusrstack+0x1fffd400>
    9b04:	26e9                	jal	9ece <I2C_Cmd>
    9b06:	4631                	li	a2,12
    9b08:	00001597          	auipc	a1,0x1
    9b0c:	c3c58593          	addi	a1,a1,-964 # a744 <register_fini+0x38>
    9b10:	fd440513          	addi	a0,s0,-44
    9b14:	83ff60ef          	jal	352 <memcpy>
    9b18:	40011537          	lui	a0,0x40011
    9b1c:	fd440593          	addi	a1,s0,-44
    9b20:	c0050513          	addi	a0,a0,-1024 # 40010c00 <_eusrstack+0x20008c00>
    9b24:	28d9                	jal	9bfa <GPIO_Init>
    9b26:	50b2                	lw	ra,44(sp)
    9b28:	5422                	lw	s0,40(sp)
    9b2a:	6145                	addi	sp,sp,48
    9b2c:	4501                	li	a0,0
    9b2e:	4581                	li	a1,0
    9b30:	4601                	li	a2,0
    9b32:	8082                	ret

00009b34 <I2C_start>:
    9b34:	1141                	addi	sp,sp,-16
    9b36:	400057b7          	lui	a5,0x40005
    9b3a:	c422                	sw	s0,8(sp)
    9b3c:	c606                	sw	ra,12(sp)
    9b3e:	0800                	addi	s0,sp,16
    9b40:	40078793          	addi	a5,a5,1024 # 40005400 <_eusrstack+0x1fffd400>
    9b44:	0187d703          	lhu	a4,24(a5)
    9b48:	8b09                	andi	a4,a4,2
    9b4a:	ff6d                	bnez	a4,9b44 <I2C_start+0x10>
    9b4c:	0007d703          	lhu	a4,0(a5)
    9b50:	10076713          	ori	a4,a4,256
    9b54:	00e79023          	sh	a4,0(a5)
    9b58:	400057b7          	lui	a5,0x40005
    9b5c:	40078793          	addi	a5,a5,1024 # 40005400 <_eusrstack+0x1fffd400>
    9b60:	0147d703          	lhu	a4,20(a5)
    9b64:	8b05                	andi	a4,a4,1
    9b66:	df6d                	beqz	a4,9b60 <I2C_start+0x2c>
    9b68:	400056b7          	lui	a3,0x40005
    9b6c:	00820737          	lui	a4,0x820
    9b70:	00a79823          	sh	a0,16(a5)
    9b74:	40068693          	addi	a3,a3,1024 # 40005400 <_eusrstack+0x1fffd400>
    9b78:	070d                	addi	a4,a4,3 # 820003 <_data_lma+0x814fef>
    9b7a:	0146d783          	lhu	a5,20(a3)
    9b7e:	0186d603          	lhu	a2,24(a3)
    9b82:	07c2                	slli	a5,a5,0x10
    9b84:	8fd1                	or	a5,a5,a2
    9b86:	8ff9                	and	a5,a5,a4
    9b88:	fee799e3          	bne	a5,a4,9b7a <I2C_start+0x46>
    9b8c:	40b2                	lw	ra,12(sp)
    9b8e:	4422                	lw	s0,8(sp)
    9b90:	0141                	addi	sp,sp,16
    9b92:	4501                	li	a0,0
    9b94:	4601                	li	a2,0
    9b96:	4681                	li	a3,0
    9b98:	4701                	li	a4,0
    9b9a:	4781                	li	a5,0
    9b9c:	8082                	ret

00009b9e <I2C_write>:
    9b9e:	1141                	addi	sp,sp,-16
    9ba0:	400057b7          	lui	a5,0x40005
    9ba4:	c422                	sw	s0,8(sp)
    9ba6:	c606                	sw	ra,12(sp)
    9ba8:	0800                	addi	s0,sp,16
    9baa:	40078793          	addi	a5,a5,1024 # 40005400 <_eusrstack+0x1fffd400>
    9bae:	0147d703          	lhu	a4,20(a5)
    9bb2:	08077713          	andi	a4,a4,128
    9bb6:	df65                	beqz	a4,9bae <I2C_write+0x10>
    9bb8:	40b2                	lw	ra,12(sp)
    9bba:	4422                	lw	s0,8(sp)
    9bbc:	00a79823          	sh	a0,16(a5)
    9bc0:	0141                	addi	sp,sp,16
    9bc2:	4501                	li	a0,0
    9bc4:	4701                	li	a4,0
    9bc6:	4781                	li	a5,0
    9bc8:	8082                	ret

00009bca <I2C_stop>:
    9bca:	1141                	addi	sp,sp,-16
    9bcc:	400057b7          	lui	a5,0x40005
    9bd0:	c422                	sw	s0,8(sp)
    9bd2:	c606                	sw	ra,12(sp)
    9bd4:	0800                	addi	s0,sp,16
    9bd6:	40078793          	addi	a5,a5,1024 # 40005400 <_eusrstack+0x1fffd400>
    9bda:	0147d703          	lhu	a4,20(a5)
    9bde:	8b11                	andi	a4,a4,4
    9be0:	df6d                	beqz	a4,9bda <I2C_stop+0x10>
    9be2:	0007d703          	lhu	a4,0(a5)
    9be6:	40b2                	lw	ra,12(sp)
    9be8:	4422                	lw	s0,8(sp)
    9bea:	20076713          	ori	a4,a4,512
    9bee:	00e79023          	sh	a4,0(a5)
    9bf2:	0141                	addi	sp,sp,16
    9bf4:	4701                	li	a4,0
    9bf6:	4781                	li	a5,0
    9bf8:	8082                	ret

00009bfa <GPIO_Init>:
    9bfa:	1141                	addi	sp,sp,-16
    9bfc:	c422                	sw	s0,8(sp)
    9bfe:	c606                	sw	ra,12(sp)
    9c00:	0800                	addi	s0,sp,16
    9c02:	459c                	lw	a5,8(a1)
    9c04:	0107f713          	andi	a4,a5,16
    9c08:	00f7f813          	andi	a6,a5,15
    9c0c:	c701                	beqz	a4,9c14 <GPIO_Init+0x1a>
    9c0e:	41d8                	lw	a4,4(a1)
    9c10:	00e86833          	or	a6,a6,a4
    9c14:	0005d583          	lhu	a1,0(a1)
    9c18:	0ff5f713          	zext.b	a4,a1
    9c1c:	c339                	beqz	a4,9c62 <GPIO_Init+0x68>
    9c1e:	4118                	lw	a4,0(a0)
    9c20:	4681                	li	a3,0
    9c22:	4e85                	li	t4,1
    9c24:	4f3d                	li	t5,15
    9c26:	02800f93          	li	t6,40
    9c2a:	04800293          	li	t0,72
    9c2e:	4e21                	li	t3,8
    9c30:	00de9633          	sll	a2,t4,a3
    9c34:	00c5f8b3          	and	a7,a1,a2
    9c38:	03161163          	bne	a2,a7,9c5a <GPIO_Init+0x60>
    9c3c:	00269893          	slli	a7,a3,0x2
    9c40:	011f1333          	sll	t1,t5,a7
    9c44:	fff34313          	not	t1,t1
    9c48:	00e37733          	and	a4,t1,a4
    9c4c:	011818b3          	sll	a7,a6,a7
    9c50:	00e8e733          	or	a4,a7,a4
    9c54:	09f79163          	bne	a5,t6,9cd6 <GPIO_Init+0xdc>
    9c58:	c950                	sw	a2,20(a0)
    9c5a:	0685                	addi	a3,a3,1
    9c5c:	fdc69ae3          	bne	a3,t3,9c30 <GPIO_Init+0x36>
    9c60:	c118                	sw	a4,0(a0)
    9c62:	0ff00713          	li	a4,255
    9c66:	04b77663          	bgeu	a4,a1,9cb2 <GPIO_Init+0xb8>
    9c6a:	4154                	lw	a3,4(a0)
    9c6c:	4601                	li	a2,0
    9c6e:	4e85                	li	t4,1
    9c70:	4f3d                	li	t5,15
    9c72:	02800f93          	li	t6,40
    9c76:	04800293          	li	t0,72
    9c7a:	4e21                	li	t3,8
    9c7c:	00860713          	addi	a4,a2,8
    9c80:	00ee9733          	sll	a4,t4,a4
    9c84:	00e5f8b3          	and	a7,a1,a4
    9c88:	03171163          	bne	a4,a7,9caa <GPIO_Init+0xb0>
    9c8c:	00261893          	slli	a7,a2,0x2
    9c90:	011f1333          	sll	t1,t5,a7
    9c94:	fff34313          	not	t1,t1
    9c98:	00d376b3          	and	a3,t1,a3
    9c9c:	011818b3          	sll	a7,a6,a7
    9ca0:	00d8e6b3          	or	a3,a7,a3
    9ca4:	03f79d63          	bne	a5,t6,9cde <GPIO_Init+0xe4>
    9ca8:	c958                	sw	a4,20(a0)
    9caa:	0605                	addi	a2,a2,1
    9cac:	fdc618e3          	bne	a2,t3,9c7c <GPIO_Init+0x82>
    9cb0:	c154                	sw	a3,4(a0)
    9cb2:	40b2                	lw	ra,12(sp)
    9cb4:	4422                	lw	s0,8(sp)
    9cb6:	0141                	addi	sp,sp,16
    9cb8:	4281                	li	t0,0
    9cba:	4301                	li	t1,0
    9cbc:	4501                	li	a0,0
    9cbe:	4581                	li	a1,0
    9cc0:	4601                	li	a2,0
    9cc2:	4681                	li	a3,0
    9cc4:	4701                	li	a4,0
    9cc6:	4781                	li	a5,0
    9cc8:	4801                	li	a6,0
    9cca:	4881                	li	a7,0
    9ccc:	4e01                	li	t3,0
    9cce:	4e81                	li	t4,0
    9cd0:	4f01                	li	t5,0
    9cd2:	4f81                	li	t6,0
    9cd4:	8082                	ret
    9cd6:	f85792e3          	bne	a5,t0,9c5a <GPIO_Init+0x60>
    9cda:	c910                	sw	a2,16(a0)
    9cdc:	bfbd                	j	9c5a <GPIO_Init+0x60>
    9cde:	fc5796e3          	bne	a5,t0,9caa <GPIO_Init+0xb0>
    9ce2:	c918                	sw	a4,16(a0)
    9ce4:	b7d9                	j	9caa <GPIO_Init+0xb0>

00009ce6 <GPIO_SetBits>:
    9ce6:	1141                	addi	sp,sp,-16
    9ce8:	c422                	sw	s0,8(sp)
    9cea:	c606                	sw	ra,12(sp)
    9cec:	0800                	addi	s0,sp,16
    9cee:	40b2                	lw	ra,12(sp)
    9cf0:	4422                	lw	s0,8(sp)
    9cf2:	c90c                	sw	a1,16(a0)
    9cf4:	0141                	addi	sp,sp,16
    9cf6:	4501                	li	a0,0
    9cf8:	4581                	li	a1,0
    9cfa:	8082                	ret

00009cfc <GPIO_PinRemapConfig>:
    9cfc:	1141                	addi	sp,sp,-16
    9cfe:	c422                	sw	s0,8(sp)
    9d00:	c606                	sw	ra,12(sp)
    9d02:	0800                	addi	s0,sp,16
    9d04:	400107b7          	lui	a5,0x40010
    9d08:	02055963          	bgez	a0,9d3a <GPIO_PinRemapConfig+0x3e>
    9d0c:	4fdc                	lw	a5,28(a5)
    9d0e:	01055693          	srli	a3,a0,0x10
    9d12:	01051613          	slli	a2,a0,0x10
    9d16:	00300737          	lui	a4,0x300
    9d1a:	8abd                	andi	a3,a3,15
    9d1c:	8241                	srli	a2,a2,0x10
    9d1e:	00e57833          	and	a6,a0,a4
    9d22:	04055963          	bgez	a0,9d74 <GPIO_PinRemapConfig+0x78>
    9d26:	00e81c63          	bne	a6,a4,9d3e <GPIO_PinRemapConfig+0x42>
    9d2a:	06c1                	addi	a3,a3,16
    9d2c:	470d                	li	a4,3
    9d2e:	00d71733          	sll	a4,a4,a3
    9d32:	fff74713          	not	a4,a4
    9d36:	8ff9                	and	a5,a5,a4
    9d38:	a039                	j	9d46 <GPIO_PinRemapConfig+0x4a>
    9d3a:	43dc                	lw	a5,4(a5)
    9d3c:	bfc9                	j	9d0e <GPIO_PinRemapConfig+0x12>
    9d3e:	00b51713          	slli	a4,a0,0xb
    9d42:	fe0745e3          	bltz	a4,9d2c <GPIO_PinRemapConfig+0x30>
    9d46:	c989                	beqz	a1,9d58 <GPIO_PinRemapConfig+0x5c>
    9d48:	01555713          	srli	a4,a0,0x15
    9d4c:	0712                	slli	a4,a4,0x4
    9d4e:	00e61733          	sll	a4,a2,a4
    9d52:	8fd9                	or	a5,a5,a4
    9d54:	02055e63          	bgez	a0,9d90 <GPIO_PinRemapConfig+0x94>
    9d58:	40010737          	lui	a4,0x40010
    9d5c:	cf5c                	sw	a5,28(a4)
    9d5e:	40b2                	lw	ra,12(sp)
    9d60:	4422                	lw	s0,8(sp)
    9d62:	0141                	addi	sp,sp,16
    9d64:	4501                	li	a0,0
    9d66:	4581                	li	a1,0
    9d68:	4601                	li	a2,0
    9d6a:	4681                	li	a3,0
    9d6c:	4701                	li	a4,0
    9d6e:	4781                	li	a5,0
    9d70:	4801                	li	a6,0
    9d72:	8082                	ret
    9d74:	02e81263          	bne	a6,a4,9d98 <GPIO_PinRemapConfig+0x9c>
    9d78:	40010837          	lui	a6,0x40010
    9d7c:	00482683          	lw	a3,4(a6) # 40010004 <_eusrstack+0x20008004>
    9d80:	f1000737          	lui	a4,0xf1000
    9d84:	177d                	addi	a4,a4,-1 # f0ffffff <_eusrstack+0xd0ff7fff>
    9d86:	8ff9                	and	a5,a5,a4
    9d88:	8f75                	and	a4,a4,a3
    9d8a:	00e82223          	sw	a4,4(a6)
    9d8e:	fdcd                	bnez	a1,9d48 <GPIO_PinRemapConfig+0x4c>
    9d90:	40010737          	lui	a4,0x40010
    9d94:	c35c                	sw	a5,4(a4)
    9d96:	b7e1                	j	9d5e <GPIO_PinRemapConfig+0x62>
    9d98:	00b51713          	slli	a4,a0,0xb
    9d9c:	00075c63          	bgez	a4,9db4 <GPIO_PinRemapConfig+0xb8>
    9da0:	470d                	li	a4,3
    9da2:	00d71733          	sll	a4,a4,a3
    9da6:	fff74713          	not	a4,a4
    9daa:	8f7d                	and	a4,a4,a5
    9dac:	0f0007b7          	lui	a5,0xf000
    9db0:	8fd9                	or	a5,a5,a4
    9db2:	bff1                	j	9d8e <GPIO_PinRemapConfig+0x92>
    9db4:	01555713          	srli	a4,a0,0x15
    9db8:	0712                	slli	a4,a4,0x4
    9dba:	00e61733          	sll	a4,a2,a4
    9dbe:	b7e5                	j	9da6 <GPIO_PinRemapConfig+0xaa>

00009dc0 <I2C_Init>:
    9dc0:	7139                	addi	sp,sp,-64
    9dc2:	dc22                	sw	s0,56(sp)
    9dc4:	da26                	sw	s1,52(sp)
    9dc6:	0080                	addi	s0,sp,64
    9dc8:	d84a                	sw	s2,48(sp)
    9dca:	de06                	sw	ra,60(sp)
    9dcc:	00455903          	lhu	s2,4(a0)
    9dd0:	67c1                	lui	a5,0x10
    9dd2:	84aa                	mv	s1,a0
    9dd4:	fc078793          	addi	a5,a5,-64 # ffc0 <_data_lma+0x4fac>
    9dd8:	fdc40513          	addi	a0,s0,-36
    9ddc:	00f97933          	and	s2,s2,a5
    9de0:	fcb42623          	sw	a1,-52(s0)
    9de4:	2a21                	jal	9efc <RCC_GetClocksFreq>
    9de6:	fe442783          	lw	a5,-28(s0)
    9dea:	000f4737          	lui	a4,0xf4
    9dee:	24070713          	addi	a4,a4,576 # f4240 <_data_lma+0xe922c>
    9df2:	02e7d733          	divu	a4,a5,a4
    9df6:	fcc42583          	lw	a1,-52(s0)
    9dfa:	6641                	lui	a2,0x10
    9dfc:	1679                	addi	a2,a2,-2 # fffe <_data_lma+0x4fea>
    9dfe:	00e96933          	or	s2,s2,a4
    9e02:	01249223          	sh	s2,4(s1)
    9e06:	0004d683          	lhu	a3,0(s1)
    9e0a:	8ef1                	and	a3,a3,a2
    9e0c:	00d49023          	sh	a3,0(s1)
    9e10:	4194                	lw	a3,0(a1)
    9e12:	6661                	lui	a2,0x18
    9e14:	6a060613          	addi	a2,a2,1696 # 186a0 <_data_lma+0xd68c>
    9e18:	06d66863          	bltu	a2,a3,9e88 <I2C_Init+0xc8>
    9e1c:	0686                	slli	a3,a3,0x1
    9e1e:	02d7d6b3          	divu	a3,a5,a3
    9e22:	4611                	li	a2,4
    9e24:	87b6                	mv	a5,a3
    9e26:	06c2                	slli	a3,a3,0x10
    9e28:	82c1                	srli	a3,a3,0x10
    9e2a:	00c6f363          	bgeu	a3,a2,9e30 <I2C_Init+0x70>
    9e2e:	87b2                	mv	a5,a2
    9e30:	0705                	addi	a4,a4,1
    9e32:	02e49023          	sh	a4,32(s1)
    9e36:	00f49e23          	sh	a5,28(s1)
    9e3a:	0004d783          	lhu	a5,0(s1)
    9e3e:	6741                	lui	a4,0x10
    9e40:	bf570713          	addi	a4,a4,-1035 # fbf5 <_data_lma+0x4be1>
    9e44:	0017e793          	ori	a5,a5,1
    9e48:	00f49023          	sh	a5,0(s1)
    9e4c:	0004d783          	lhu	a5,0(s1)
    9e50:	00a5d683          	lhu	a3,10(a1)
    9e54:	50f2                	lw	ra,60(sp)
    9e56:	8ff9                	and	a5,a5,a4
    9e58:	0045d703          	lhu	a4,4(a1)
    9e5c:	5462                	lw	s0,56(sp)
    9e5e:	5942                	lw	s2,48(sp)
    9e60:	8f55                	or	a4,a4,a3
    9e62:	8fd9                	or	a5,a5,a4
    9e64:	00f49023          	sh	a5,0(s1)
    9e68:	0085d703          	lhu	a4,8(a1)
    9e6c:	00c5d783          	lhu	a5,12(a1)
    9e70:	8fd9                	or	a5,a5,a4
    9e72:	00f49423          	sh	a5,8(s1)
    9e76:	54d2                	lw	s1,52(sp)
    9e78:	6121                	addi	sp,sp,64
    9e7a:	4501                	li	a0,0
    9e7c:	4581                	li	a1,0
    9e7e:	4601                	li	a2,0
    9e80:	4681                	li	a3,0
    9e82:	4701                	li	a4,0
    9e84:	4781                	li	a5,0
    9e86:	8082                	ret
    9e88:	0065d503          	lhu	a0,6(a1)
    9e8c:	6631                	lui	a2,0xc
    9e8e:	167d                	addi	a2,a2,-1 # bfff <_data_lma+0xfeb>
    9e90:	02c51763          	bne	a0,a2,9ebe <I2C_Init+0xfe>
    9e94:	460d                	li	a2,3
    9e96:	02c686b3          	mul	a3,a3,a2
    9e9a:	02d7d7b3          	divu	a5,a5,a3
    9e9e:	01479693          	slli	a3,a5,0x14
    9ea2:	e299                	bnez	a3,9ea8 <I2C_Init+0xe8>
    9ea4:	0017e793          	ori	a5,a5,1
    9ea8:	76e1                	lui	a3,0xffff8
    9eaa:	8fd5                	or	a5,a5,a3
    9eac:	12c00693          	li	a3,300
    9eb0:	02d70733          	mul	a4,a4,a3
    9eb4:	3e800693          	li	a3,1000
    9eb8:	02d74733          	div	a4,a4,a3
    9ebc:	bf95                	j	9e30 <I2C_Init+0x70>
    9ebe:	4665                	li	a2,25
    9ec0:	02c686b3          	mul	a3,a3,a2
    9ec4:	02d7d7b3          	divu	a5,a5,a3
    9ec8:	6691                	lui	a3,0x4
    9eca:	8fd5                	or	a5,a5,a3
    9ecc:	bfc9                	j	9e9e <I2C_Init+0xde>

00009ece <I2C_Cmd>:
    9ece:	1141                	addi	sp,sp,-16
    9ed0:	c422                	sw	s0,8(sp)
    9ed2:	c606                	sw	ra,12(sp)
    9ed4:	0800                	addi	s0,sp,16
    9ed6:	00055783          	lhu	a5,0(a0)
    9eda:	cd89                	beqz	a1,9ef4 <I2C_Cmd+0x26>
    9edc:	0017e793          	ori	a5,a5,1
    9ee0:	40b2                	lw	ra,12(sp)
    9ee2:	4422                	lw	s0,8(sp)
    9ee4:	00f51023          	sh	a5,0(a0)
    9ee8:	0141                	addi	sp,sp,16
    9eea:	4501                	li	a0,0
    9eec:	4581                	li	a1,0
    9eee:	4701                	li	a4,0
    9ef0:	4781                	li	a5,0
    9ef2:	8082                	ret
    9ef4:	6741                	lui	a4,0x10
    9ef6:	1779                	addi	a4,a4,-2 # fffe <_data_lma+0x4fea>
    9ef8:	8ff9                	and	a5,a5,a4
    9efa:	b7dd                	j	9ee0 <I2C_Cmd+0x12>

00009efc <RCC_GetClocksFreq>:
    9efc:	1141                	addi	sp,sp,-16
    9efe:	c422                	sw	s0,8(sp)
    9f00:	c606                	sw	ra,12(sp)
    9f02:	0800                	addi	s0,sp,16
    9f04:	40021737          	lui	a4,0x40021
    9f08:	4354                	lw	a3,4(a4)
    9f0a:	007a17b7          	lui	a5,0x7a1
    9f0e:	4621                	li	a2,8
    9f10:	8ab1                	andi	a3,a3,12
    9f12:	20078793          	addi	a5,a5,512 # 7a1200 <_data_lma+0x7961ec>
    9f16:	04c69463          	bne	a3,a2,9f5e <RCC_GetClocksFreq+0x62>
    9f1a:	435c                	lw	a5,4(a4)
    9f1c:	4358                	lw	a4,4(a4)
    9f1e:	66c1                	lui	a3,0x10
    9f20:	83c9                	srli	a5,a5,0x12
    9f22:	8f75                	and	a4,a4,a3
    9f24:	1ffff6b7          	lui	a3,0x1ffff
    9f28:	70c6a683          	lw	a3,1804(a3) # 1ffff70c <_data_lma+0x1fff46f8>
    9f2c:	8bbd                	andi	a5,a5,15
    9f2e:	0789                	addi	a5,a5,2
    9f30:	01169613          	slli	a2,a3,0x11
    9f34:	08064c63          	bltz	a2,9fcc <RCC_GetClocksFreq+0xd0>
    9f38:	46c5                	li	a3,17
    9f3a:	4601                	li	a2,0
    9f3c:	0ad78763          	beq	a5,a3,9fea <RCC_GetClocksFreq+0xee>
    9f40:	e371                	bnez	a4,a004 <RCC_GetClocksFreq+0x108>
    9f42:	40024737          	lui	a4,0x40024
    9f46:	80072703          	lw	a4,-2048(a4) # 40023800 <_eusrstack+0x2001b800>
    9f4a:	8b41                	andi	a4,a4,16
    9f4c:	c75d                	beqz	a4,9ffa <RCC_GetClocksFreq+0xfe>
    9f4e:	007a1737          	lui	a4,0x7a1
    9f52:	20070713          	addi	a4,a4,512 # 7a1200 <_data_lma+0x7961ec>
    9f56:	02e787b3          	mul	a5,a5,a4
    9f5a:	c211                	beqz	a2,9f5e <RCC_GetClocksFreq+0x62>
    9f5c:	8385                	srli	a5,a5,0x1
    9f5e:	c11c                	sw	a5,0(a0)
    9f60:	40021637          	lui	a2,0x40021
    9f64:	4258                	lw	a4,4(a2)
    9f66:	00001697          	auipc	a3,0x1
    9f6a:	08a68693          	addi	a3,a3,138 # aff0 <APBAHBPrescTable>
    9f6e:	40b2                	lw	ra,12(sp)
    9f70:	8311                	srli	a4,a4,0x4
    9f72:	8b3d                	andi	a4,a4,15
    9f74:	9736                	add	a4,a4,a3
    9f76:	00074703          	lbu	a4,0(a4)
    9f7a:	4422                	lw	s0,8(sp)
    9f7c:	00e7d7b3          	srl	a5,a5,a4
    9f80:	c15c                	sw	a5,4(a0)
    9f82:	4258                	lw	a4,4(a2)
    9f84:	8321                	srli	a4,a4,0x8
    9f86:	8b1d                	andi	a4,a4,7
    9f88:	9736                	add	a4,a4,a3
    9f8a:	00074703          	lbu	a4,0(a4)
    9f8e:	00e7d733          	srl	a4,a5,a4
    9f92:	c518                	sw	a4,8(a0)
    9f94:	4258                	lw	a4,4(a2)
    9f96:	832d                	srli	a4,a4,0xb
    9f98:	8b1d                	andi	a4,a4,7
    9f9a:	96ba                	add	a3,a3,a4
    9f9c:	0006c703          	lbu	a4,0(a3)
    9fa0:	87818693          	addi	a3,gp,-1928 # 20000738 <ADCPrescTable>
    9fa4:	00e7d7b3          	srl	a5,a5,a4
    9fa8:	c55c                	sw	a5,12(a0)
    9faa:	4258                	lw	a4,4(a2)
    9fac:	8339                	srli	a4,a4,0xe
    9fae:	8b0d                	andi	a4,a4,3
    9fb0:	9736                	add	a4,a4,a3
    9fb2:	00074703          	lbu	a4,0(a4)
    9fb6:	02e7d7b3          	divu	a5,a5,a4
    9fba:	c91c                	sw	a5,16(a0)
    9fbc:	0141                	addi	sp,sp,16
    9fbe:	4501                	li	a0,0
    9fc0:	4581                	li	a1,0
    9fc2:	4601                	li	a2,0
    9fc4:	4681                	li	a3,0
    9fc6:	4701                	li	a4,0
    9fc8:	4781                	li	a5,0
    9fca:	8082                	ret
    9fcc:	4689                	li	a3,2
    9fce:	00d78d63          	beq	a5,a3,9fe8 <RCC_GetClocksFreq+0xec>
    9fd2:	45bd                	li	a1,15
    9fd4:	00b78d63          	beq	a5,a1,9fee <RCC_GetClocksFreq+0xf2>
    9fd8:	46c1                	li	a3,16
    9fda:	00d78d63          	beq	a5,a3,9ff4 <RCC_GetClocksFreq+0xf8>
    9fde:	00f6f363          	bgeu	a3,a5,9fe4 <RCC_GetClocksFreq+0xe8>
    9fe2:	87b6                	mv	a5,a3
    9fe4:	4601                	li	a2,0
    9fe6:	bfa9                	j	9f40 <RCC_GetClocksFreq+0x44>
    9fe8:	4601                	li	a2,0
    9fea:	47c9                	li	a5,18
    9fec:	bf91                	j	9f40 <RCC_GetClocksFreq+0x44>
    9fee:	4605                	li	a2,1
    9ff0:	47b5                	li	a5,13
    9ff2:	b7b9                	j	9f40 <RCC_GetClocksFreq+0x44>
    9ff4:	4601                	li	a2,0
    9ff6:	87ae                	mv	a5,a1
    9ff8:	b7a1                	j	9f40 <RCC_GetClocksFreq+0x44>
    9ffa:	003d1737          	lui	a4,0x3d1
    9ffe:	90070713          	addi	a4,a4,-1792 # 3d0900 <_data_lma+0x3c58ec>
    a002:	bf91                	j	9f56 <RCC_GetClocksFreq+0x5a>
    a004:	400215b7          	lui	a1,0x40021
    a008:	55d8                	lw	a4,44(a1)
    a00a:	00f71693          	slli	a3,a4,0xf
    a00e:	0406da63          	bgez	a3,a062 <RCC_GetClocksFreq+0x166>
    a012:	55d4                	lw	a3,44(a1)
    a014:	007a1737          	lui	a4,0x7a1
    a018:	20070713          	addi	a4,a4,512 # 7a1200 <_data_lma+0x7961ec>
    a01c:	8291                	srli	a3,a3,0x4
    a01e:	8abd                	andi	a3,a3,15
    a020:	0685                	addi	a3,a3,1
    a022:	02d75733          	divu	a4,a4,a3
    a026:	55d4                	lw	a3,44(a1)
    a028:	82a1                	srli	a3,a3,0x8
    a02a:	8abd                	andi	a3,a3,15
    a02c:	ee89                	bnez	a3,a046 <RCC_GetClocksFreq+0x14a>
    a02e:	4695                	li	a3,5
    a030:	02d70733          	mul	a4,a4,a3
    a034:	8305                	srli	a4,a4,0x1
    a036:	400216b7          	lui	a3,0x40021
    a03a:	56d4                	lw	a3,44(a3)
    a03c:	8abd                	andi	a3,a3,15
    a03e:	0685                	addi	a3,a3,1 # 40021001 <_eusrstack+0x20019001>
    a040:	02d75733          	divu	a4,a4,a3
    a044:	bf09                	j	9f56 <RCC_GetClocksFreq+0x5a>
    a046:	4585                	li	a1,1
    a048:	00b69463          	bne	a3,a1,a050 <RCC_GetClocksFreq+0x154>
    a04c:	46e5                	li	a3,25
    a04e:	b7cd                	j	a030 <RCC_GetClocksFreq+0x134>
    a050:	45bd                	li	a1,15
    a052:	00b69663          	bne	a3,a1,a05e <RCC_GetClocksFreq+0x162>
    a056:	46d1                	li	a3,20
    a058:	02e68733          	mul	a4,a3,a4
    a05c:	bfe9                	j	a036 <RCC_GetClocksFreq+0x13a>
    a05e:	0689                	addi	a3,a3,2
    a060:	bfe5                	j	a058 <RCC_GetClocksFreq+0x15c>
    a062:	55d4                	lw	a3,44(a1)
    a064:	007a1737          	lui	a4,0x7a1
    a068:	20070713          	addi	a4,a4,512 # 7a1200 <_data_lma+0x7961ec>
    a06c:	8abd                	andi	a3,a3,15
    a06e:	0685                	addi	a3,a3,1
    a070:	bfc1                	j	a040 <RCC_GetClocksFreq+0x144>

0000a072 <RCC_APB2PeriphClockCmd>:
    a072:	1141                	addi	sp,sp,-16
    a074:	c422                	sw	s0,8(sp)
    a076:	c606                	sw	ra,12(sp)
    a078:	0800                	addi	s0,sp,16
    a07a:	400217b7          	lui	a5,0x40021
    a07e:	4f98                	lw	a4,24(a5)
    a080:	c999                	beqz	a1,a096 <RCC_APB2PeriphClockCmd+0x24>
    a082:	8f49                	or	a4,a4,a0
    a084:	cf98                	sw	a4,24(a5)
    a086:	40b2                	lw	ra,12(sp)
    a088:	4422                	lw	s0,8(sp)
    a08a:	0141                	addi	sp,sp,16
    a08c:	4501                	li	a0,0
    a08e:	4581                	li	a1,0
    a090:	4701                	li	a4,0
    a092:	4781                	li	a5,0
    a094:	8082                	ret
    a096:	fff54513          	not	a0,a0
    a09a:	8d79                	and	a0,a0,a4
    a09c:	cf88                	sw	a0,24(a5)
    a09e:	b7e5                	j	a086 <RCC_APB2PeriphClockCmd+0x14>

0000a0a0 <RCC_APB1PeriphClockCmd>:
    a0a0:	1141                	addi	sp,sp,-16
    a0a2:	c422                	sw	s0,8(sp)
    a0a4:	c606                	sw	ra,12(sp)
    a0a6:	0800                	addi	s0,sp,16
    a0a8:	400217b7          	lui	a5,0x40021
    a0ac:	4fd8                	lw	a4,28(a5)
    a0ae:	c999                	beqz	a1,a0c4 <RCC_APB1PeriphClockCmd+0x24>
    a0b0:	8f49                	or	a4,a4,a0
    a0b2:	cfd8                	sw	a4,28(a5)
    a0b4:	40b2                	lw	ra,12(sp)
    a0b6:	4422                	lw	s0,8(sp)
    a0b8:	0141                	addi	sp,sp,16
    a0ba:	4501                	li	a0,0
    a0bc:	4581                	li	a1,0
    a0be:	4701                	li	a4,0
    a0c0:	4781                	li	a5,0
    a0c2:	8082                	ret
    a0c4:	fff54513          	not	a0,a0
    a0c8:	8d79                	and	a0,a0,a4
    a0ca:	cfc8                	sw	a0,28(a5)
    a0cc:	b7e5                	j	a0b4 <RCC_APB1PeriphClockCmd+0x14>

0000a0ce <SystemInit>:
    a0ce:	1101                	addi	sp,sp,-32
    a0d0:	400217b7          	lui	a5,0x40021
    a0d4:	cc22                	sw	s0,24(sp)
    a0d6:	ce06                	sw	ra,28(sp)
    a0d8:	1000                	addi	s0,sp,32
    a0da:	4398                	lw	a4,0(a5)
    a0dc:	f8ff06b7          	lui	a3,0xf8ff0
    a0e0:	00020637          	lui	a2,0x20
    a0e4:	00176713          	ori	a4,a4,1
    a0e8:	c398                	sw	a4,0(a5)
    a0ea:	43d8                	lw	a4,4(a5)
    a0ec:	8f75                	and	a4,a4,a3
    a0ee:	c3d8                	sw	a4,4(a5)
    a0f0:	4398                	lw	a4,0(a5)
    a0f2:	fef706b7          	lui	a3,0xfef70
    a0f6:	16fd                	addi	a3,a3,-1 # fef6ffff <_eusrstack+0xdef67fff>
    a0f8:	8f75                	and	a4,a4,a3
    a0fa:	c398                	sw	a4,0(a5)
    a0fc:	4398                	lw	a4,0(a5)
    a0fe:	fffc06b7          	lui	a3,0xfffc0
    a102:	16fd                	addi	a3,a3,-1 # fffbffff <_eusrstack+0xdffb7fff>
    a104:	8f75                	and	a4,a4,a3
    a106:	c398                	sw	a4,0(a5)
    a108:	43d8                	lw	a4,4(a5)
    a10a:	ff8106b7          	lui	a3,0xff810
    a10e:	16fd                	addi	a3,a3,-1 # ff80ffff <_eusrstack+0xdf807fff>
    a110:	8f75                	and	a4,a4,a3
    a112:	c3d8                	sw	a4,4(a5)
    a114:	4398                	lw	a4,0(a5)
    a116:	ec0006b7          	lui	a3,0xec000
    a11a:	16fd                	addi	a3,a3,-1 # ebffffff <_eusrstack+0xcbff7fff>
    a11c:	8f75                	and	a4,a4,a3
    a11e:	c398                	sw	a4,0(a5)
    a120:	00ff0737          	lui	a4,0xff0
    a124:	c798                	sw	a4,8(a5)
    a126:	0207a623          	sw	zero,44(a5) # 4002102c <_eusrstack+0x2001902c>
    a12a:	fe042423          	sw	zero,-24(s0)
    a12e:	fe042623          	sw	zero,-20(s0)
    a132:	4398                	lw	a4,0(a5)
    a134:	66c1                	lui	a3,0x10
    a136:	8f55                	or	a4,a4,a3
    a138:	c398                	sw	a4,0(a5)
    a13a:	6685                	lui	a3,0x1
    a13c:	4398                	lw	a4,0(a5)
    a13e:	8f71                	and	a4,a4,a2
    a140:	fee42623          	sw	a4,-20(s0)
    a144:	fe842703          	lw	a4,-24(s0)
    a148:	0705                	addi	a4,a4,1 # ff0001 <_data_lma+0xfe4fed>
    a14a:	fee42423          	sw	a4,-24(s0)
    a14e:	fec42703          	lw	a4,-20(s0)
    a152:	e709                	bnez	a4,a15c <SystemInit+0x8e>
    a154:	fe842703          	lw	a4,-24(s0)
    a158:	fed712e3          	bne	a4,a3,a13c <SystemInit+0x6e>
    a15c:	4398                	lw	a4,0(a5)
    a15e:	4785                	li	a5,1
    a160:	00e71693          	slli	a3,a4,0xe
    a164:	0606dd63          	bgez	a3,a1de <SystemInit+0x110>
    a168:	fef42623          	sw	a5,-20(s0)
    a16c:	fec42703          	lw	a4,-20(s0)
    a170:	04f71f63          	bne	a4,a5,a1ce <SystemInit+0x100>
    a174:	400217b7          	lui	a5,0x40021
    a178:	43d8                	lw	a4,4(a5)
    a17a:	ffc106b7          	lui	a3,0xffc10
    a17e:	16fd                	addi	a3,a3,-1 # ffc0ffff <_eusrstack+0xdfc07fff>
    a180:	c3d8                	sw	a4,4(a5)
    a182:	43d8                	lw	a4,4(a5)
    a184:	c3d8                	sw	a4,4(a5)
    a186:	43d8                	lw	a4,4(a5)
    a188:	40076713          	ori	a4,a4,1024
    a18c:	c3d8                	sw	a4,4(a5)
    a18e:	43d8                	lw	a4,4(a5)
    a190:	8f75                	and	a4,a4,a3
    a192:	c3d8                	sw	a4,4(a5)
    a194:	43d8                	lw	a4,4(a5)
    a196:	002906b7          	lui	a3,0x290
    a19a:	8f55                	or	a4,a4,a3
    a19c:	c3d8                	sw	a4,4(a5)
    a19e:	4398                	lw	a4,0(a5)
    a1a0:	010006b7          	lui	a3,0x1000
    a1a4:	8f55                	or	a4,a4,a3
    a1a6:	c398                	sw	a4,0(a5)
    a1a8:	4398                	lw	a4,0(a5)
    a1aa:	00671693          	slli	a3,a4,0x6
    a1ae:	fe06dde3          	bgez	a3,a1a8 <SystemInit+0xda>
    a1b2:	43d8                	lw	a4,4(a5)
    a1b4:	400216b7          	lui	a3,0x40021
    a1b8:	9b71                	andi	a4,a4,-4
    a1ba:	c3d8                	sw	a4,4(a5)
    a1bc:	43d8                	lw	a4,4(a5)
    a1be:	00276713          	ori	a4,a4,2
    a1c2:	c3d8                	sw	a4,4(a5)
    a1c4:	4721                	li	a4,8
    a1c6:	42dc                	lw	a5,4(a3)
    a1c8:	8bb1                	andi	a5,a5,12
    a1ca:	fee79ee3          	bne	a5,a4,a1c6 <SystemInit+0xf8>
    a1ce:	40f2                	lw	ra,28(sp)
    a1d0:	4462                	lw	s0,24(sp)
    a1d2:	6105                	addi	sp,sp,32
    a1d4:	4601                	li	a2,0
    a1d6:	4681                	li	a3,0
    a1d8:	4701                	li	a4,0
    a1da:	4781                	li	a5,0
    a1dc:	8082                	ret
    a1de:	fe042623          	sw	zero,-20(s0)
    a1e2:	b769                	j	a16c <SystemInit+0x9e>

0000a1e4 <SystemCoreClockUpdate>:
    a1e4:	1141                	addi	sp,sp,-16
    a1e6:	c422                	sw	s0,8(sp)
    a1e8:	c606                	sw	ra,12(sp)
    a1ea:	0800                	addi	s0,sp,16
    a1ec:	40021737          	lui	a4,0x40021
    a1f0:	4354                	lw	a3,4(a4)
    a1f2:	007a17b7          	lui	a5,0x7a1
    a1f6:	4621                	li	a2,8
    a1f8:	8ab1                	andi	a3,a3,12
    a1fa:	20078793          	addi	a5,a5,512 # 7a1200 <_data_lma+0x7961ec>
    a1fe:	06c69763          	bne	a3,a2,a26c <SystemCoreClockUpdate+0x88>
    a202:	435c                	lw	a5,4(a4)
    a204:	4354                	lw	a3,4(a4)
    a206:	6741                	lui	a4,0x10
    a208:	83c9                	srli	a5,a5,0x12
    a20a:	8bbd                	andi	a5,a5,15
    a20c:	8ef9                	and	a3,a3,a4
    a20e:	00278613          	addi	a2,a5,2
    a212:	cf89                	beqz	a5,a22c <SystemCoreClockUpdate+0x48>
    a214:	47bd                	li	a5,15
    a216:	02f60963          	beq	a2,a5,a248 <SystemCoreClockUpdate+0x64>
    a21a:	4741                	li	a4,16
    a21c:	00e60663          	beq	a2,a4,a228 <SystemCoreClockUpdate+0x44>
    a220:	87b2                	mv	a5,a2
    a222:	00c77363          	bgeu	a4,a2,a228 <SystemCoreClockUpdate+0x44>
    a226:	87ba                	mv	a5,a4
    a228:	4701                	li	a4,0
    a22a:	a019                	j	a230 <SystemCoreClockUpdate+0x4c>
    a22c:	4701                	li	a4,0
    a22e:	47c9                	li	a5,18
    a230:	ee99                	bnez	a3,a24e <SystemCoreClockUpdate+0x6a>
    a232:	400246b7          	lui	a3,0x40024
    a236:	8006a683          	lw	a3,-2048(a3) # 40023800 <_eusrstack+0x2001b800>
    a23a:	8ac1                	andi	a3,a3,16
    a23c:	c285                	beqz	a3,a25c <SystemCoreClockUpdate+0x78>
    a23e:	007a16b7          	lui	a3,0x7a1
    a242:	20068693          	addi	a3,a3,512 # 7a1200 <_data_lma+0x7961ec>
    a246:	a839                	j	a264 <SystemCoreClockUpdate+0x80>
    a248:	4705                	li	a4,1
    a24a:	47b5                	li	a5,13
    a24c:	b7d5                	j	a230 <SystemCoreClockUpdate+0x4c>
    a24e:	400216b7          	lui	a3,0x40021
    a252:	42d4                	lw	a3,4(a3)
    a254:	00e69613          	slli	a2,a3,0xe
    a258:	fe0653e3          	bgez	a2,a23e <SystemCoreClockUpdate+0x5a>
    a25c:	003d16b7          	lui	a3,0x3d1
    a260:	90068693          	addi	a3,a3,-1792 # 3d0900 <_data_lma+0x3c58ec>
    a264:	02d787b3          	mul	a5,a5,a3
    a268:	c311                	beqz	a4,a26c <SystemCoreClockUpdate+0x88>
    a26a:	8385                	srli	a5,a5,0x1
    a26c:	1fff6717          	auipc	a4,0x1fff6
    a270:	44f72a23          	sw	a5,1108(a4) # 200006c0 <SystemCoreClock>
    a274:	40021737          	lui	a4,0x40021
    a278:	4358                	lw	a4,4(a4)
    a27a:	00001697          	auipc	a3,0x1
    a27e:	d8668693          	addi	a3,a3,-634 # b000 <AHBPrescTable>
    a282:	40b2                	lw	ra,12(sp)
    a284:	8311                	srli	a4,a4,0x4
    a286:	8b3d                	andi	a4,a4,15
    a288:	9736                	add	a4,a4,a3
    a28a:	00074703          	lbu	a4,0(a4) # 40021000 <_eusrstack+0x20019000>
    a28e:	4422                	lw	s0,8(sp)
    a290:	00e7d7b3          	srl	a5,a5,a4
    a294:	1fff6717          	auipc	a4,0x1fff6
    a298:	42f72623          	sw	a5,1068(a4) # 200006c0 <SystemCoreClock>
    a29c:	0141                	addi	sp,sp,16
    a29e:	4601                	li	a2,0
    a2a0:	4681                	li	a3,0
    a2a2:	4701                	li	a4,0
    a2a4:	4781                	li	a5,0
    a2a6:	8082                	ret

0000a2a8 <Delay_Init>:
    a2a8:	1141                	addi	sp,sp,-16
    a2aa:	c422                	sw	s0,8(sp)
    a2ac:	c606                	sw	ra,12(sp)
    a2ae:	0800                	addi	s0,sp,16
    a2b0:	1fff6797          	auipc	a5,0x1fff6
    a2b4:	4107a783          	lw	a5,1040(a5) # 200006c0 <SystemCoreClock>
    a2b8:	007a1737          	lui	a4,0x7a1
    a2bc:	20070713          	addi	a4,a4,512 # 7a1200 <_data_lma+0x7961ec>
    a2c0:	02e7d7b3          	divu	a5,a5,a4
    a2c4:	40b2                	lw	ra,12(sp)
    a2c6:	4422                	lw	s0,8(sp)
    a2c8:	0ff7f793          	zext.b	a5,a5
    a2cc:	88f18223          	sb	a5,-1916(gp) # 20000744 <p_us>
    a2d0:	3e800713          	li	a4,1000
    a2d4:	02e787b3          	mul	a5,a5,a4
    a2d8:	88f19123          	sh	a5,-1918(gp) # 20000742 <p_ms>
    a2dc:	0141                	addi	sp,sp,16
    a2de:	4701                	li	a4,0
    a2e0:	4781                	li	a5,0
    a2e2:	8082                	ret

0000a2e4 <Delay_Ms>:
    a2e4:	1141                	addi	sp,sp,-16
    a2e6:	e000f7b7          	lui	a5,0xe000f
    a2ea:	c422                	sw	s0,8(sp)
    a2ec:	c606                	sw	ra,12(sp)
    a2ee:	0800                	addi	s0,sp,16
    a2f0:	43d8                	lw	a4,4(a5)
    a2f2:	4681                	li	a3,0
    a2f4:	9b79                	andi	a4,a4,-2
    a2f6:	c3d8                	sw	a4,4(a5)
    a2f8:	8821d703          	lhu	a4,-1918(gp) # 20000742 <p_ms>
    a2fc:	02a70633          	mul	a2,a4,a0
    a300:	cb90                	sw	a2,16(a5)
    a302:	cbd4                	sw	a3,20(a5)
    a304:	4398                	lw	a4,0(a5)
    a306:	01076713          	ori	a4,a4,16
    a30a:	c398                	sw	a4,0(a5)
    a30c:	4398                	lw	a4,0(a5)
    a30e:	02176713          	ori	a4,a4,33
    a312:	c398                	sw	a4,0(a5)
    a314:	43d8                	lw	a4,4(a5)
    a316:	8b05                	andi	a4,a4,1
    a318:	df75                	beqz	a4,a314 <Delay_Ms+0x30>
    a31a:	4398                	lw	a4,0(a5)
    a31c:	40b2                	lw	ra,12(sp)
    a31e:	4422                	lw	s0,8(sp)
    a320:	9b79                	andi	a4,a4,-2
    a322:	c398                	sw	a4,0(a5)
    a324:	0141                	addi	sp,sp,16
    a326:	4501                	li	a0,0
    a328:	4601                	li	a2,0
    a32a:	4681                	li	a3,0
    a32c:	4701                	li	a4,0
    a32e:	4781                	li	a5,0
    a330:	8082                	ret

0000a332 <USART_Printf_Init>:
    a332:	7179                	addi	sp,sp,-48
    a334:	d226                	sw	s1,36(sp)
    a336:	84aa                	mv	s1,a0
    a338:	6511                	lui	a0,0x4
    a33a:	d606                	sw	ra,44(sp)
    a33c:	d422                	sw	s0,40(sp)
    a33e:	4585                	li	a1,1
    a340:	1800                	addi	s0,sp,48
    a342:	0511                	addi	a0,a0,4 # 4004 <memset+0x84>
    a344:	d2fff0ef          	jal	a072 <RCC_APB2PeriphClockCmd>
    a348:	20000793          	li	a5,512
    a34c:	fcf41a23          	sh	a5,-44(s0)
    a350:	40011537          	lui	a0,0x40011
    a354:	478d                	li	a5,3
    a356:	fcf42c23          	sw	a5,-40(s0)
    a35a:	fd440593          	addi	a1,s0,-44
    a35e:	47e1                	li	a5,24
    a360:	80050513          	addi	a0,a0,-2048 # 40010800 <_eusrstack+0x20008800>
    a364:	fcf42e23          	sw	a5,-36(s0)
    a368:	893ff0ef          	jal	9bfa <GPIO_Init>
    a36c:	40014537          	lui	a0,0x40014
    a370:	000807b7          	lui	a5,0x80
    a374:	fe040593          	addi	a1,s0,-32
    a378:	80050513          	addi	a0,a0,-2048 # 40013800 <_eusrstack+0x2000b800>
    a37c:	fe942023          	sw	s1,-32(s0)
    a380:	fef42423          	sw	a5,-24(s0)
    a384:	fe042223          	sw	zero,-28(s0)
    a388:	fe041623          	sh	zero,-20(s0)
    a38c:	2c0d                	jal	a5be <USART_Init>
    a38e:	40014537          	lui	a0,0x40014
    a392:	4585                	li	a1,1
    a394:	80050513          	addi	a0,a0,-2048 # 40013800 <_eusrstack+0x2000b800>
    a398:	2639                	jal	a6a6 <USART_Cmd>
    a39a:	50b2                	lw	ra,44(sp)
    a39c:	5422                	lw	s0,40(sp)
    a39e:	5492                	lw	s1,36(sp)
    a3a0:	6145                	addi	sp,sp,48
    a3a2:	4501                	li	a0,0
    a3a4:	4581                	li	a1,0
    a3a6:	4781                	li	a5,0
    a3a8:	8082                	ret

0000a3aa <_write>:
    a3aa:	1101                	addi	sp,sp,-32
    a3ac:	cc22                	sw	s0,24(sp)
    a3ae:	ca26                	sw	s1,20(sp)
    a3b0:	c84a                	sw	s2,16(sp)
    a3b2:	c64e                	sw	s3,12(sp)
    a3b4:	ce06                	sw	ra,28(sp)
    a3b6:	1000                	addi	s0,sp,32
    a3b8:	89ae                	mv	s3,a1
    a3ba:	8932                	mv	s2,a2
    a3bc:	4481                	li	s1,0
    a3be:	0124cd63          	blt	s1,s2,a3d8 <_write+0x2e>
    a3c2:	40f2                	lw	ra,28(sp)
    a3c4:	4462                	lw	s0,24(sp)
    a3c6:	44d2                	lw	s1,20(sp)
    a3c8:	49b2                	lw	s3,12(sp)
    a3ca:	854a                	mv	a0,s2
    a3cc:	4942                	lw	s2,16(sp)
    a3ce:	6105                	addi	sp,sp,32
    a3d0:	4581                	li	a1,0
    a3d2:	4601                	li	a2,0
    a3d4:	4781                	li	a5,0
    a3d6:	8082                	ret
    a3d8:	40014537          	lui	a0,0x40014
    a3dc:	04000593          	li	a1,64
    a3e0:	80050513          	addi	a0,a0,-2048 # 40013800 <_eusrstack+0x2000b800>
    a3e4:	2631                	jal	a6f0 <USART_GetFlagStatus>
    a3e6:	d96d                	beqz	a0,a3d8 <_write+0x2e>
    a3e8:	009987b3          	add	a5,s3,s1
    a3ec:	0007c583          	lbu	a1,0(a5) # 80000 <_data_lma+0x74fec>
    a3f0:	40014537          	lui	a0,0x40014
    a3f4:	80050513          	addi	a0,a0,-2048 # 40013800 <_eusrstack+0x2000b800>
    a3f8:	2cf1                	jal	a6d4 <USART_SendData>
    a3fa:	0485                	addi	s1,s1,1
    a3fc:	b7c9                	j	a3be <_write+0x14>

0000a3fe <_sbrk>:
    a3fe:	1141                	addi	sp,sp,-16
    a400:	c422                	sw	s0,8(sp)
    a402:	c606                	sw	ra,12(sp)
    a404:	0800                	addi	s0,sp,16
    a406:	1fff6717          	auipc	a4,0x1fff6
    a40a:	2be70713          	addi	a4,a4,702 # 200006c4 <curbrk.0>
    a40e:	87aa                	mv	a5,a0
    a410:	4308                	lw	a0,0(a4)
    a412:	1fffd697          	auipc	a3,0x1fffd
    a416:	3ee68693          	addi	a3,a3,1006 # 20007800 <_heap_end>
    a41a:	97aa                	add	a5,a5,a0
    a41c:	02f6e063          	bltu	a3,a5,a43c <_sbrk+0x3e>
    a420:	1fff7697          	auipc	a3,0x1fff7
    a424:	a5068693          	addi	a3,a3,-1456 # 20000e70 <_ebss>
    a428:	00d7ea63          	bltu	a5,a3,a43c <_sbrk+0x3e>
    a42c:	c31c                	sw	a5,0(a4)
    a42e:	40b2                	lw	ra,12(sp)
    a430:	4422                	lw	s0,8(sp)
    a432:	0141                	addi	sp,sp,16
    a434:	4681                	li	a3,0
    a436:	4701                	li	a4,0
    a438:	4781                	li	a5,0
    a43a:	8082                	ret
    a43c:	557d                	li	a0,-1
    a43e:	bfc5                	j	a42e <_sbrk+0x30>

0000a440 <_fini>:
    a440:	1141                	addi	sp,sp,-16
    a442:	c422                	sw	s0,8(sp)
    a444:	c606                	sw	ra,12(sp)
    a446:	0800                	addi	s0,sp,16
    a448:	40b2                	lw	ra,12(sp)
    a44a:	4422                	lw	s0,8(sp)
    a44c:	0141                	addi	sp,sp,16
    a44e:	8082                	ret

0000a450 <_init>:
    a450:	1141                	addi	sp,sp,-16
    a452:	c422                	sw	s0,8(sp)
    a454:	c606                	sw	ra,12(sp)
    a456:	0800                	addi	s0,sp,16
    a458:	40b2                	lw	ra,12(sp)
    a45a:	4422                	lw	s0,8(sp)
    a45c:	0141                	addi	sp,sp,16
    a45e:	8082                	ret

0000a460 <NMI_Handler>:
    a460:	a001                	j	a460 <NMI_Handler>

0000a462 <HardFault_Handler>:
    a462:	a001                	j	a462 <HardFault_Handler>

0000a464 <Ecall_M_Mode_Handler>:
    a464:	a001                	j	a464 <Ecall_M_Mode_Handler>

0000a466 <Ecall_U_Mode_Handler>:
    a466:	a001                	j	a466 <Ecall_U_Mode_Handler>

0000a468 <Break_Point_Handler>:
    a468:	a001                	j	a468 <Break_Point_Handler>

0000a46a <SysTick_Handler>:
    a46a:	a001                	j	a46a <SysTick_Handler>

0000a46c <SW_Handler>:
    a46c:	a001                	j	a46c <SW_Handler>

0000a46e <WWDG_IRQHandler>:
    a46e:	a001                	j	a46e <WWDG_IRQHandler>

0000a470 <PVD_IRQHandler>:
    a470:	a001                	j	a470 <PVD_IRQHandler>

0000a472 <TAMPER_IRQHandler>:
    a472:	a001                	j	a472 <TAMPER_IRQHandler>

0000a474 <RTC_IRQHandler>:
    a474:	a001                	j	a474 <RTC_IRQHandler>

0000a476 <FLASH_IRQHandler>:
    a476:	a001                	j	a476 <FLASH_IRQHandler>

0000a478 <RCC_IRQHandler>:
    a478:	a001                	j	a478 <RCC_IRQHandler>

0000a47a <EXTI0_IRQHandler>:
    a47a:	a001                	j	a47a <EXTI0_IRQHandler>

0000a47c <EXTI1_IRQHandler>:
    a47c:	a001                	j	a47c <EXTI1_IRQHandler>

0000a47e <EXTI2_IRQHandler>:
    a47e:	a001                	j	a47e <EXTI2_IRQHandler>

0000a480 <EXTI3_IRQHandler>:
    a480:	a001                	j	a480 <EXTI3_IRQHandler>

0000a482 <EXTI4_IRQHandler>:
    a482:	a001                	j	a482 <EXTI4_IRQHandler>

0000a484 <DMA1_Channel1_IRQHandler>:
    a484:	a001                	j	a484 <DMA1_Channel1_IRQHandler>

0000a486 <DMA1_Channel2_IRQHandler>:
    a486:	a001                	j	a486 <DMA1_Channel2_IRQHandler>

0000a488 <DMA1_Channel3_IRQHandler>:
    a488:	a001                	j	a488 <DMA1_Channel3_IRQHandler>

0000a48a <DMA1_Channel4_IRQHandler>:
    a48a:	a001                	j	a48a <DMA1_Channel4_IRQHandler>

0000a48c <DMA1_Channel5_IRQHandler>:
    a48c:	a001                	j	a48c <DMA1_Channel5_IRQHandler>

0000a48e <DMA1_Channel6_IRQHandler>:
    a48e:	a001                	j	a48e <DMA1_Channel6_IRQHandler>

0000a490 <DMA1_Channel7_IRQHandler>:
    a490:	a001                	j	a490 <DMA1_Channel7_IRQHandler>

0000a492 <ADC1_2_IRQHandler>:
    a492:	a001                	j	a492 <ADC1_2_IRQHandler>

0000a494 <USB_HP_CAN1_TX_IRQHandler>:
    a494:	a001                	j	a494 <USB_HP_CAN1_TX_IRQHandler>

0000a496 <USB_LP_CAN1_RX0_IRQHandler>:
    a496:	a001                	j	a496 <USB_LP_CAN1_RX0_IRQHandler>

0000a498 <CAN1_RX1_IRQHandler>:
    a498:	a001                	j	a498 <CAN1_RX1_IRQHandler>

0000a49a <CAN1_SCE_IRQHandler>:
    a49a:	a001                	j	a49a <CAN1_SCE_IRQHandler>

0000a49c <EXTI9_5_IRQHandler>:
    a49c:	a001                	j	a49c <EXTI9_5_IRQHandler>

0000a49e <TIM1_BRK_IRQHandler>:
    a49e:	a001                	j	a49e <TIM1_BRK_IRQHandler>

0000a4a0 <TIM1_UP_IRQHandler>:
    a4a0:	a001                	j	a4a0 <TIM1_UP_IRQHandler>

0000a4a2 <TIM1_TRG_COM_IRQHandler>:
    a4a2:	a001                	j	a4a2 <TIM1_TRG_COM_IRQHandler>

0000a4a4 <TIM1_CC_IRQHandler>:
    a4a4:	a001                	j	a4a4 <TIM1_CC_IRQHandler>

0000a4a6 <TIM2_IRQHandler>:
    a4a6:	a001                	j	a4a6 <TIM2_IRQHandler>

0000a4a8 <TIM3_IRQHandler>:
    a4a8:	a001                	j	a4a8 <TIM3_IRQHandler>

0000a4aa <TIM4_IRQHandler>:
    a4aa:	a001                	j	a4aa <TIM4_IRQHandler>

0000a4ac <I2C1_EV_IRQHandler>:
    a4ac:	a001                	j	a4ac <I2C1_EV_IRQHandler>

0000a4ae <I2C1_ER_IRQHandler>:
    a4ae:	a001                	j	a4ae <I2C1_ER_IRQHandler>

0000a4b0 <I2C2_EV_IRQHandler>:
    a4b0:	a001                	j	a4b0 <I2C2_EV_IRQHandler>

0000a4b2 <I2C2_ER_IRQHandler>:
    a4b2:	a001                	j	a4b2 <I2C2_ER_IRQHandler>

0000a4b4 <SPI1_IRQHandler>:
    a4b4:	a001                	j	a4b4 <SPI1_IRQHandler>

0000a4b6 <SPI2_IRQHandler>:
    a4b6:	a001                	j	a4b6 <SPI2_IRQHandler>

0000a4b8 <USART1_IRQHandler>:
    a4b8:	a001                	j	a4b8 <USART1_IRQHandler>

0000a4ba <USART2_IRQHandler>:
    a4ba:	a001                	j	a4ba <USART2_IRQHandler>

0000a4bc <USART3_IRQHandler>:
    a4bc:	a001                	j	a4bc <USART3_IRQHandler>

0000a4be <EXTI15_10_IRQHandler>:
    a4be:	a001                	j	a4be <EXTI15_10_IRQHandler>

0000a4c0 <RTCAlarm_IRQHandler>:
    a4c0:	a001                	j	a4c0 <RTCAlarm_IRQHandler>

0000a4c2 <USBWakeUp_IRQHandler>:
    a4c2:	a001                	j	a4c2 <USBWakeUp_IRQHandler>

0000a4c4 <TIM8_BRK_IRQHandler>:
    a4c4:	a001                	j	a4c4 <TIM8_BRK_IRQHandler>

0000a4c6 <TIM8_UP_IRQHandler>:
    a4c6:	a001                	j	a4c6 <TIM8_UP_IRQHandler>

0000a4c8 <TIM8_TRG_COM_IRQHandler>:
    a4c8:	a001                	j	a4c8 <TIM8_TRG_COM_IRQHandler>

0000a4ca <TIM8_CC_IRQHandler>:
    a4ca:	a001                	j	a4ca <TIM8_CC_IRQHandler>

0000a4cc <RNG_IRQHandler>:
    a4cc:	a001                	j	a4cc <RNG_IRQHandler>

0000a4ce <FSMC_IRQHandler>:
    a4ce:	a001                	j	a4ce <FSMC_IRQHandler>

0000a4d0 <SDIO_IRQHandler>:
    a4d0:	a001                	j	a4d0 <SDIO_IRQHandler>

0000a4d2 <TIM5_IRQHandler>:
    a4d2:	a001                	j	a4d2 <TIM5_IRQHandler>

0000a4d4 <SPI3_IRQHandler>:
    a4d4:	a001                	j	a4d4 <SPI3_IRQHandler>

0000a4d6 <UART4_IRQHandler>:
    a4d6:	a001                	j	a4d6 <UART4_IRQHandler>

0000a4d8 <UART5_IRQHandler>:
    a4d8:	a001                	j	a4d8 <UART5_IRQHandler>

0000a4da <TIM6_IRQHandler>:
    a4da:	a001                	j	a4da <TIM6_IRQHandler>

0000a4dc <TIM7_IRQHandler>:
    a4dc:	a001                	j	a4dc <TIM7_IRQHandler>

0000a4de <DMA2_Channel1_IRQHandler>:
    a4de:	a001                	j	a4de <DMA2_Channel1_IRQHandler>

0000a4e0 <DMA2_Channel2_IRQHandler>:
    a4e0:	a001                	j	a4e0 <DMA2_Channel2_IRQHandler>

0000a4e2 <DMA2_Channel3_IRQHandler>:
    a4e2:	a001                	j	a4e2 <DMA2_Channel3_IRQHandler>

0000a4e4 <DMA2_Channel4_IRQHandler>:
    a4e4:	a001                	j	a4e4 <DMA2_Channel4_IRQHandler>

0000a4e6 <DMA2_Channel5_IRQHandler>:
    a4e6:	a001                	j	a4e6 <DMA2_Channel5_IRQHandler>

0000a4e8 <ETH_IRQHandler>:
    a4e8:	a001                	j	a4e8 <ETH_IRQHandler>

0000a4ea <ETH_WKUP_IRQHandler>:
    a4ea:	a001                	j	a4ea <ETH_WKUP_IRQHandler>

0000a4ec <CAN2_TX_IRQHandler>:
    a4ec:	a001                	j	a4ec <CAN2_TX_IRQHandler>

0000a4ee <CAN2_RX0_IRQHandler>:
    a4ee:	a001                	j	a4ee <CAN2_RX0_IRQHandler>

0000a4f0 <CAN2_RX1_IRQHandler>:
    a4f0:	a001                	j	a4f0 <CAN2_RX1_IRQHandler>

0000a4f2 <CAN2_SCE_IRQHandler>:
    a4f2:	a001                	j	a4f2 <CAN2_SCE_IRQHandler>

0000a4f4 <OTG_FS_IRQHandler>:
    a4f4:	a001                	j	a4f4 <OTG_FS_IRQHandler>

0000a4f6 <USBHSWakeup_IRQHandler>:
    a4f6:	a001                	j	a4f6 <USBHSWakeup_IRQHandler>

0000a4f8 <USBHS_IRQHandler>:
    a4f8:	a001                	j	a4f8 <USBHS_IRQHandler>

0000a4fa <DVP_IRQHandler>:
    a4fa:	a001                	j	a4fa <DVP_IRQHandler>

0000a4fc <UART6_IRQHandler>:
    a4fc:	a001                	j	a4fc <UART6_IRQHandler>

0000a4fe <UART7_IRQHandler>:
    a4fe:	a001                	j	a4fe <UART7_IRQHandler>

0000a500 <UART8_IRQHandler>:
    a500:	a001                	j	a500 <UART8_IRQHandler>

0000a502 <TIM9_BRK_IRQHandler>:
    a502:	a001                	j	a502 <TIM9_BRK_IRQHandler>

0000a504 <TIM9_UP_IRQHandler>:
    a504:	a001                	j	a504 <TIM9_UP_IRQHandler>

0000a506 <TIM9_TRG_COM_IRQHandler>:
    a506:	a001                	j	a506 <TIM9_TRG_COM_IRQHandler>

0000a508 <TIM9_CC_IRQHandler>:
    a508:	a001                	j	a508 <TIM9_CC_IRQHandler>

0000a50a <TIM10_BRK_IRQHandler>:
    a50a:	a001                	j	a50a <TIM10_BRK_IRQHandler>

0000a50c <TIM10_UP_IRQHandler>:
    a50c:	a001                	j	a50c <TIM10_UP_IRQHandler>

0000a50e <TIM10_TRG_COM_IRQHandler>:
    a50e:	a001                	j	a50e <TIM10_TRG_COM_IRQHandler>

0000a510 <TIM10_CC_IRQHandler>:
    a510:	a001                	j	a510 <TIM10_CC_IRQHandler>

0000a512 <DMA2_Channel6_IRQHandler>:
    a512:	a001                	j	a512 <DMA2_Channel6_IRQHandler>

0000a514 <DMA2_Channel7_IRQHandler>:
    a514:	a001                	j	a514 <DMA2_Channel7_IRQHandler>

0000a516 <DMA2_Channel8_IRQHandler>:
    a516:	a001                	j	a516 <DMA2_Channel8_IRQHandler>

0000a518 <DMA2_Channel9_IRQHandler>:
    a518:	a001                	j	a518 <DMA2_Channel9_IRQHandler>

0000a51a <DMA2_Channel10_IRQHandler>:
    a51a:	a001                	j	a51a <DMA2_Channel10_IRQHandler>

0000a51c <DMA2_Channel11_IRQHandler>:
    a51c:	a001                	j	a51c <DMA2_Channel11_IRQHandler>

0000a51e <handle_reset>:
    a51e:	1fff7197          	auipc	gp,0x1fff7
    a522:	9a218193          	addi	gp,gp,-1630 # 20000ec0 <__global_pointer$>
    a526:	1fffe117          	auipc	sp,0x1fffe
    a52a:	ada10113          	addi	sp,sp,-1318 # 20008000 <_eusrstack>
    a52e:	00001517          	auipc	a0,0x1
    a532:	ae650513          	addi	a0,a0,-1306 # b014 <_data_lma>
    a536:	1fff6597          	auipc	a1,0x1fff6
    a53a:	aca58593          	addi	a1,a1,-1334 # 20000000 <_impure_data>
    a53e:	1fff6617          	auipc	a2,0x1fff6
    a542:	1fe60613          	addi	a2,a2,510 # 2000073c <cursorY>
    a546:	00c5fa63          	bgeu	a1,a2,a55a <handle_reset+0x3c>
    a54a:	00052283          	lw	t0,0(a0)
    a54e:	0055a023          	sw	t0,0(a1)
    a552:	0511                	addi	a0,a0,4
    a554:	0591                	addi	a1,a1,4
    a556:	fec5eae3          	bltu	a1,a2,a54a <handle_reset+0x2c>
    a55a:	87c18513          	addi	a0,gp,-1924 # 2000073c <cursorY>
    a55e:	1fff7597          	auipc	a1,0x1fff7
    a562:	91258593          	addi	a1,a1,-1774 # 20000e70 <_ebss>
    a566:	00b57763          	bgeu	a0,a1,a574 <handle_reset+0x56>
    a56a:	00052023          	sw	zero,0(a0)
    a56e:	0511                	addi	a0,a0,4
    a570:	feb56de3          	bltu	a0,a1,a56a <handle_reset+0x4c>
    a574:	42fd                	li	t0,31
    a576:	bc029073          	csrw	0xbc0,t0
    a57a:	42ad                	li	t0,11
    a57c:	80429073          	csrw	0x804,t0
    a580:	6299                	lui	t0,0x6
    a582:	08828293          	addi	t0,t0,136 # 6088 <__i2b+0x46>
    a586:	3002a073          	csrs	mstatus,t0
    a58a:	ffff6297          	auipc	t0,0xffff6
    a58e:	aae28293          	addi	t0,t0,-1362 # 38 <_einit>
    a592:	0032e293          	ori	t0,t0,3
    a596:	30529073          	csrw	mtvec,t0
    a59a:	ffff6517          	auipc	a0,0xffff6
    a59e:	d7850513          	addi	a0,a0,-648 # 312 <__libc_fini_array>
    a5a2:	c5ff50ef          	jal	200 <atexit>
    a5a6:	d03f50ef          	jal	2a8 <__libc_init_array>
    a5aa:	b25ff0ef          	jal	a0ce <SystemInit>
    a5ae:	fffff297          	auipc	t0,0xfffff
    a5b2:	13c28293          	addi	t0,t0,316 # 96ea <main>
    a5b6:	34129073          	csrw	mepc,t0
    a5ba:	30200073          	mret

0000a5be <USART_Init>:
    a5be:	7139                	addi	sp,sp,-64
    a5c0:	dc22                	sw	s0,56(sp)
    a5c2:	da26                	sw	s1,52(sp)
    a5c4:	de06                	sw	ra,60(sp)
    a5c6:	0080                	addi	s0,sp,64
    a5c8:	01055703          	lhu	a4,16(a0)
    a5cc:	77f5                	lui	a5,0xffffd
    a5ce:	17fd                	addi	a5,a5,-1 # ffffcfff <_eusrstack+0xdfff4fff>
    a5d0:	8f7d                	and	a4,a4,a5
    a5d2:	0065d783          	lhu	a5,6(a1)
    a5d6:	84aa                	mv	s1,a0
    a5d8:	fcb42623          	sw	a1,-52(s0)
    a5dc:	8fd9                	or	a5,a5,a4
    a5de:	00f51823          	sh	a5,16(a0)
    a5e2:	00c55703          	lhu	a4,12(a0)
    a5e6:	77fd                	lui	a5,0xfffff
    a5e8:	9f378793          	addi	a5,a5,-1549 # ffffe9f3 <_eusrstack+0xdfff69f3>
    a5ec:	8f7d                	and	a4,a4,a5
    a5ee:	0045d783          	lhu	a5,4(a1)
    a5f2:	8fd9                	or	a5,a5,a4
    a5f4:	0085d703          	lhu	a4,8(a1)
    a5f8:	8fd9                	or	a5,a5,a4
    a5fa:	00a5d703          	lhu	a4,10(a1)
    a5fe:	8fd9                	or	a5,a5,a4
    a600:	00f51623          	sh	a5,12(a0)
    a604:	01455703          	lhu	a4,20(a0)
    a608:	00c5d783          	lhu	a5,12(a1)
    a60c:	cff77713          	andi	a4,a4,-769
    a610:	8fd9                	or	a5,a5,a4
    a612:	00f51a23          	sh	a5,20(a0)
    a616:	fdc40513          	addi	a0,s0,-36
    a61a:	8e3ff0ef          	jal	9efc <RCC_GetClocksFreq>
    a61e:	400147b7          	lui	a5,0x40014
    a622:	80078793          	addi	a5,a5,-2048 # 40013800 <_eusrstack+0x2000b800>
    a626:	fcc42583          	lw	a1,-52(s0)
    a62a:	06f49263          	bne	s1,a5,a68e <USART_Init+0xd0>
    a62e:	fe842783          	lw	a5,-24(s0)
    a632:	00c4d683          	lhu	a3,12(s1)
    a636:	4765                	li	a4,25
    a638:	02e787b3          	mul	a5,a5,a4
    a63c:	06c2                	slli	a3,a3,0x10
    a63e:	86c1                	srai	a3,a3,0x10
    a640:	4198                	lw	a4,0(a1)
    a642:	0406d963          	bgez	a3,a694 <USART_Init+0xd6>
    a646:	0706                	slli	a4,a4,0x1
    a648:	06400693          	li	a3,100
    a64c:	00c4d603          	lhu	a2,12(s1)
    a650:	02e7d7b3          	divu	a5,a5,a4
    a654:	0642                	slli	a2,a2,0x10
    a656:	8641                	srai	a2,a2,0x10
    a658:	02d7d733          	divu	a4,a5,a3
    a65c:	02d7f7b3          	remu	a5,a5,a3
    a660:	0712                	slli	a4,a4,0x4
    a662:	02065b63          	bgez	a2,a698 <USART_Init+0xda>
    a666:	078e                	slli	a5,a5,0x3
    a668:	03278793          	addi	a5,a5,50
    a66c:	02d7d7b3          	divu	a5,a5,a3
    a670:	8b9d                	andi	a5,a5,7
    a672:	50f2                	lw	ra,60(sp)
    a674:	5462                	lw	s0,56(sp)
    a676:	8fd9                	or	a5,a5,a4
    a678:	00f49423          	sh	a5,8(s1)
    a67c:	54d2                	lw	s1,52(sp)
    a67e:	6121                	addi	sp,sp,64
    a680:	4501                	li	a0,0
    a682:	4581                	li	a1,0
    a684:	4601                	li	a2,0
    a686:	4681                	li	a3,0
    a688:	4701                	li	a4,0
    a68a:	4781                	li	a5,0
    a68c:	8082                	ret
    a68e:	fe442783          	lw	a5,-28(s0)
    a692:	b745                	j	a632 <USART_Init+0x74>
    a694:	070a                	slli	a4,a4,0x2
    a696:	bf4d                	j	a648 <USART_Init+0x8a>
    a698:	0792                	slli	a5,a5,0x4
    a69a:	03278793          	addi	a5,a5,50
    a69e:	02d7d7b3          	divu	a5,a5,a3
    a6a2:	8bbd                	andi	a5,a5,15
    a6a4:	b7f9                	j	a672 <USART_Init+0xb4>

0000a6a6 <USART_Cmd>:
    a6a6:	1141                	addi	sp,sp,-16
    a6a8:	c422                	sw	s0,8(sp)
    a6aa:	c606                	sw	ra,12(sp)
    a6ac:	0800                	addi	s0,sp,16
    a6ae:	00c55783          	lhu	a5,12(a0)
    a6b2:	cd89                	beqz	a1,a6cc <USART_Cmd+0x26>
    a6b4:	6709                	lui	a4,0x2
    a6b6:	8fd9                	or	a5,a5,a4
    a6b8:	40b2                	lw	ra,12(sp)
    a6ba:	4422                	lw	s0,8(sp)
    a6bc:	00f51623          	sh	a5,12(a0)
    a6c0:	0141                	addi	sp,sp,16
    a6c2:	4501                	li	a0,0
    a6c4:	4581                	li	a1,0
    a6c6:	4701                	li	a4,0
    a6c8:	4781                	li	a5,0
    a6ca:	8082                	ret
    a6cc:	7779                	lui	a4,0xffffe
    a6ce:	177d                	addi	a4,a4,-1 # ffffdfff <_eusrstack+0xdfff5fff>
    a6d0:	8ff9                	and	a5,a5,a4
    a6d2:	b7dd                	j	a6b8 <USART_Cmd+0x12>

0000a6d4 <USART_SendData>:
    a6d4:	1141                	addi	sp,sp,-16
    a6d6:	c422                	sw	s0,8(sp)
    a6d8:	c606                	sw	ra,12(sp)
    a6da:	0800                	addi	s0,sp,16
    a6dc:	40b2                	lw	ra,12(sp)
    a6de:	4422                	lw	s0,8(sp)
    a6e0:	1ff5f593          	andi	a1,a1,511
    a6e4:	00b51223          	sh	a1,4(a0)
    a6e8:	0141                	addi	sp,sp,16
    a6ea:	4501                	li	a0,0
    a6ec:	4581                	li	a1,0
    a6ee:	8082                	ret

0000a6f0 <USART_GetFlagStatus>:
    a6f0:	1141                	addi	sp,sp,-16
    a6f2:	c422                	sw	s0,8(sp)
    a6f4:	c606                	sw	ra,12(sp)
    a6f6:	0800                	addi	s0,sp,16
    a6f8:	00055503          	lhu	a0,0(a0)
    a6fc:	40b2                	lw	ra,12(sp)
    a6fe:	4422                	lw	s0,8(sp)
    a700:	8d6d                	and	a0,a0,a1
    a702:	00a03533          	snez	a0,a0
    a706:	0141                	addi	sp,sp,16
    a708:	4581                	li	a1,0
    a70a:	8082                	ret

0000a70c <register_fini>:
    a70c:	1141                	addi	sp,sp,-16
    a70e:	c422                	sw	s0,8(sp)
    a710:	c606                	sw	ra,12(sp)
    a712:	0800                	addi	s0,sp,16
    a714:	00000793          	li	a5,0
    a718:	cb81                	beqz	a5,a728 <register_fini+0x1c>
    a71a:	4422                	lw	s0,8(sp)
    a71c:	40b2                	lw	ra,12(sp)
    a71e:	31200513          	li	a0,786
    a722:	0141                	addi	sp,sp,16
    a724:	addf506f          	j	200 <atexit>
    a728:	40b2                	lw	ra,12(sp)
    a72a:	4422                	lw	s0,8(sp)
    a72c:	0141                	addi	sp,sp,16
    a72e:	4501                	li	a0,0
    a730:	4781                	li	a5,0
    a732:	8082                	ret
    a734:	86a0                	.insn	2, 0x86a0
    a736:	0001                	nop
    a738:	0000                	unimp
    a73a:	4000                	lw	s0,0(s0)
    a73c:	0074                	addi	a3,sp,12
    a73e:	0400                	addi	s0,sp,512
    a740:	4000                	lw	s0,0(s0)
    a742:	0000                	unimp
    a744:	0300                	addi	s0,sp,384
    a746:	0000                	unimp
    a748:	00000003          	lb	zero,0(zero) # 0 <_sinit>
    a74c:	001c                	.insn	2, 0x001c
    a74e:	0000                	unimp
    a750:	101c                	addi	a5,sp,32
    a752:	0000                	unimp
    a754:	06de                	slli	a3,a3,0x17
    a756:	0000                	unimp
    a758:	06de                	slli	a3,a3,0x17
    a75a:	0000                	unimp
    a75c:	1010                	addi	a2,sp,32
    a75e:	0000                	unimp
    a760:	06de                	slli	a3,a3,0x17
    a762:	0000                	unimp
    a764:	06de                	slli	a3,a3,0x17
    a766:	0000                	unimp
    a768:	06de                	slli	a3,a3,0x17
    a76a:	0000                	unimp
    a76c:	0fce                	slli	t6,t6,0x13
    a76e:	0000                	unimp
    a770:	06de                	slli	a3,a3,0x17
    a772:	0000                	unimp
    a774:	06de                	slli	a3,a3,0x17
    a776:	0000                	unimp
    a778:	0ed4                	addi	a3,sp,852
    a77a:	0000                	unimp
    a77c:	0f70                	addi	a2,sp,924
    a77e:	0000                	unimp
    a780:	06de                	slli	a3,a3,0x17
    a782:	0000                	unimp
    a784:	0eee                	slli	t4,t4,0x1b
    a786:	0000                	unimp
    a788:	0f8c                	addi	a1,sp,976
    a78a:	0000                	unimp
    a78c:	06de                	slli	a3,a3,0x17
    a78e:	0000                	unimp
    a790:	0f80                	addi	s0,sp,976
    a792:	0000                	unimp
    a794:	06b2                	slli	a3,a3,0xc
    a796:	0000                	unimp
    a798:	06b2                	slli	a3,a3,0xc
    a79a:	0000                	unimp
    a79c:	06b2                	slli	a3,a3,0xc
    a79e:	0000                	unimp
    a7a0:	06b2                	slli	a3,a3,0xc
    a7a2:	0000                	unimp
    a7a4:	06b2                	slli	a3,a3,0xc
    a7a6:	0000                	unimp
    a7a8:	06b2                	slli	a3,a3,0xc
    a7aa:	0000                	unimp
    a7ac:	06b2                	slli	a3,a3,0xc
    a7ae:	0000                	unimp
    a7b0:	06b2                	slli	a3,a3,0xc
    a7b2:	0000                	unimp
    a7b4:	06b2                	slli	a3,a3,0xc
    a7b6:	0000                	unimp
    a7b8:	06de                	slli	a3,a3,0x17
    a7ba:	0000                	unimp
    a7bc:	06de                	slli	a3,a3,0x17
    a7be:	0000                	unimp
    a7c0:	06de                	slli	a3,a3,0x17
    a7c2:	0000                	unimp
    a7c4:	06de                	slli	a3,a3,0x17
    a7c6:	0000                	unimp
    a7c8:	06de                	slli	a3,a3,0x17
    a7ca:	0000                	unimp
    a7cc:	06de                	slli	a3,a3,0x17
    a7ce:	0000                	unimp
    a7d0:	06de                	slli	a3,a3,0x17
    a7d2:	0000                	unimp
    a7d4:	08ec                	addi	a1,sp,92
    a7d6:	0000                	unimp
    a7d8:	06de                	slli	a3,a3,0x17
    a7da:	0000                	unimp
    a7dc:	0be6                	slli	s7,s7,0x19
    a7de:	0000                	unimp
    a7e0:	0e5a                	slli	t3,t3,0x16
    a7e2:	0000                	unimp
    a7e4:	08ec                	addi	a1,sp,92
    a7e6:	0000                	unimp
    a7e8:	08ec                	addi	a1,sp,92
    a7ea:	0000                	unimp
    a7ec:	08ec                	addi	a1,sp,92
    a7ee:	0000                	unimp
    a7f0:	06de                	slli	a3,a3,0x17
    a7f2:	0000                	unimp
    a7f4:	06de                	slli	a3,a3,0x17
    a7f6:	0000                	unimp
    a7f8:	06de                	slli	a3,a3,0x17
    a7fa:	0000                	unimp
    a7fc:	06de                	slli	a3,a3,0x17
    a7fe:	0000                	unimp
    a800:	109c                	addi	a5,sp,96
    a802:	0000                	unimp
    a804:	06de                	slli	a3,a3,0x17
    a806:	0000                	unimp
    a808:	06de                	slli	a3,a3,0x17
    a80a:	0000                	unimp
    a80c:	1034                	addi	a3,sp,40
    a80e:	0000                	unimp
    a810:	06de                	slli	a3,a3,0x17
    a812:	0000                	unimp
    a814:	06de                	slli	a3,a3,0x17
    a816:	0000                	unimp
    a818:	06de                	slli	a3,a3,0x17
    a81a:	0000                	unimp
    a81c:	0c02                	c.slli64	s8
    a81e:	0000                	unimp
    a820:	06de                	slli	a3,a3,0x17
    a822:	0000                	unimp
    a824:	0efa                	slli	t4,t4,0x1e
    a826:	0000                	unimp
    a828:	06de                	slli	a3,a3,0x17
    a82a:	0000                	unimp
    a82c:	06de                	slli	a3,a3,0x17
    a82e:	0000                	unimp
    a830:	1a08                	addi	a0,sp,304
    a832:	0000                	unimp
    a834:	06de                	slli	a3,a3,0x17
    a836:	0000                	unimp
    a838:	06de                	slli	a3,a3,0x17
    a83a:	0000                	unimp
    a83c:	06de                	slli	a3,a3,0x17
    a83e:	0000                	unimp
    a840:	06de                	slli	a3,a3,0x17
    a842:	0000                	unimp
    a844:	06de                	slli	a3,a3,0x17
    a846:	0000                	unimp
    a848:	06de                	slli	a3,a3,0x17
    a84a:	0000                	unimp
    a84c:	06de                	slli	a3,a3,0x17
    a84e:	0000                	unimp
    a850:	06de                	slli	a3,a3,0x17
    a852:	0000                	unimp
    a854:	08ec                	addi	a1,sp,92
    a856:	0000                	unimp
    a858:	06de                	slli	a3,a3,0x17
    a85a:	0000                	unimp
    a85c:	0be6                	slli	s7,s7,0x19
    a85e:	0000                	unimp
    a860:	0b44                	addi	s1,sp,404
    a862:	0000                	unimp
    a864:	08ec                	addi	a1,sp,92
    a866:	0000                	unimp
    a868:	08ec                	addi	a1,sp,92
    a86a:	0000                	unimp
    a86c:	08ec                	addi	a1,sp,92
    a86e:	0000                	unimp
    a870:	10bc                	addi	a5,sp,104
    a872:	0000                	unimp
    a874:	0b44                	addi	s1,sp,404
    a876:	0000                	unimp
    a878:	0b3a                	slli	s6,s6,0xe
    a87a:	0000                	unimp
    a87c:	06de                	slli	a3,a3,0x17
    a87e:	0000                	unimp
    a880:	10a8                	addi	a0,sp,104
    a882:	0000                	unimp
    a884:	06de                	slli	a3,a3,0x17
    a886:	0000                	unimp
    a888:	1154                	addi	a3,sp,164
    a88a:	0000                	unimp
    a88c:	111e                	slli	sp,sp,0x27
    a88e:	0000                	unimp
    a890:	10d0                	addi	a2,sp,100
    a892:	0000                	unimp
    a894:	0b3a                	slli	s6,s6,0xe
    a896:	0000                	unimp
    a898:	06de                	slli	a3,a3,0x17
    a89a:	0000                	unimp
    a89c:	0c02                	c.slli64	s8
    a89e:	0000                	unimp
    a8a0:	0b34                	addi	a3,sp,408
    a8a2:	0000                	unimp
    a8a4:	0f34                	addi	a3,sp,920
    a8a6:	0000                	unimp
    a8a8:	06de                	slli	a3,a3,0x17
    a8aa:	0000                	unimp
    a8ac:	06de                	slli	a3,a3,0x17
    a8ae:	0000                	unimp
    a8b0:	1a56                	slli	s4,s4,0x35
    a8b2:	0000                	unimp
    a8b4:	06de                	slli	a3,a3,0x17
    a8b6:	0000                	unimp
    a8b8:	0b34                	addi	a3,sp,408
	...

0000a8bc <blanks.1>:
    a8bc:	2020 2020 2020 2020 2020 2020 2020 2020                     

0000a8cc <zeroes.0>:
    a8cc:	3030 3030 3030 3030 3030 3030 3030 3030     0000000000000000
    a8dc:	0000 0000                                   ....

0000a8e0 <p05.0>:
    a8e0:	0005 0000 0019 0000 007d 0000 0000 0000     ........}.......

0000a8f0 <__mprec_tens>:
    a8f0:	0000 0000 0000 3ff0 0000 0000 0000 4024     .......?......$@
    a900:	0000 0000 0000 4059 0000 0000 4000 408f     ......Y@.....@.@
    a910:	0000 0000 8800 40c3 0000 0000 6a00 40f8     .......@.....j.@
    a920:	0000 0000 8480 412e 0000 0000 12d0 4163     .......A......cA
    a930:	0000 0000 d784 4197 0000 0000 cd65 41cd     .......A....e..A
    a940:	0000 2000 a05f 4202 0000 e800 4876 4237     ... _..B....vH7B
    a950:	0000 a200 1a94 426d 0000 e540 309c 42a2     ......mB..@..0.B
    a960:	0000 1e90 bcc4 42d6 0000 2634 6bf5 430c     .......B..4&.k.C
    a970:	8000 37e0 c379 4341 a000 85d8 3457 4376     ...7y.AC....W4vC
    a980:	c800 674e c16d 43ab 3d00 6091 58e4 43e1     ..Ngm..C.=.`.X.C
    a990:	8c40 78b5 af1d 4415 ef50 d6e2 1ae4 444b     @..x...DP.....KD
    a9a0:	d592 064d f0cf 4480 4af6 c7e1 2d02 44b5     ..M....D.J...-.D
    a9b0:	9db4 79d9 7843 44ea                         ...yCx.D

0000a9b8 <__mprec_tinytens>:
    a9b8:	89bc 97d8 d2b2 3c9c a733 d5a8 f623 3949     .......<3...#.I9
    a9c8:	a73d 44f4 0ffd 32a5 979d cf8c ba08 255b     =..D...2......[%
    a9d8:	6f43 64ac 0628 0ac8                         Co.d(...

0000a9e0 <__mprec_bigtens>:
    a9e0:	8000 37e0 c379 4341 6e17 b505 b8b5 4693     ...7y.AC.n.....F
    a9f0:	f9f5 e93f 4f03 4d38 1d32 f930 7748 5a82     ..?..O8M2.0.Hw.Z
    aa00:	bf3c 7f73 4fdd 7515                         <.s..O.u

0000aa08 <_ctype_>:
    aa08:	2000 2020 2020 2020 2020 2828 2828 2028     .         ((((( 
    aa18:	2020 2020 2020 2020 2020 2020 2020 2020                     
    aa28:	8820 1010 1010 1010 1010 1010 1010 1010      ...............
    aa38:	0410 0404 0404 0404 0404 1004 1010 1010     ................
    aa48:	1010 4141 4141 4141 0101 0101 0101 0101     ..AAAAAA........
    aa58:	0101 0101 0101 0101 0101 0101 1010 1010     ................
    aa68:	1010 4242 4242 4242 0202 0202 0202 0202     ..BBBBBB........
    aa78:	0202 0202 0202 0202 0202 0202 1010 1010     ................
    aa88:	0020 0000 0000 0000 0000 0000 0000 0000      ...............
	...
    ab0c:	7fd0 0000 7864 0000 7864 0000 7fc6 0000     ....dx..dx......
    ab1c:	7864 0000 7864 0000 7864 0000 7f34 0000     dx..dx..dx..4...
    ab2c:	7864 0000 7864 0000 7d5c 0000 7d74 0000     dx..dx..\}..t}..
    ab3c:	7864 0000 7d6a 0000 7f8a 0000 7864 0000     dx..j}......dx..
    ab4c:	7f80 0000 783c 0000 783c 0000 783c 0000     ....<x..<x..<x..
    ab5c:	783c 0000 783c 0000 783c 0000 783c 0000     <x..<x..<x..<x..
    ab6c:	783c 0000 783c 0000 7864 0000 7864 0000     <x..<x..dx..dx..
    ab7c:	7864 0000 7864 0000 7864 0000 7864 0000     dx..dx..dx..dx..
    ab8c:	7864 0000 7864 0000 7864 0000 7cbc 0000     dx..dx..dx...|..
    ab9c:	7cf0 0000 7864 0000 7864 0000 7864 0000     .|..dx..dx..dx..
    abac:	7864 0000 7864 0000 7864 0000 7864 0000     dx..dx..dx..dx..
    abbc:	7864 0000 7864 0000 7864 0000 7d82 0000     dx..dx..dx...}..
    abcc:	7864 0000 7864 0000 7864 0000 7c6e 0000     dx..dx..dx..n|..
    abdc:	7864 0000 7e1a 0000 7864 0000 7864 0000     dx...~..dx..dx..
    abec:	8332 0000 7864 0000 7864 0000 7864 0000     2...dx..dx..dx..
    abfc:	7864 0000 7864 0000 7864 0000 7864 0000     dx..dx..dx..dx..
    ac0c:	7864 0000 7864 0000 7864 0000 7cbc 0000     dx..dx..dx...|..
    ac1c:	7b3e 0000 7864 0000 7864 0000 7864 0000     >{..dx..dx..dx..
    ac2c:	7f22 0000 7b3e 0000 7992 0000 7864 0000     "...>{...y..dx..
    ac3c:	7f10 0000 7864 0000 7ee0 0000 7eb4 0000     ....dx...~...~..
    ac4c:	7e5c 0000 7992 0000 7864 0000 7c6e 0000     \~...y..dx..n|..
    ac5c:	798c 0000 7dd4 0000 7864 0000 7864 0000     .y...}..dx..dx..
    ac6c:	839a 0000 7864 0000 798c 0000               ....dx...y..

0000ac78 <blanks.1>:
    ac78:	2020 2020 2020 2020 2020 2020 2020 2020                     

0000ac88 <zeroes.0>:
    ac88:	3030 3030 3030 3030 3030 3030 3030 3030     0000000000000000
    ac98:	98d0 bdd0 b8d0 86d1 b8d0 b0d0 bbd0 b8d0     ................
    aca8:	b7d0 b0d0 86d1 b8d0 8fd1 4920 4332 0000     .......... I2C..
    acb8:	98d0 bdd0 b8d0 86d1 b8d0 b0d0 bbd0 b8d0     ................
    acc8:	b7d0 b0d0 86d1 b8d0 8fd1 4f20 656c 2064     .......... Oled 
    acd8:	94d0 b8d0 81d1 bfd0 bbd0 b5d0 8fd1 0000     ................
    ace8:	6548 6c6c 006f 0000 4e49 0046 6e69 0066     Hello...INF.inf.
    acf8:	414e 004e 616e 006e 3130 3332 3534 3736     NAN.nan.01234567
    ad08:	3938 6261 6463 6665 0000 0000 3130 3332     89abcdef....0123
    ad18:	3534 3736 3938 4241 4443 4645 0000 0000     456789ABCDEF....
    ad28:	6e28 6c75 296c 0000 0030 0000 6e49 6966     (null)..0...Infi
    ad38:	696e 7974 0000 0000 614e 004e 6142 6c6c     nity....NaN.Ball
    ad48:	636f 7320 6375 6563 6465 6465 0000 0000     oc succeeded....
    ad58:	2e2e 2e2f 2f2e 2f2e 656e 6c77 6269 6c2f     ../.././newlib/l
    ad68:	6269 2f63 7473 6c64 6269 642f 6f74 2e61     ibc/stdlib/dtoa.
    ad78:	0063 0000 2e2e 2e2f 2f2e 2f2e 656e 6c77     c...../.././newl
    ad88:	6269 6c2f 6269 2f63 7473 6c64 6269 6d2f     ib/libc/stdlib/m
    ad98:	7270 6365 632e 0000 0043 0000 4f50 4953     prec.c..C...POSI
    ada8:	0058 0000 002e 0000 202c 7566 636e 6974     X......., functi
    adb8:	6e6f 203a 0000 0000 7361 6573 7472 6f69     on: ....assertio
    adc8:	206e 2522 2273 6620 6961 656c 3a64 6620     n "%s" failed: f
    add8:	6c69 2065 2522 2273 202c 696c 656e 2520     ile "%s", line %
    ade8:	2564 2573 0a73 0000                         d%s%s...

0000adf0 <ssd1306_init_sequence>:
    adf0:	d5ae a8f0 d33f 4000 148d 0020 c8a1 02da     ....?..@.. .....
    ae00:	3f81 22d9 20db a6a4 af2e 0022 213f 7f00     .?.". ....".?!..

0000ae10 <font5x8>:
    ae10:	0000 0000 0000 5f00 0000 0700 0700 1400     ......._........
    ae20:	147f 147f 2a24 2a7f 2312 0813 6264 4936     ....$*.*.#..db6I
    ae30:	2255 0050 0305 0000 1c00 4122 0000 2241     U"P......."A..A"
    ae40:	001c 0814 083e 0814 3e08 0808 5000 0030     ....>....>...P0.
    ae50:	0800 0808 0808 6000 0060 2000 0810 0204     .......``.. ....
    ae60:	513e 4549 003e 7f42 0040 6142 4951 2146     >QIE>.B.@.BaQIF!
    ae70:	4541 314b 1418 7f12 2710 4545 3945 4a3c     AEK1.....'EEE9<J
    ae80:	4949 0130 0971 0305 4936 4949 0636 4949     II0.q...6III6.II
    ae90:	1e29 3600 0036 0000 3656 0000 1408 4122     )..66...V6...."A
    aea0:	1400 1414 1414 4100 1422 0208 5101 0609     .......A"....Q..
    aeb0:	4932 4179 7e3e 1111 7e11 497f 4949 3e36     2IyA>~...~.III6>
    aec0:	4141 2241 417f 2241 7f1c 4949 4149 097f     AAA".AA"..IIIA..
    aed0:	0909 3e01 4941 7a49 087f 0808 007f 7f41     ...>AIIz......A.
    aee0:	0041 4020 3f41 7f01 1408 4122 407f 4040     A. @A?...."A.@@@
    aef0:	7f40 0c02 7f02 047f 1008 3e7f 4141 3e41     @..........>AAA>
    af00:	097f 0909 3e06 5141 5e21 097f 2919 4646     .....>AQ!^...)FF
    af10:	4949 3149 0101 017f 3f01 4040 3f40 201f     III1.....?@@@?. 
    af20:	2040 3f1f 3840 3f40 1463 1408 0763 7008     @ .?@8@?c...c..p
    af30:	0708 5161 4549 0043 417f 0041 0402 1008     ..aQIEC..AA.....
    af40:	0020 4141 007f 0204 0201 4004 4040 4040      .AA.......@@@@@
    af50:	0100 0402 2000 5454 7854 487f 4444 3838     ..... TTTx.HDD88
    af60:	4444 2044 4438 4844 387f 5454 1854 7e08     DDD 8DDH.8TTT..~
    af70:	0109 0c02 5252 3e52 087f 0404 0078 7d44     ....RRR>....x.D}
    af80:	0040 4020 3d44 7f00 2810 0044 4100 407f     @. @D=...(D..A.@
    af90:	7c00 1804 7804 087c 0404 3878 4444 3844     .|...x|...x8DDD8
    afa0:	147c 1414 0808 1414 7c18 087c 0404 4808     |........||....H
    afb0:	5454 2054 3f04 4044 3c20 4040 7c20 201c     TTT .?D@ <@@ |. 
    afc0:	2040 3c1c 3040 3c40 2844 2810 0c44 5050     @ .<@0@<D(.(D.PP
    afd0:	3c50 6444 4c54 0044 3608 0041 0000 007f     P<DdTLD..6A.....
    afe0:	0000 3641 0008 0810 1008 0008 0906 0609     ..A6............

0000aff0 <APBAHBPrescTable>:
    aff0:	0000 0000 0201 0403 0201 0403 0706 0908     ................

0000b000 <AHBPrescTable>:
	...
    b008:	0201 0403 0706 0908                         ........
