
/home/blank/Engineering/MCU/WCH/CH32V30x/Project/Programmator/build/Programmator.elf:     file format elf32-littleriscv


Disassembly of section .init:

00000000 <_sinit>:

	.section	.init,"ax",@progbits
	.global	_start
	.align	1
_start:
	j	handle_reset
   0:	4d30006f          	j	cd2 <handle_reset>
   4:	00000013          	.word	0x00000013
   8:	00000013          	.word	0x00000013
   c:	00000013          	.word	0x00000013
  10:	00000013          	.word	0x00000013
  14:	00000013          	.word	0x00000013
  18:	00000013          	.word	0x00000013
  1c:	00000013          	.word	0x00000013
  20:	00000013          	.word	0x00000013
  24:	00000013          	.word	0x00000013
  28:	00000013          	.word	0x00000013
  2c:	00000013          	.word	0x00000013
  30:	00000013          	.word	0x00000013
  34:	00100073          	.word	0x00100073

Disassembly of section .vector:

00000038 <_vector_base>:
	...
  40:	00000c14          	.word	0x00000c14
  44:	00000c16          	.word	0x00000c16
  48:	00000000          	.word	0x00000000
  4c:	00000c18          	.word	0x00000c18
	...
  58:	00000c1a          	.word	0x00000c1a
  5c:	00000c1c          	.word	0x00000c1c
	...
  68:	00000c1e          	.word	0x00000c1e
  6c:	00000000          	.word	0x00000000
  70:	00000c20          	.word	0x00000c20
  74:	00000000          	.word	0x00000000
  78:	00000c22          	.word	0x00000c22
  7c:	00000c24          	.word	0x00000c24
  80:	00000c26          	.word	0x00000c26
  84:	00000c28          	.word	0x00000c28
  88:	00000c2a          	.word	0x00000c2a
  8c:	00000c2c          	.word	0x00000c2c
  90:	00000c2e          	.word	0x00000c2e
  94:	00000c30          	.word	0x00000c30
  98:	00000c32          	.word	0x00000c32
  9c:	00000c34          	.word	0x00000c34
  a0:	00000c36          	.word	0x00000c36
  a4:	00000c38          	.word	0x00000c38
  a8:	00000c3a          	.word	0x00000c3a
  ac:	00000c3c          	.word	0x00000c3c
  b0:	00000c3e          	.word	0x00000c3e
  b4:	00000c40          	.word	0x00000c40
  b8:	00000c42          	.word	0x00000c42
  bc:	00000c44          	.word	0x00000c44
  c0:	00000c46          	.word	0x00000c46
  c4:	00000c48          	.word	0x00000c48
  c8:	00000c4a          	.word	0x00000c4a
  cc:	00000c4c          	.word	0x00000c4c
  d0:	00000c4e          	.word	0x00000c4e
  d4:	00000c50          	.word	0x00000c50
  d8:	00000c52          	.word	0x00000c52
  dc:	00000c54          	.word	0x00000c54
  e0:	00000c56          	.word	0x00000c56
  e4:	00000c58          	.word	0x00000c58
  e8:	00000c5a          	.word	0x00000c5a
  ec:	00000c5c          	.word	0x00000c5c
  f0:	00000c5e          	.word	0x00000c5e
  f4:	00000c60          	.word	0x00000c60
  f8:	00000c62          	.word	0x00000c62
  fc:	00000c64          	.word	0x00000c64
 100:	00000c66          	.word	0x00000c66
 104:	00000c68          	.word	0x00000c68
 108:	00000c6a          	.word	0x00000c6a
 10c:	00000c6c          	.word	0x00000c6c
 110:	00000c6e          	.word	0x00000c6e
 114:	00000c70          	.word	0x00000c70
 118:	00000c72          	.word	0x00000c72
 11c:	00000c74          	.word	0x00000c74
 120:	00000c76          	.word	0x00000c76
 124:	00000c78          	.word	0x00000c78
 128:	00000c7a          	.word	0x00000c7a
 12c:	00000c7c          	.word	0x00000c7c
 130:	00000c7e          	.word	0x00000c7e
 134:	00000c80          	.word	0x00000c80
 138:	00000c82          	.word	0x00000c82
 13c:	00000c84          	.word	0x00000c84
 140:	00000c86          	.word	0x00000c86
 144:	00000c88          	.word	0x00000c88
 148:	00000c8a          	.word	0x00000c8a
 14c:	00000c8c          	.word	0x00000c8c
 150:	00000c8e          	.word	0x00000c8e
 154:	00000c90          	.word	0x00000c90
 158:	00000c92          	.word	0x00000c92
 15c:	00000c94          	.word	0x00000c94
 160:	00000c96          	.word	0x00000c96
 164:	00000c98          	.word	0x00000c98
 168:	00000c9a          	.word	0x00000c9a
 16c:	00000c9c          	.word	0x00000c9c
 170:	00000c9e          	.word	0x00000c9e
 174:	00000ca0          	.word	0x00000ca0
 178:	00000ca2          	.word	0x00000ca2
 17c:	00000ca4          	.word	0x00000ca4
 180:	00000ca6          	.word	0x00000ca6
 184:	00000ca8          	.word	0x00000ca8
 188:	00000caa          	.word	0x00000caa
 18c:	00000cac          	.word	0x00000cac
 190:	00000cae          	.word	0x00000cae
 194:	00000cb0          	.word	0x00000cb0
 198:	00000cb2          	.word	0x00000cb2
 19c:	00000cb4          	.word	0x00000cb4
 1a0:	00000cb6          	.word	0x00000cb6
 1a4:	00000cb8          	.word	0x00000cb8
 1a8:	00000cba          	.word	0x00000cba
 1ac:	00000cbc          	.word	0x00000cbc
 1b0:	00000cbe          	.word	0x00000cbe
 1b4:	00000cc0          	.word	0x00000cc0
 1b8:	00000cc2          	.word	0x00000cc2
 1bc:	00000cc4          	.word	0x00000cc4
 1c0:	00000cc6          	.word	0x00000cc6
 1c4:	00000cc8          	.word	0x00000cc8
 1c8:	00000cca          	.word	0x00000cca
 1cc:	00000ccc          	.word	0x00000ccc
 1d0:	00000cce          	.word	0x00000cce
 1d4:	00000cd0          	.word	0x00000cd0
	...

Disassembly of section .text:

00000200 <__riscv_save_12>:
     200:	7139                	addi	sp,sp,-64
     202:	4301                	li	t1,0
     204:	c66e                	sw	s11,12(sp)
     206:	a019                	j	20c <__riscv_save_10+0x4>

00000208 <__riscv_save_10>:
     208:	7139                	addi	sp,sp,-64
     20a:	5341                	li	t1,-16
     20c:	c86a                	sw	s10,16(sp)
     20e:	ca66                	sw	s9,20(sp)
     210:	cc62                	sw	s8,24(sp)
     212:	ce5e                	sw	s7,28(sp)
     214:	a021                	j	21c <__riscv_save_4+0x4>
     216:	0001                	nop

00000218 <__riscv_save_4>:
     218:	7139                	addi	sp,sp,-64
     21a:	5301                	li	t1,-32
     21c:	d05a                	sw	s6,32(sp)
     21e:	d256                	sw	s5,36(sp)
     220:	d452                	sw	s4,40(sp)
     222:	d64e                	sw	s3,44(sp)
     224:	d84a                	sw	s2,48(sp)
     226:	da26                	sw	s1,52(sp)
     228:	dc22                	sw	s0,56(sp)
     22a:	de06                	sw	ra,60(sp)
     22c:	40610133          	sub	sp,sp,t1
     230:	8282                	jr	t0
     232:	0001                	nop

00000234 <__riscv_save_0>:
     234:	1141                	addi	sp,sp,-16
     236:	c04a                	sw	s2,0(sp)
     238:	c226                	sw	s1,4(sp)
     23a:	c422                	sw	s0,8(sp)
     23c:	c606                	sw	ra,12(sp)
     23e:	8282                	jr	t0

00000240 <__riscv_restore_12>:
     240:	4db2                	lw	s11,12(sp)
     242:	0141                	addi	sp,sp,16

00000244 <__riscv_restore_10>:
     244:	4d02                	lw	s10,0(sp)
     246:	4c92                	lw	s9,4(sp)
     248:	4c22                	lw	s8,8(sp)
     24a:	4bb2                	lw	s7,12(sp)
     24c:	0141                	addi	sp,sp,16
     24e:	0001                	nop

00000250 <__riscv_restore_4>:
     250:	4b02                	lw	s6,0(sp)
     252:	4a92                	lw	s5,4(sp)
     254:	4a22                	lw	s4,8(sp)
     256:	49b2                	lw	s3,12(sp)
     258:	0141                	addi	sp,sp,16
     25a:	0001                	nop

0000025c <__riscv_restore_0>:
     25c:	4902                	lw	s2,0(sp)
     25e:	4492                	lw	s1,4(sp)
     260:	4422                	lw	s0,8(sp)
     262:	40b2                	lw	ra,12(sp)
     264:	0141                	addi	sp,sp,16
     266:	8082                	ret

00000268 <memcpy>:
     268:	832a                	mv	t1,a0
     26a:	ca09                	beqz	a2,27c <memcpy+0x14>
     26c:	00058383          	lb	t2,0(a1)
     270:	00730023          	sb	t2,0(t1)
     274:	167d                	addi	a2,a2,-1
     276:	0305                	addi	t1,t1,1
     278:	0585                	addi	a1,a1,1
     27a:	fa6d                	bnez	a2,26c <memcpy+0x4>
     27c:	8082                	ret

0000027e <main>:
#include "ssd1306/i2c_tx.h"
#include "system_ch32v30x.h"
#include <ch32v30x.h>
#include "ssd1306/oled_segment.h"

int main(){
     27e:	fb7ff2ef          	jal	t0,234 <__riscv_save_0>
        Delay_Init();
     282:	10d000ef          	jal	b8e <Delay_Init>
        SystemInit();
     286:	772000ef          	jal	9f8 <SystemInit>
        USART_Printf_Init(115200);
     28a:	6571                	lui	a0,0x1c
     28c:	20050513          	addi	a0,a0,512 # 1c200 <_data_lma+0x1b088>
     290:	129000ef          	jal	bb8 <USART_Printf_Init>
        SystemCoreClockUpdate();
     294:	055000ef          	jal	ae8 <SystemCoreClockUpdate>
        I2C_init();
     298:	2c6d                	jal	552 <I2C_init>
        OLED_init();
     29a:	2cbd                	jal	518 <OLED_init>

        OLED_setpos(0, 0);
     29c:	4581                	li	a1,0
     29e:	4501                	li	a0,0
     2a0:	2429                	jal	4aa <OLED_setpos>
                OLED_print("SP_Sam");
     2a2:	6505                	lui	a0,0x1
     2a4:	f5050513          	addi	a0,a0,-176 # f50 <__register_exitproc+0x90>
     2a8:	2afd                	jal	4a6 <OLED_print>

        return 0;
}
     2aa:	4501                	li	a0,0
     2ac:	bf45                	j	25c <__riscv_restore_0>

000002ae <OLED_setline>:
// OLED global variables
uint8_t line, column, scroll;
uint8_t cursorX, cursorY;

// OLED set cursor to line start
void OLED_setline(uint8_t line) {
     2ae:	f87ff2ef          	jal	t0,234 <__riscv_save_0>
     2b2:	842a                	mv	s0,a0
  I2C_start(OLED_ADDR);                   // start transmission to OLED
     2b4:	07800513          	li	a0,120
     2b8:	2611                	jal	5bc <I2C_start>
  I2C_write(OLED_CMD_MODE);               // set command mode
     2ba:	4501                	li	a0,0
     2bc:	2691                	jal	600 <I2C_write>
  I2C_write(OLED_PAGE + line);            // set line
     2be:	fb040513          	addi	a0,s0,-80
     2c2:	0ff57513          	zext.b	a0,a0
     2c6:	2e2d                	jal	600 <I2C_write>
  I2C_write(0x00); I2C_write(0x10);       // set column to "0"
     2c8:	4501                	li	a0,0
     2ca:	2e1d                	jal	600 <I2C_write>
     2cc:	4541                	li	a0,16
     2ce:	2e0d                	jal	600 <I2C_write>
  I2C_stop();                             // stop transmission
     2d0:	2691                	jal	614 <I2C_stop>
}
     2d2:	b769                	j	25c <__riscv_restore_0>

000002d4 <OLED_clearline>:

// OLED clear line
void OLED_clearline(uint8_t line) {
     2d4:	f61ff2ef          	jal	t0,234 <__riscv_save_0>
     2d8:	892a                	mv	s2,a0
  uint8_t i;
  OLED_setline(line);                     // set cursor to line start
     2da:	3fd1                	jal	2ae <OLED_setline>
  I2C_start(OLED_ADDR);                   // start transmission to OLED
     2dc:	07800513          	li	a0,120
     2e0:	2cf1                	jal	5bc <I2C_start>
  I2C_write(OLED_DAT_MODE);               // set data mode
     2e2:	04000513          	li	a0,64
     2e6:	2e29                	jal	600 <I2C_write>
  for(i=128; i; i--) {                    // clear the line
    I2C_write(0x00);
    SSD1306_Buffer[i + (line / 8) * SSD1306_WIDTH] = 0x00;
     2e8:	20000437          	lui	s0,0x20000
     2ec:	00395793          	srli	a5,s2,0x3
     2f0:	079e                	slli	a5,a5,0x7
     2f2:	01c40413          	addi	s0,s0,28 # 2000001c <SSD1306_Buffer>
  I2C_write(OLED_DAT_MODE);               // set data mode
     2f6:	08000493          	li	s1,128
    SSD1306_Buffer[i + (line / 8) * SSD1306_WIDTH] = 0x00;
     2fa:	943e                	add	s0,s0,a5
    I2C_write(0x00);
     2fc:	4501                	li	a0,0
     2fe:	2609                	jal	600 <I2C_write>
    SSD1306_Buffer[i + (line / 8) * SSD1306_WIDTH] = 0x00;
     300:	009407b3          	add	a5,s0,s1
     304:	00078023          	sb	zero,0(a5)
  for(i=128; i; i--) {                    // clear the line
     308:	14fd                	addi	s1,s1,-1
     30a:	f8ed                	bnez	s1,2fc <OLED_clearline+0x28>
  }     
  I2C_stop();                             // stop transmission
     30c:	2621                	jal	614 <I2C_stop>
}
     30e:	b7b9                	j	25c <__riscv_restore_0>

00000310 <OLED_scrollDisplay>:
    }           
  I2C_stop();                                     // stop transmission
}

// OLED clear the top line, then scroll the display up by one line
void OLED_scrollDisplay(void) {
     310:	f25ff2ef          	jal	t0,234 <__riscv_save_0>
  OLED_clearline(scroll);                 // clear line
     314:	80e1c503          	lbu	a0,-2034(gp) # 2000000e <scroll>
     318:	3f75                	jal	2d4 <OLED_clearline>
  scroll = (scroll + 1) & 0x07;           // set next line
     31a:	80e1c783          	lbu	a5,-2034(gp) # 2000000e <scroll>
  I2C_start(OLED_ADDR);                   // start transmission to OLED
     31e:	07800513          	li	a0,120
  scroll = (scroll + 1) & 0x07;           // set next line
     322:	0785                	addi	a5,a5,1
     324:	8b9d                	andi	a5,a5,7
     326:	80f18723          	sb	a5,-2034(gp) # 2000000e <scroll>
  I2C_start(OLED_ADDR);                   // start transmission to OLED
     32a:	2c49                	jal	5bc <I2C_start>
  I2C_write(OLED_CMD_MODE);               // set command mode
     32c:	4501                	li	a0,0
     32e:	2cc9                	jal	600 <I2C_write>
  I2C_write(OLED_OFFSET);                 // set display offset:
     330:	0d300513          	li	a0,211
     334:	24f1                	jal	600 <I2C_write>
  I2C_write(scroll << 3);                 // scroll up
     336:	80e1c503          	lbu	a0,-2034(gp) # 2000000e <scroll>
     33a:	050e                	slli	a0,a0,0x3
     33c:	0f857513          	andi	a0,a0,248
     340:	24c1                	jal	600 <I2C_write>
  I2C_stop();                             // stop transmission
     342:	2cc9                	jal	614 <I2C_stop>
}
     344:	bf21                	j	25c <__riscv_restore_0>

00000346 <OLED_plotChar>:
  OLED_clear();                           // clear screen
  OLED_setpos(0,0);
}

// OLED plot a single character
void OLED_plotChar(char c, bool inverted) {
     346:	ed3ff2ef          	jal	t0,218 <__riscv_save_4>
     34a:	842a                	mv	s0,a0
     34c:	4a15                	li	s4,5
     34e:	03440433          	mul	s0,s0,s4
     352:	1141                	addi	sp,sp,-16
  I2C_start(OLED_ADDR);                   // start transmission to OLED
     354:	07800513          	li	a0,120
  I2C_write(OLED_DAT_MODE);               // set data mode
  short pos;
  for(short i=0 ; i!=5; i++){
    I2C_write(inverted? ~font5x8[c-32][i] : font5x8[c-32][i]);
     358:	40b009b3          	neg	s3,a1
  I2C_start(OLED_ADDR);                   // start transmission to OLED
     35c:	2485                	jal	5bc <I2C_start>
  I2C_write(OLED_DAT_MODE);               // set data mode
     35e:	04000513          	li	a0,64
     362:	2c79                	jal	600 <I2C_write>
  for(short i=0 ; i!=5; i++){
     364:	6785                	lui	a5,0x1
     366:	f7878793          	addi	a5,a5,-136 # f78 <font5x8>
    pos = cursorX + i + (cursorY / 8) * SSD1306_WIDTH;
    SSD1306_Buffer[pos] = inverted? ~font5x8[c-32][i] : font5x8[c-32][i];
     36a:	200004b7          	lui	s1,0x20000
     36e:	943e                	add	s0,s0,a5
  for(short i=0 ; i!=5; i++){
     370:	4901                	li	s2,0
    SSD1306_Buffer[pos] = inverted? ~font5x8[c-32][i] : font5x8[c-32][i];
     372:	01c48493          	addi	s1,s1,28 # 2000001c <SSD1306_Buffer>
    I2C_write(inverted? ~font5x8[c-32][i] : font5x8[c-32][i]);
     376:	f6044503          	lbu	a0,-160(s0)
  for(short i=0 ; i!=5; i++){
     37a:	0405                	addi	s0,s0,1
    I2C_write(inverted? ~font5x8[c-32][i] : font5x8[c-32][i]);
     37c:	00a9c533          	xor	a0,s3,a0
     380:	0ff57513          	zext.b	a0,a0
     384:	c62a                	sw	a0,12(sp)
     386:	2cad                	jal	600 <I2C_write>
    pos = cursorX + i + (cursorY / 8) * SSD1306_WIDTH;
     388:	80c1c783          	lbu	a5,-2036(gp) # 2000000c <cursorY>
     38c:	80d1c703          	lbu	a4,-2035(gp) # 2000000d <cursorX>
    SSD1306_Buffer[pos] = inverted? ~font5x8[c-32][i] : font5x8[c-32][i];
     390:	4532                	lw	a0,12(sp)
    pos = cursorX + i + (cursorY / 8) * SSD1306_WIDTH;
     392:	838d                	srli	a5,a5,0x3
     394:	079e                	slli	a5,a5,0x7
     396:	97ba                	add	a5,a5,a4
     398:	97ca                	add	a5,a5,s2
     39a:	07c2                	slli	a5,a5,0x10
     39c:	83c1                	srli	a5,a5,0x10
    SSD1306_Buffer[pos] = inverted? ~font5x8[c-32][i] : font5x8[c-32][i];
     39e:	00f48733          	add	a4,s1,a5
     3a2:	0905                	addi	s2,s2,1
     3a4:	a308                	.insn	2, 0xa308
  for(short i=0 ; i!=5; i++){
     3a6:	01091713          	slli	a4,s2,0x10
     3aa:	8341                	srli	a4,a4,0x10
     3ac:	893a                	mv	s2,a4
     3ae:	fd4714e3          	bne	a4,s4,376 <OLED_plotChar+0x30>
  }
  SSD1306_Buffer[++pos] = 0;
     3b2:	0785                	addi	a5,a5,1
     3b4:	07c2                	slli	a5,a5,0x10
     3b6:	83c1                	srli	a5,a5,0x10
     3b8:	94be                	add	s1,s1,a5
  I2C_write(0x00);                        // write space between characters
     3ba:	4501                	li	a0,0
  SSD1306_Buffer[++pos] = 0;
     3bc:	00048023          	sb	zero,0(s1)
  I2C_write(0x00);                        // write space between characters
     3c0:	2481                	jal	600 <I2C_write>
  I2C_stop();                             // stop transmission
     3c2:	2c89                	jal	614 <I2C_stop>
}
     3c4:	0141                	addi	sp,sp,16
     3c6:	b569                	j	250 <__riscv_restore_4>

000003c8 <OLED_write>:

// OLED write a character or handle control characters
void OLED_write(char c, bool inverted) {
     3c8:	e6dff2ef          	jal	t0,234 <__riscv_save_0>
     3cc:	87aa                	mv	a5,a0
  c = c & 0x7F;                           // ignore top bit
  // normal character
  if(c >= 32) {
     3ce:	0607f793          	andi	a5,a5,96
  c = c & 0x7F;                           // ignore top bit
     3d2:	07f57513          	andi	a0,a0,127
  if(c >= 32) {
     3d6:	c7a5                	beqz	a5,43e <OLED_write+0x76>
    OLED_plotChar(c, inverted);
     3d8:	37bd                	jal	346 <OLED_plotChar>
    if(++column > 20) {
     3da:	80f1c783          	lbu	a5,-2033(gp) # 2000000f <column>
     3de:	46d1                	li	a3,20
     3e0:	0785                	addi	a5,a5,1
     3e2:	0ff7f793          	zext.b	a5,a5
     3e6:	02f6e063          	bltu	a3,a5,406 <OLED_write+0x3e>
     3ea:	80f187a3          	sb	a5,-2033(gp) # 2000000f <column>
      column = 0;
      if(line == 7) OLED_scrollDisplay();
      else line++;
      OLED_setline((line + scroll) & 0x07);
    }
    cursorX += 6;
     3ee:	80d1c783          	lbu	a5,-2035(gp) # 2000000d <cursorX>
    if(cursorX > 128-6){
     3f2:	07a00693          	li	a3,122
    cursorX += 6;
     3f6:	0799                	addi	a5,a5,6
     3f8:	0ff7f793          	zext.b	a5,a5
    if(cursorX > 128-6){
     3fc:	02f6e963          	bltu	a3,a5,42e <OLED_write+0x66>
    cursorX += 6;
     400:	80f186a3          	sb	a5,-2035(gp) # 2000000d <cursorX>
  // carriage return
  else if(c == '\r') {
    column = 0;
    OLED_setline((line + scroll) & 0x07);
  }
}
     404:	bda1                	j	25c <__riscv_restore_0>
      if(line == 7) OLED_scrollDisplay();
     406:	8101c783          	lbu	a5,-2032(gp) # 20000010 <line>
      column = 0;
     40a:	800187a3          	sb	zero,-2033(gp) # 2000000f <column>
      if(line == 7) OLED_scrollDisplay();
     40e:	471d                	li	a4,7
     410:	00e79b63          	bne	a5,a4,426 <OLED_write+0x5e>
     414:	3df5                	jal	310 <OLED_scrollDisplay>
      OLED_setline((line + scroll) & 0x07);
     416:	8101c503          	lbu	a0,-2032(gp) # 20000010 <line>
     41a:	80e1c783          	lbu	a5,-2034(gp) # 2000000e <scroll>
     41e:	953e                	add	a0,a0,a5
     420:	891d                	andi	a0,a0,7
     422:	3571                	jal	2ae <OLED_setline>
     424:	b7e9                	j	3ee <OLED_write+0x26>
      else line++;
     426:	0785                	addi	a5,a5,1
     428:	80f18823          	sb	a5,-2032(gp) # 20000010 <line>
     42c:	b7ed                	j	416 <OLED_write+0x4e>
        cursorX = 0;
     42e:	800186a3          	sb	zero,-2035(gp) # 2000000d <cursorX>
        cursorY += 8;
     432:	80c1c783          	lbu	a5,-2036(gp) # 2000000c <cursorY>
     436:	07a1                	addi	a5,a5,8
     438:	80f18623          	sb	a5,-2036(gp) # 2000000c <cursorY>
     43c:	b7e1                	j	404 <OLED_write+0x3c>
  else if(c == '\n') {
     43e:	47a9                	li	a5,10
     440:	02f51d63          	bne	a0,a5,47a <OLED_write+0xb2>
    cursorX = 0;
     444:	800186a3          	sb	zero,-2035(gp) # 2000000d <cursorX>
    cursorY += 8;
     448:	80c1c783          	lbu	a5,-2036(gp) # 2000000c <cursorY>
     44c:	07a1                	addi	a5,a5,8
     44e:	80f18623          	sb	a5,-2036(gp) # 2000000c <cursorY>
    column = 0;
     452:	800187a3          	sb	zero,-2033(gp) # 2000000f <column>
    if(line == 7) OLED_scrollDisplay();
     456:	8101c783          	lbu	a5,-2032(gp) # 20000010 <line>
     45a:	471d                	li	a4,7
     45c:	00e79b63          	bne	a5,a4,472 <OLED_write+0xaa>
     460:	3d45                	jal	310 <OLED_scrollDisplay>
    OLED_setline((line + scroll) & 0x07);
     462:	8101c503          	lbu	a0,-2032(gp) # 20000010 <line>
    OLED_setline((line + scroll) & 0x07);
     466:	80e1c783          	lbu	a5,-2034(gp) # 2000000e <scroll>
     46a:	953e                	add	a0,a0,a5
     46c:	891d                	andi	a0,a0,7
     46e:	3581                	jal	2ae <OLED_setline>
}
     470:	bf51                	j	404 <OLED_write+0x3c>
    else line++;
     472:	0785                	addi	a5,a5,1
     474:	80f18823          	sb	a5,-2032(gp) # 20000010 <line>
     478:	b7ed                	j	462 <OLED_write+0x9a>
  else if(c == '\r') {
     47a:	47b5                	li	a5,13
     47c:	f8f514e3          	bne	a0,a5,404 <OLED_write+0x3c>
    column = 0;
     480:	800187a3          	sb	zero,-2033(gp) # 2000000f <column>
    OLED_setline((line + scroll) & 0x07);
     484:	8101c503          	lbu	a0,-2032(gp) # 20000010 <line>
     488:	bff9                	j	466 <OLED_write+0x9e>

0000048a <OLED_printS>:
void OLED_print(char* str) {
  OLED_printS(str, false);
}

// OLED print string
void OLED_printS(char* str, bool inverted) {
     48a:	dabff2ef          	jal	t0,234 <__riscv_save_0>
     48e:	1141                	addi	sp,sp,-16
     490:	842a                	mv	s0,a0
  while(*str) {
     492:	00040503          	lb	a0,0(s0)
     496:	e119                	bnez	a0,49c <OLED_printS+0x12>
    OLED_write(*str++, inverted);
  }
}
     498:	0141                	addi	sp,sp,16
     49a:	b3c9                	j	25c <__riscv_restore_0>
    OLED_write(*str++, inverted);
     49c:	c62e                	sw	a1,12(sp)
     49e:	372d                	jal	3c8 <OLED_write>
     4a0:	45b2                	lw	a1,12(sp)
     4a2:	0405                	addi	s0,s0,1
     4a4:	b7fd                	j	492 <OLED_printS+0x8>

000004a6 <OLED_print>:
  OLED_printS(str, false);
     4a6:	4581                	li	a1,0
     4a8:	b7cd                	j	48a <OLED_printS>

000004aa <OLED_setpos>:
  OLED_printW(value >> 16, inverted);
  OLED_printW(value, inverted);
}

// OLED set cursor position
void OLED_setpos(uint8_t x, uint8_t y) {
     4aa:	d8bff2ef          	jal	t0,234 <__riscv_save_0>
     4ae:	1141                	addi	sp,sp,-16
  cursorY = y;
     4b0:	80b18623          	sb	a1,-2036(gp) # 2000000c <cursorY>
  cursorX = x;
     4b4:	80a186a3          	sb	a0,-2035(gp) # 2000000d <cursorX>
void OLED_setpos(uint8_t x, uint8_t y) {
     4b8:	842a                	mv	s0,a0
  I2C_start(OLED_ADDR);                   // start transmission to OLED
     4ba:	07800513          	li	a0,120
  cursorY = y;
     4be:	c62e                	sw	a1,12(sp)
  I2C_start(OLED_ADDR);                   // start transmission to OLED
     4c0:	28f5                	jal	5bc <I2C_start>
  I2C_write(OLED_CMD_MODE);               // set command mode
     4c2:	4501                	li	a0,0
     4c4:	2a35                	jal	600 <I2C_write>
  I2C_write(OLED_PAGE | y);	              // set page start address
     4c6:	45b2                	lw	a1,12(sp)
     4c8:	0b05e513          	ori	a0,a1,176
     4cc:	2a15                	jal	600 <I2C_write>
  I2C_write(x & 0x0F);			              // set lower nibble of start column
     4ce:	00f47513          	andi	a0,s0,15
     4d2:	223d                	jal	600 <I2C_write>
  I2C_write(OLED_COLUMN_HIGH | (x >> 4)); // set higher nibble of start column
     4d4:	00445513          	srli	a0,s0,0x4
     4d8:	01056513          	ori	a0,a0,16
     4dc:	2215                	jal	600 <I2C_write>
  I2C_stop();                             // stop transmission
     4de:	2a1d                	jal	614 <I2C_stop>
}
     4e0:	0141                	addi	sp,sp,16
     4e2:	bbad                	j	25c <__riscv_restore_0>

000004e4 <OLED_clear>:
void OLED_clear(void) {
     4e4:	d51ff2ef          	jal	t0,234 <__riscv_save_0>
		OLED_setpos(0, 0);                            // set cursor to first digit
     4e8:	4581                	li	a1,0
     4ea:	4501                	li	a0,0
     4ec:	3f7d                	jal	4aa <OLED_setpos>
  I2C_start(OLED_ADDR);                           // start transmission to OLED
     4ee:	07800513          	li	a0,120
     4f2:	20e9                	jal	5bc <I2C_start>
  I2C_write(OLED_DAT_MODE);                       // set data mode
     4f4:	20000437          	lui	s0,0x20000
     4f8:	04000513          	li	a0,64
     4fc:	01c40413          	addi	s0,s0,28 # 2000001c <SSD1306_Buffer>
     500:	2201                	jal	600 <I2C_write>
  for(i=128*8; i; i--) {                          // clear screen and buffer
     502:	c0040493          	addi	s1,s0,-1024
    I2C_write(0x00);
     506:	4501                	li	a0,0
     508:	28e5                	jal	600 <I2C_write>
  for(i=128*8; i; i--) {                          // clear screen and buffer
     50a:	147d                	addi	s0,s0,-1
    SSD1306_Buffer[i-1] = 0x00;
     50c:	40040023          	sb	zero,1024(s0)
  for(i=128*8; i; i--) {                          // clear screen and buffer
     510:	fe941be3          	bne	s0,s1,506 <OLED_clear+0x22>
  I2C_stop();                                     // stop transmission
     514:	2201                	jal	614 <I2C_stop>
}
     516:	b399                	j	25c <__riscv_restore_0>

00000518 <OLED_init>:
void OLED_init(void) {
     518:	d1dff2ef          	jal	t0,234 <__riscv_save_0>
  I2C_init();                             // initialize I2C first
     51c:	281d                	jal	552 <I2C_init>
  I2C_start(OLED_ADDR);                   // start transmission to OLED
     51e:	07800513          	li	a0,120
     522:	2869                	jal	5bc <I2C_start>
  I2C_write(OLED_CMD_MODE);               // set command mode
     524:	4501                	li	a0,0
    I2C_write(ssd1306_init_sequence[i]);          // send the command bytes
     526:	6485                	lui	s1,0x1
  I2C_write(OLED_CMD_MODE);               // set command mode
     528:	28e1                	jal	600 <I2C_write>
     52a:	4401                	li	s0,0
    I2C_write(ssd1306_init_sequence[i]);          // send the command bytes
     52c:	f5848493          	addi	s1,s1,-168 # f58 <ssd1306_init_sequence>
  for(i = 0; i < sizeof(ssd1306_init_sequence); i++)
     530:	02000913          	li	s2,32
    I2C_write(ssd1306_init_sequence[i]);          // send the command bytes
     534:	009407b3          	add	a5,s0,s1
     538:	2388                	.insn	2, 0x2388
  for(i = 0; i < sizeof(ssd1306_init_sequence); i++)
     53a:	0405                	addi	s0,s0,1
    I2C_write(ssd1306_init_sequence[i]);          // send the command bytes
     53c:	20d1                	jal	600 <I2C_write>
  for(i = 0; i < sizeof(ssd1306_init_sequence); i++)
     53e:	ff241be3          	bne	s0,s2,534 <OLED_init+0x1c>
  I2C_stop();                             // stop transmission
     542:	28c9                	jal	614 <I2C_stop>
  scroll = 0;                             // start with zero scroll
     544:	80018723          	sb	zero,-2034(gp) # 2000000e <scroll>
  OLED_clear();                           // clear screen
     548:	3f71                	jal	4e4 <OLED_clear>
  OLED_setpos(0,0);
     54a:	4581                	li	a1,0
     54c:	4501                	li	a0,0
     54e:	3fb1                	jal	4aa <OLED_setpos>
}
     550:	b331                	j	25c <__riscv_restore_0>

00000552 <I2C_init>:
#define I2C_ADDR_TRANSMITTED    0x00820003    // BUSY, MSL, ADDR, TXE
#define I2C_BYTE_TRANSMITTED    0x00840003    // BUSY, MSL, BTF, TXE
#define I2C_checkEvent(n)       (((((uint32_t)I2C1->STAR1<<16) | I2C1->STAR2) & n) == n)

// Init I2C
void I2C_init(void) {
     552:	ce3ff2ef          	jal	t0,234 <__riscv_save_0>
     556:	1101                	addi	sp,sp,-32
  RCC_APB2PeriphClockCmd(RCC_APB2Periph_GPIOB|RCC_APB2Periph_AFIO, ENABLE);
     558:	4585                	li	a1,1
     55a:	4525                	li	a0,9
     55c:	21b5                	jal	9c8 <RCC_APB2PeriphClockCmd>
  GPIO_PinRemapConfig(GPIO_Remap_I2C1, ENABLE);
     55e:	4585                	li	a1,1
     560:	4509                	li	a0,2
     562:	2279                	jal	6f0 <GPIO_PinRemapConfig>
  RCC_APB1PeriphClockCmd(RCC_APB1Periph_I2C1, ENABLE);
     564:	4585                	li	a1,1
     566:	00200537          	lui	a0,0x200
     56a:	299d                	jal	9e0 <RCC_APB1PeriphClockCmd>
  GPIO_SetBits(GPIOB, GPIO_Pin_9|GPIO_Pin_8);
     56c:	40011537          	lui	a0,0x40011
     570:	30000593          	li	a1,768
     574:	c0050513          	addi	a0,a0,-1024 # 40010c00 <_eusrstack+0x20008c00>
     578:	2a95                	jal	6ec <GPIO_SetBits>

  I2C_InitTypeDef i2c = {
     57a:	6405                	lui	s0,0x1
     57c:	4641                	li	a2,16
     57e:	f3440413          	addi	s0,s0,-204 # f34 <__register_exitproc+0x74>
     582:	00c10533          	add	a0,sp,a2
     586:	85a2                	mv	a1,s0
     588:	31c5                	jal	268 <memcpy>
    .I2C_Ack = I2C_Ack_Enable,
    .I2C_OwnAddress1 = 0x08,
    .I2C_Mode = I2C_Mode_I2C,
    .I2C_AcknowledgedAddress = I2C_AcknowledgedAddress_7bit,
  };
  I2C_Init(I2C1, &i2c);
     58a:	40005537          	lui	a0,0x40005
     58e:	080c                	addi	a1,sp,16
     590:	40050513          	addi	a0,a0,1024 # 40005400 <_eusrstack+0x1fffd400>
     594:	2411                	jal	798 <I2C_Init>
  I2C_Cmd(I2C1, ENABLE);
     596:	40005537          	lui	a0,0x40005
     59a:	4585                	li	a1,1
     59c:	40050513          	addi	a0,a0,1024 # 40005400 <_eusrstack+0x1fffd400>
     5a0:	24c9                	jal	862 <I2C_Cmd>

  GPIO_InitTypeDef gpio = {
     5a2:	4631                	li	a2,12
     5a4:	01040593          	addi	a1,s0,16
     5a8:	0048                	addi	a0,sp,4
     5aa:	397d                	jal	268 <memcpy>
    .GPIO_Mode = GPIO_Mode_AF_OD,
    .GPIO_Pin = GPIO_Pin_8|GPIO_Pin_9,
    .GPIO_Speed = GPIO_Speed_50MHz,
  };
  GPIO_Init(GPIOB, &gpio);
     5ac:	40011537          	lui	a0,0x40011
     5b0:	004c                	addi	a1,sp,4
     5b2:	c0050513          	addi	a0,a0,-1024 # 40010c00 <_eusrstack+0x20008c00>
     5b6:	289d                	jal	62c <GPIO_Init>
}
     5b8:	6105                	addi	sp,sp,32
     5ba:	b14d                	j	25c <__riscv_restore_0>

000005bc <I2C_start>:

// Start I2C transmission (addr must contain R/W bit)
void I2C_start(uint8_t addr) {
  while(I2C1->STAR2 & I2C_STAR2_BUSY);            // wait until bus ready
     5bc:	400057b7          	lui	a5,0x40005
     5c0:	40078793          	addi	a5,a5,1024 # 40005400 <_eusrstack+0x1fffd400>
     5c4:	2f9a                	.insn	2, 0x2f9a
     5c6:	8b09                	andi	a4,a4,2
     5c8:	ff75                	bnez	a4,5c4 <I2C_start+0x8>
  I2C1->CTLR1 |= I2C_CTLR1_START;                 // set START condition
     5ca:	239a                	.insn	2, 0x239a
     5cc:	10076713          	ori	a4,a4,256
     5d0:	a39a                	.insn	2, 0xa39a
  while(!(I2C1->STAR1 & I2C_STAR1_SB));           // wait for START generated
     5d2:	400057b7          	lui	a5,0x40005
     5d6:	40078793          	addi	a5,a5,1024 # 40005400 <_eusrstack+0x1fffd400>
     5da:	2bda                	.insn	2, 0x2bda
     5dc:	8b05                	andi	a4,a4,1
     5de:	df75                	beqz	a4,5da <I2C_start+0x1e>
  I2C1->DATAR = addr;                             // send slave address + R/W bit
  while(!I2C_checkEvent(I2C_ADDR_TRANSMITTED));   // wait for address transmitted
     5e0:	400056b7          	lui	a3,0x40005
     5e4:	00820737          	lui	a4,0x820
  I2C1->DATAR = addr;                             // send slave address + R/W bit
     5e8:	ab8a                	.insn	2, 0xab8a
  while(!I2C_checkEvent(I2C_ADDR_TRANSMITTED));   // wait for address transmitted
     5ea:	40068693          	addi	a3,a3,1024 # 40005400 <_eusrstack+0x1fffd400>
     5ee:	070d                	addi	a4,a4,3 # 820003 <_data_lma+0x81ee8b>
     5f0:	2ade                	.insn	2, 0x2ade
     5f2:	2e92                	.insn	2, 0x2e92
     5f4:	07c2                	slli	a5,a5,0x10
     5f6:	8fd1                	or	a5,a5,a2
     5f8:	8ff9                	and	a5,a5,a4
     5fa:	fee79be3          	bne	a5,a4,5f0 <I2C_start+0x34>
}
     5fe:	8082                	ret

00000600 <I2C_write>:

// Send data byte via I2C bus
void I2C_write(uint8_t data) {
  while(!(I2C1->STAR1 & I2C_STAR1_TXE));          // wait for last byte transmitted
     600:	400057b7          	lui	a5,0x40005
     604:	40078793          	addi	a5,a5,1024 # 40005400 <_eusrstack+0x1fffd400>
     608:	2bda                	.insn	2, 0x2bda
     60a:	08077713          	andi	a4,a4,128
     60e:	df6d                	beqz	a4,608 <I2C_write+0x8>
  I2C1->DATAR = data;                             // send data byte
     610:	ab8a                	.insn	2, 0xab8a
}
     612:	8082                	ret

00000614 <I2C_stop>:

// Stop I2C transmission
void I2C_stop(void) {
  while(!(I2C1->STAR1 & I2C_STAR1_BTF));          // wait for last byte transmitted
     614:	400057b7          	lui	a5,0x40005
     618:	40078793          	addi	a5,a5,1024 # 40005400 <_eusrstack+0x1fffd400>
     61c:	2bda                	.insn	2, 0x2bda
     61e:	8b11                	andi	a4,a4,4
     620:	df75                	beqz	a4,61c <I2C_stop+0x8>
  I2C1->CTLR1 |= I2C_CTLR1_STOP;                  // set STOP condition
     622:	239a                	.insn	2, 0x239a
     624:	20076713          	ori	a4,a4,512
     628:	a39a                	.insn	2, 0xa39a
}
     62a:	8082                	ret

0000062c <GPIO_Init>:
void GPIO_Init(GPIO_TypeDef *GPIOx, GPIO_InitTypeDef *GPIO_InitStruct)
{
    uint32_t currentmode = 0x00, currentpin = 0x00, pinpos = 0x00, pos = 0x00;
    uint32_t tmpreg = 0x00, pinmask = 0x00;

    currentmode = ((uint32_t)GPIO_InitStruct->GPIO_Mode) & ((uint32_t)0x0F);
     62c:	459c                	lw	a5,8(a1)

    if((((uint32_t)GPIO_InitStruct->GPIO_Mode) & ((uint32_t)0x10)) != 0x00)
     62e:	0107f713          	andi	a4,a5,16
    currentmode = ((uint32_t)GPIO_InitStruct->GPIO_Mode) & ((uint32_t)0x0F);
     632:	00f7f813          	andi	a6,a5,15
    if((((uint32_t)GPIO_InitStruct->GPIO_Mode) & ((uint32_t)0x10)) != 0x00)
     636:	c701                	beqz	a4,63e <GPIO_Init+0x12>
    {
        currentmode |= (uint32_t)GPIO_InitStruct->GPIO_Speed;
     638:	41d8                	lw	a4,4(a1)
     63a:	00e86833          	or	a6,a6,a4
    }

    if(((uint32_t)GPIO_InitStruct->GPIO_Pin & ((uint32_t)0x00FF)) != 0x00)
     63e:	218e                	.insn	2, 0x218e
     640:	0ff5f713          	zext.b	a4,a1
     644:	c339                	beqz	a4,68a <GPIO_Init+0x5e>
    {
        tmpreg = GPIOx->CFGLR;
     646:	4118                	lw	a4,0(a0)

        for(pinpos = 0x00; pinpos < 0x08; pinpos++)
     648:	4681                	li	a3,0
        {
            pos = ((uint32_t)0x01) << pinpos;
     64a:	4e85                	li	t4,1
            currentpin = (GPIO_InitStruct->GPIO_Pin) & pos;

            if(currentpin == pos)
            {
                pos = pinpos << 2;
                pinmask = ((uint32_t)0x0F) << pos;
     64c:	4f3d                	li	t5,15
                tmpreg &= ~pinmask;
                tmpreg |= (currentmode << pos);

                if(GPIO_InitStruct->GPIO_Mode == GPIO_Mode_IPD)
     64e:	02800f93          	li	t6,40
                {
                    GPIOx->BCR = (((uint32_t)0x01) << pinpos);
                }
                else
                {
                    if(GPIO_InitStruct->GPIO_Mode == GPIO_Mode_IPU)
     652:	04800293          	li	t0,72
        for(pinpos = 0x00; pinpos < 0x08; pinpos++)
     656:	4e21                	li	t3,8
            pos = ((uint32_t)0x01) << pinpos;
     658:	00de9633          	sll	a2,t4,a3
            currentpin = (GPIO_InitStruct->GPIO_Pin) & pos;
     65c:	00c5f8b3          	and	a7,a1,a2
            if(currentpin == pos)
     660:	03161163          	bne	a2,a7,682 <GPIO_Init+0x56>
                pos = pinpos << 2;
     664:	00269893          	slli	a7,a3,0x2
                pinmask = ((uint32_t)0x0F) << pos;
     668:	011f1333          	sll	t1,t5,a7
                tmpreg &= ~pinmask;
     66c:	fff34313          	not	t1,t1
     670:	00e37733          	and	a4,t1,a4
                tmpreg |= (currentmode << pos);
     674:	011818b3          	sll	a7,a6,a7
     678:	00e8e733          	or	a4,a7,a4
                if(GPIO_InitStruct->GPIO_Mode == GPIO_Mode_IPD)
     67c:	07f79063          	bne	a5,t6,6dc <GPIO_Init+0xb0>
                    GPIOx->BCR = (((uint32_t)0x01) << pinpos);
     680:	c950                	sw	a2,20(a0)
        for(pinpos = 0x00; pinpos < 0x08; pinpos++)
     682:	0685                	addi	a3,a3,1
     684:	fdc69ae3          	bne	a3,t3,658 <GPIO_Init+0x2c>
                        GPIOx->BSHR = (((uint32_t)0x01) << pinpos);
                    }
                }
            }
        }
        GPIOx->CFGLR = tmpreg;
     688:	c118                	sw	a4,0(a0)
    }

    if(GPIO_InitStruct->GPIO_Pin > 0x00FF)
     68a:	0ff00713          	li	a4,255
     68e:	04b77663          	bgeu	a4,a1,6da <GPIO_Init+0xae>
    {
        tmpreg = GPIOx->CFGHR;
     692:	4154                	lw	a3,4(a0)

        for(pinpos = 0x00; pinpos < 0x08; pinpos++)
     694:	4601                	li	a2,0
        {
            pos = (((uint32_t)0x01) << (pinpos + 0x08));
     696:	4e85                	li	t4,1
            currentpin = ((GPIO_InitStruct->GPIO_Pin) & pos);

            if(currentpin == pos)
            {
                pos = pinpos << 2;
                pinmask = ((uint32_t)0x0F) << pos;
     698:	4f3d                	li	t5,15
                tmpreg &= ~pinmask;
                tmpreg |= (currentmode << pos);

                if(GPIO_InitStruct->GPIO_Mode == GPIO_Mode_IPD)
     69a:	02800f93          	li	t6,40
                {
                    GPIOx->BCR = (((uint32_t)0x01) << (pinpos + 0x08));
                }

                if(GPIO_InitStruct->GPIO_Mode == GPIO_Mode_IPU)
     69e:	04800293          	li	t0,72
        for(pinpos = 0x00; pinpos < 0x08; pinpos++)
     6a2:	4e21                	li	t3,8
            pos = (((uint32_t)0x01) << (pinpos + 0x08));
     6a4:	00860713          	addi	a4,a2,8
     6a8:	00ee9733          	sll	a4,t4,a4
            currentpin = ((GPIO_InitStruct->GPIO_Pin) & pos);
     6ac:	00e5f8b3          	and	a7,a1,a4
            if(currentpin == pos)
     6b0:	03171163          	bne	a4,a7,6d2 <GPIO_Init+0xa6>
                pos = pinpos << 2;
     6b4:	00261893          	slli	a7,a2,0x2
                pinmask = ((uint32_t)0x0F) << pos;
     6b8:	011f1333          	sll	t1,t5,a7
                tmpreg &= ~pinmask;
     6bc:	fff34313          	not	t1,t1
     6c0:	00d376b3          	and	a3,t1,a3
                tmpreg |= (currentmode << pos);
     6c4:	011818b3          	sll	a7,a6,a7
     6c8:	00d8e6b3          	or	a3,a7,a3
                if(GPIO_InitStruct->GPIO_Mode == GPIO_Mode_IPD)
     6cc:	01f79c63          	bne	a5,t6,6e4 <GPIO_Init+0xb8>
                    GPIOx->BCR = (((uint32_t)0x01) << (pinpos + 0x08));
     6d0:	c958                	sw	a4,20(a0)
        for(pinpos = 0x00; pinpos < 0x08; pinpos++)
     6d2:	0605                	addi	a2,a2,1
     6d4:	fdc618e3          	bne	a2,t3,6a4 <GPIO_Init+0x78>
                {
                    GPIOx->BSHR = (((uint32_t)0x01) << (pinpos + 0x08));
                }
            }
        }
        GPIOx->CFGHR = tmpreg;
     6d8:	c154                	sw	a3,4(a0)
    }
}
     6da:	8082                	ret
                    if(GPIO_InitStruct->GPIO_Mode == GPIO_Mode_IPU)
     6dc:	fa5793e3          	bne	a5,t0,682 <GPIO_Init+0x56>
                        GPIOx->BSHR = (((uint32_t)0x01) << pinpos);
     6e0:	c910                	sw	a2,16(a0)
     6e2:	b745                	j	682 <GPIO_Init+0x56>
                if(GPIO_InitStruct->GPIO_Mode == GPIO_Mode_IPU)
     6e4:	fe5797e3          	bne	a5,t0,6d2 <GPIO_Init+0xa6>
                    GPIOx->BSHR = (((uint32_t)0x01) << (pinpos + 0x08));
     6e8:	c918                	sw	a4,16(a0)
     6ea:	b7e5                	j	6d2 <GPIO_Init+0xa6>

000006ec <GPIO_SetBits>:
 *
 * @return  none
 */
void GPIO_SetBits(GPIO_TypeDef *GPIOx, uint16_t GPIO_Pin)
{
    GPIOx->BSHR = GPIO_Pin;
     6ec:	c90c                	sw	a1,16(a0)
}
     6ee:	8082                	ret

000006f0 <GPIO_PinRemapConfig>:
 */
void GPIO_PinRemapConfig(uint32_t GPIO_Remap, FunctionalState NewState)
{
    uint32_t tmp = 0x00, tmp1 = 0x00, tmpreg = 0x00, tmpmask = 0x00;

    if((GPIO_Remap & 0x80000000) == 0x80000000)
     6f0:	400107b7          	lui	a5,0x40010
     6f4:	02055963          	bgez	a0,726 <GPIO_PinRemapConfig+0x36>
    {
        tmpreg = AFIO->PCFR2;
     6f8:	4fdc                	lw	a5,28(a5)
    else
    {
        tmpreg = AFIO->PCFR1;
    }

    tmpmask = (GPIO_Remap & DBGAFR_POSITION_MASK) >> 0x10;
     6fa:	01055693          	srli	a3,a0,0x10
    tmp = GPIO_Remap & LSB_MASK;
     6fe:	01051613          	slli	a2,a0,0x10

    /* Clear bit */
    if((GPIO_Remap & 0x80000000) == 0x80000000)
    {                                                                                                                   /* PCFR2 */
        if((GPIO_Remap & (DBGAFR_LOCATION_MASK | DBGAFR_NUMBITS_MASK)) == (DBGAFR_LOCATION_MASK | DBGAFR_NUMBITS_MASK)) /* [31:16] 2bit */
     702:	00300737          	lui	a4,0x300
    tmpmask = (GPIO_Remap & DBGAFR_POSITION_MASK) >> 0x10;
     706:	8abd                	andi	a3,a3,15
    tmp = GPIO_Remap & LSB_MASK;
     708:	8241                	srli	a2,a2,0x10
        if((GPIO_Remap & (DBGAFR_LOCATION_MASK | DBGAFR_NUMBITS_MASK)) == (DBGAFR_LOCATION_MASK | DBGAFR_NUMBITS_MASK)) /* [31:16] 2bit */
     70a:	00e57833          	and	a6,a0,a4
    if((GPIO_Remap & 0x80000000) == 0x80000000)
     70e:	02055f63          	bgez	a0,74c <GPIO_PinRemapConfig+0x5c>
        if((GPIO_Remap & (DBGAFR_LOCATION_MASK | DBGAFR_NUMBITS_MASK)) == (DBGAFR_LOCATION_MASK | DBGAFR_NUMBITS_MASK)) /* [31:16] 2bit */
     712:	00e81c63          	bne	a6,a4,72a <GPIO_PinRemapConfig+0x3a>
        {
            tmp1 = ((uint32_t)0x03) << (tmpmask + 0x10);
     716:	06c1                	addi	a3,a3,16
            tmpreg &= ~tmp1;
        }
        else if((GPIO_Remap & DBGAFR_NUMBITS_MASK) == DBGAFR_NUMBITS_MASK) /* [15:0] 2bit */
        {
            tmp1 = ((uint32_t)0x03) << tmpmask;
     718:	470d                	li	a4,3
     71a:	00d71733          	sll	a4,a4,a3
            tmpreg &= ~tmp1;
     71e:	fff74713          	not	a4,a4
     722:	8ff9                	and	a5,a5,a4
     724:	a039                	j	732 <GPIO_PinRemapConfig+0x42>
        tmpreg = AFIO->PCFR1;
     726:	43dc                	lw	a5,4(a5)
     728:	bfc9                	j	6fa <GPIO_PinRemapConfig+0xa>
        else if((GPIO_Remap & DBGAFR_NUMBITS_MASK) == DBGAFR_NUMBITS_MASK) /* [15:0] 2bit */
     72a:	00b51713          	slli	a4,a0,0xb
     72e:	fe0745e3          	bltz	a4,718 <GPIO_PinRemapConfig+0x28>
            tmpreg |= ~DBGAFR_SWJCFG_MASK;
        }
    }

    /* Set bit */
    if(NewState != DISABLE)
     732:	c989                	beqz	a1,744 <GPIO_PinRemapConfig+0x54>
    {
        tmpreg |= (tmp << ((GPIO_Remap >> 0x15) * 0x10));
     734:	01555713          	srli	a4,a0,0x15
     738:	0712                	slli	a4,a4,0x4
     73a:	00e61733          	sll	a4,a2,a4
     73e:	8fd9                	or	a5,a5,a4
    }

    if((GPIO_Remap & 0x80000000) == 0x80000000)
     740:	02055463          	bgez	a0,768 <GPIO_PinRemapConfig+0x78>
    {
        AFIO->PCFR2 = tmpreg;
     744:	40010737          	lui	a4,0x40010
     748:	cf5c                	sw	a5,28(a4)
     74a:	8082                	ret
        if((GPIO_Remap & (DBGAFR_LOCATION_MASK | DBGAFR_NUMBITS_MASK)) == (DBGAFR_LOCATION_MASK | DBGAFR_NUMBITS_MASK)) /* [26:24] 3bit SWD_JTAG */
     74c:	02e81263          	bne	a6,a4,770 <GPIO_PinRemapConfig+0x80>
            AFIO->PCFR1 &= DBGAFR_SWJCFG_MASK;
     750:	40010837          	lui	a6,0x40010
     754:	00482683          	lw	a3,4(a6) # 40010004 <_eusrstack+0x20008004>
            tmpreg &= DBGAFR_SWJCFG_MASK;
     758:	f1000737          	lui	a4,0xf1000
     75c:	177d                	addi	a4,a4,-1 # f0ffffff <_eusrstack+0xd0ff7fff>
     75e:	8ff9                	and	a5,a5,a4
            AFIO->PCFR1 &= DBGAFR_SWJCFG_MASK;
     760:	8f75                	and	a4,a4,a3
     762:	00e82223          	sw	a4,4(a6)
    if(NewState != DISABLE)
     766:	f5f9                	bnez	a1,734 <GPIO_PinRemapConfig+0x44>
    }
    else
    {
        AFIO->PCFR1 = tmpreg;
     768:	40010737          	lui	a4,0x40010
     76c:	c35c                	sw	a5,4(a4)
    }
}
     76e:	8082                	ret
        else if((GPIO_Remap & DBGAFR_NUMBITS_MASK) == DBGAFR_NUMBITS_MASK) /* [15:0] 2bit */
     770:	00b51713          	slli	a4,a0,0xb
     774:	00075c63          	bgez	a4,78c <GPIO_PinRemapConfig+0x9c>
            tmp1 = ((uint32_t)0x03) << tmpmask;
     778:	470d                	li	a4,3
     77a:	00d71733          	sll	a4,a4,a3
            tmpreg &= ~(tmp << ((GPIO_Remap >> 0x15) * 0x10));
     77e:	fff74713          	not	a4,a4
     782:	8f7d                	and	a4,a4,a5
            tmpreg |= ~DBGAFR_SWJCFG_MASK;
     784:	0f0007b7          	lui	a5,0xf000
     788:	8fd9                	or	a5,a5,a4
     78a:	bff1                	j	766 <GPIO_PinRemapConfig+0x76>
            tmpreg &= ~(tmp << ((GPIO_Remap >> 0x15) * 0x10));
     78c:	01555713          	srli	a4,a0,0x15
     790:	0712                	slli	a4,a4,0x4
     792:	00e61733          	sll	a4,a2,a4
     796:	b7e5                	j	77e <GPIO_PinRemapConfig+0x8e>

00000798 <I2C_Init>:
 *        contains the configuration information for the specified I2C peripheral.
 *
 * @return  none
 */
void I2C_Init(I2C_TypeDef *I2Cx, I2C_InitTypeDef *I2C_InitStruct)
{
     798:	a9dff2ef          	jal	t0,234 <__riscv_save_0>
    uint16_t result = 0x04;
    uint32_t pclk1 = 8000000;

    RCC_ClocksTypeDef rcc_clocks;

    tmpreg = I2Cx->CTLR2;
     79c:	2146                	.insn	2, 0x2146
{
     79e:	7179                	addi	sp,sp,-48
    tmpreg &= CTLR2_FREQ_Reset;
     7a0:	67c1                	lui	a5,0x10
{
     7a2:	842a                	mv	s0,a0
    tmpreg &= CTLR2_FREQ_Reset;
     7a4:	fc078793          	addi	a5,a5,-64 # ffc0 <_data_lma+0xee48>
    RCC_GetClocksFreq(&rcc_clocks);
     7a8:	0868                	addi	a0,sp,28
    tmpreg &= CTLR2_FREQ_Reset;
     7aa:	8cfd                	and	s1,s1,a5
{
     7ac:	c62e                	sw	a1,12(sp)
    RCC_GetClocksFreq(&rcc_clocks);
     7ae:	20e1                	jal	876 <RCC_GetClocksFreq>
    pclk1 = rcc_clocks.PCLK1_Frequency;
     7b0:	5792                	lw	a5,36(sp)
    freqrange = (uint16_t)(pclk1 / 1000000);
     7b2:	000f4737          	lui	a4,0xf4
     7b6:	24070713          	addi	a4,a4,576 # f4240 <_data_lma+0xf30c8>
     7ba:	02e7d733          	divu	a4,a5,a4
    I2Cx->CTLR2 = tmpreg;

    I2Cx->CTLR1 &= CTLR1_PE_Reset;
    tmpreg = 0;

    if(I2C_InitStruct->I2C_ClockSpeed <= 100000)
     7be:	45b2                	lw	a1,12(sp)
    I2Cx->CTLR1 &= CTLR1_PE_Reset;
     7c0:	6641                	lui	a2,0x10
     7c2:	1679                	addi	a2,a2,-2 # fffe <_data_lma+0xee86>
    tmpreg |= freqrange;
     7c4:	8cd9                	or	s1,s1,a4
    I2Cx->CTLR2 = tmpreg;
     7c6:	a046                	.insn	2, 0xa046
    I2Cx->CTLR1 &= CTLR1_PE_Reset;
     7c8:	2016                	.insn	2, 0x2016
     7ca:	8ef1                	and	a3,a3,a2
     7cc:	a016                	.insn	2, 0xa016
    if(I2C_InitStruct->I2C_ClockSpeed <= 100000)
     7ce:	4194                	lw	a3,0(a1)
     7d0:	6661                	lui	a2,0x18
     7d2:	6a060613          	addi	a2,a2,1696 # 186a0 <_data_lma+0x17528>
     7d6:	04d66463          	bltu	a2,a3,81e <__stack_size+0x1e>
    {
        result = (uint16_t)(pclk1 / (I2C_InitStruct->I2C_ClockSpeed << 1));
     7da:	0686                	slli	a3,a3,0x1
     7dc:	02d7d6b3          	divu	a3,a5,a3

        if(result < 0x04)
     7e0:	4611                	li	a2,4
        result = (uint16_t)(pclk1 / (I2C_InitStruct->I2C_ClockSpeed << 1));
     7e2:	87b6                	mv	a5,a3
        if(result < 0x04)
     7e4:	06c2                	slli	a3,a3,0x10
     7e6:	82c1                	srli	a3,a3,0x10
     7e8:	00c6f363          	bgeu	a3,a2,7ee <I2C_Init+0x56>
     7ec:	87b2                	mv	a5,a2
        {
            result |= (uint16_t)0x0001;
        }

        tmpreg |= (uint16_t)(result | CKCFGR_FS_Set);
        I2Cx->RTR = (uint16_t)(((freqrange * (uint16_t)300) / (uint16_t)1000) + (uint16_t)1);
     7ee:	0705                	addi	a4,a4,1
     7f0:	b01a                	.insn	2, 0xb01a
    }

    I2Cx->CKCFGR = tmpreg;
     7f2:	ac5e                	.insn	2, 0xac5e
    I2Cx->CTLR1 |= CTLR1_PE_Set;
     7f4:	201e                	.insn	2, 0x201e

    tmpreg = I2Cx->CTLR1;
    tmpreg &= CTLR1_CLEAR_Mask;
     7f6:	6741                	lui	a4,0x10
     7f8:	bf570713          	addi	a4,a4,-1035 # fbf5 <_data_lma+0xea7d>
    I2Cx->CTLR1 |= CTLR1_PE_Set;
     7fc:	0017e793          	ori	a5,a5,1
     800:	a01e                	.insn	2, 0xa01e
    tmpreg = I2Cx->CTLR1;
     802:	201e                	.insn	2, 0x201e
    tmpreg |= (uint16_t)((uint32_t)I2C_InitStruct->I2C_Mode | I2C_InitStruct->I2C_Ack);
     804:	25b6                	.insn	2, 0x25b6
    tmpreg &= CTLR1_CLEAR_Mask;
     806:	8ff9                	and	a5,a5,a4
    tmpreg |= (uint16_t)((uint32_t)I2C_InitStruct->I2C_Mode | I2C_InitStruct->I2C_Ack);
     808:	21da                	.insn	2, 0x21da
     80a:	8f55                	or	a4,a4,a3
     80c:	8fd9                	or	a5,a5,a4
    I2Cx->CTLR1 = tmpreg;
     80e:	a01e                	.insn	2, 0xa01e

    I2Cx->OADDR1 = (I2C_InitStruct->I2C_AcknowledgedAddress | I2C_InitStruct->I2C_OwnAddress1);
     810:	259a                	.insn	2, 0x259a
     812:	25de                	.insn	2, 0x25de
     814:	8fd9                	or	a5,a5,a4
     816:	a41e                	.insn	2, 0xa41e
}
     818:	6145                	addi	sp,sp,48
     81a:	a43ff06f          	j	25c <__riscv_restore_0>
        if(I2C_InitStruct->I2C_DutyCycle == I2C_DutyCycle_2)
     81e:	21ea                	.insn	2, 0x21ea
     820:	6631                	lui	a2,0xc
     822:	167d                	addi	a2,a2,-1 # bfff <_data_lma+0xae87>
     824:	02c51763          	bne	a0,a2,852 <__stack_size+0x52>
            result = (uint16_t)(pclk1 / (I2C_InitStruct->I2C_ClockSpeed * 3));
     828:	460d                	li	a2,3
     82a:	02c686b3          	mul	a3,a3,a2
     82e:	02d7d7b3          	divu	a5,a5,a3
        if((result & CKCFGR_CCR_Set) == 0)
     832:	01479693          	slli	a3,a5,0x14
     836:	e299                	bnez	a3,83c <__stack_size+0x3c>
            result |= (uint16_t)0x0001;
     838:	0017e793          	ori	a5,a5,1
        tmpreg |= (uint16_t)(result | CKCFGR_FS_Set);
     83c:	76e1                	lui	a3,0xffff8
     83e:	8fd5                	or	a5,a5,a3
        I2Cx->RTR = (uint16_t)(((freqrange * (uint16_t)300) / (uint16_t)1000) + (uint16_t)1);
     840:	12c00693          	li	a3,300
     844:	02d70733          	mul	a4,a4,a3
     848:	3e800693          	li	a3,1000
     84c:	02d74733          	div	a4,a4,a3
     850:	bf79                	j	7ee <I2C_Init+0x56>
            result = (uint16_t)(pclk1 / (I2C_InitStruct->I2C_ClockSpeed * 25));
     852:	4665                	li	a2,25
     854:	02c686b3          	mul	a3,a3,a2
     858:	02d7d7b3          	divu	a5,a5,a3
            result |= I2C_DutyCycle_16_9;
     85c:	6691                	lui	a3,0x4
     85e:	8fd5                	or	a5,a5,a3
     860:	bfc9                	j	832 <__stack_size+0x32>

00000862 <I2C_Cmd>:
 */
void I2C_Cmd(I2C_TypeDef *I2Cx, FunctionalState NewState)
{
    if(NewState != DISABLE)
    {
        I2Cx->CTLR1 |= CTLR1_PE_Set;
     862:	211e                	.insn	2, 0x211e
    if(NewState != DISABLE)
     864:	c589                	beqz	a1,86e <I2C_Cmd+0xc>
        I2Cx->CTLR1 |= CTLR1_PE_Set;
     866:	0017e793          	ori	a5,a5,1
    }
    else
    {
        I2Cx->CTLR1 &= CTLR1_PE_Reset;
     86a:	a11e                	.insn	2, 0xa11e
    }
}
     86c:	8082                	ret
        I2Cx->CTLR1 &= CTLR1_PE_Reset;
     86e:	6741                	lui	a4,0x10
     870:	1779                	addi	a4,a4,-2 # fffe <_data_lma+0xee86>
     872:	8ff9                	and	a5,a5,a4
     874:	bfdd                	j	86a <I2C_Cmd+0x8>

00000876 <RCC_GetClocksFreq>:
#ifdef CH32V30x_D8C
    uint8_t Pll2mull = 0;

#endif

    tmp = RCC->CFGR0 & CFGR0_SWS_Mask;
     876:	40021737          	lui	a4,0x40021
     87a:	4354                	lw	a3,4(a4)

    switch(tmp)
     87c:	007a17b7          	lui	a5,0x7a1
     880:	4621                	li	a2,8
    tmp = RCC->CFGR0 & CFGR0_SWS_Mask;
     882:	8ab1                	andi	a3,a3,12
    switch(tmp)
     884:	20078793          	addi	a5,a5,512 # 7a1200 <_data_lma+0x7a0088>
     888:	04c69463          	bne	a3,a2,8d0 <RCC_GetClocksFreq+0x5a>
        case 0x04:
            RCC_Clocks->SYSCLK_Frequency = HSE_VALUE;
            break;

        case 0x08:
            pllmull = RCC->CFGR0 & CFGR0_PLLMull_Mask;
     88c:	435c                	lw	a5,4(a4)
            pllsource = RCC->CFGR0 & CFGR0_PLLSRC_Mask;
     88e:	4358                	lw	a4,4(a4)
     890:	66c1                	lui	a3,0x10

            pllmull = (pllmull >> 18) + 2;
     892:	83c9                	srli	a5,a5,0x12
            pllsource = RCC->CFGR0 & CFGR0_PLLSRC_Mask;
     894:	8f75                	and	a4,a4,a3

            if(((*(uint32_t *)0x1FFFF70C) & (1 << 14)) != (1 << 14))
     896:	1ffff6b7          	lui	a3,0x1ffff
     89a:	70c6a683          	lw	a3,1804(a3) # 1ffff70c <_data_lma+0x1fffe594>
            pllmull = (pllmull >> 18) + 2;
     89e:	8bbd                	andi	a5,a5,15
     8a0:	0789                	addi	a5,a5,2
            if(((*(uint32_t *)0x1FFFF70C) & (1 << 14)) != (1 << 14))
     8a2:	01169613          	slli	a2,a3,0x11
     8a6:	06064e63          	bltz	a2,922 <RCC_GetClocksFreq+0xac>
            { /* for other CH32V30x */
                if(pllmull == 17)
     8aa:	46c5                	li	a3,17
    uint8_t Pll_6_5 = 0;
     8ac:	4601                	li	a2,0
                if(pllmull == 17)
     8ae:	08d78963          	beq	a5,a3,940 <RCC_GetClocksFreq+0xca>
                    pllmull = 15;
                if(pllmull == 17)
                    pllmull = 16;
            }

            if(pllsource == 0x00)
     8b2:	e745                	bnez	a4,95a <RCC_GetClocksFreq+0xe4>
            {
                if(EXTEN->EXTEN_CTR & EXTEN_PLL_HSI_PRE)
     8b4:	40024737          	lui	a4,0x40024
     8b8:	80072703          	lw	a4,-2048(a4) # 40023800 <_eusrstack+0x2001b800>
     8bc:	8b41                	andi	a4,a4,16
     8be:	cb49                	beqz	a4,950 <RCC_GetClocksFreq+0xda>
                {
                    RCC_Clocks->SYSCLK_Frequency = (HSI_VALUE)*pllmull;
     8c0:	007a1737          	lui	a4,0x7a1
     8c4:	20070713          	addi	a4,a4,512 # 7a1200 <_data_lma+0x7a0088>
                }
                else{/* HSE */
                    RCC_Clocks->SYSCLK_Frequency = HSE_VALUE/((RCC->CFGR2 & 0xF) + 1);  /* PREDIV1 */
                }

                RCC_Clocks->SYSCLK_Frequency = RCC_Clocks->SYSCLK_Frequency * pllmull;
     8c8:	02e787b3          	mul	a5,a5,a4

#endif
            }

            if(Pll_6_5 == 1)
     8cc:	c211                	beqz	a2,8d0 <RCC_GetClocksFreq+0x5a>
                RCC_Clocks->SYSCLK_Frequency = (RCC_Clocks->SYSCLK_Frequency / 2);
     8ce:	8385                	srli	a5,a5,0x1
            RCC_Clocks->SYSCLK_Frequency = HSI_VALUE;
     8d0:	c11c                	sw	a5,0(a0)
        default:
            RCC_Clocks->SYSCLK_Frequency = HSI_VALUE;
            break;
    }

    tmp = RCC->CFGR0 & CFGR0_HPRE_Set_Mask;
     8d2:	40021637          	lui	a2,0x40021
     8d6:	4254                	lw	a3,4(a2)
    tmp = tmp >> 4;
    presc = APBAHBPrescTable[tmp];
     8d8:	6705                	lui	a4,0x1
     8da:	15870713          	addi	a4,a4,344 # 1158 <APBAHBPrescTable>
    tmp = tmp >> 4;
     8de:	8291                	srli	a3,a3,0x4
     8e0:	8abd                	andi	a3,a3,15
    presc = APBAHBPrescTable[tmp];
     8e2:	96ba                	add	a3,a3,a4
     8e4:	2294                	.insn	2, 0x2294
    RCC_Clocks->HCLK_Frequency = RCC_Clocks->SYSCLK_Frequency >> presc;
     8e6:	00d7d7b3          	srl	a5,a5,a3
     8ea:	c15c                	sw	a5,4(a0)
    tmp = RCC->CFGR0 & CFGR0_PPRE1_Set_Mask;
     8ec:	4254                	lw	a3,4(a2)
    tmp = tmp >> 8;
     8ee:	82a1                	srli	a3,a3,0x8
     8f0:	8a9d                	andi	a3,a3,7
    presc = APBAHBPrescTable[tmp];
     8f2:	96ba                	add	a3,a3,a4
     8f4:	2294                	.insn	2, 0x2294
    RCC_Clocks->PCLK1_Frequency = RCC_Clocks->HCLK_Frequency >> presc;
     8f6:	00d7d6b3          	srl	a3,a5,a3
     8fa:	c514                	sw	a3,8(a0)
    tmp = RCC->CFGR0 & CFGR0_PPRE2_Set_Mask;
     8fc:	4254                	lw	a3,4(a2)
    tmp = tmp >> 11;
     8fe:	82ad                	srli	a3,a3,0xb
     900:	8a9d                	andi	a3,a3,7
    presc = APBAHBPrescTable[tmp];
     902:	9736                	add	a4,a4,a3
     904:	2318                	.insn	2, 0x2318
    RCC_Clocks->PCLK2_Frequency = RCC_Clocks->HCLK_Frequency >> presc;
    tmp = RCC->CFGR0 & CFGR0_ADCPRE_Set_Mask;
    tmp = tmp >> 14;
    presc = ADCPrescTable[tmp];
     906:	80818693          	addi	a3,gp,-2040 # 20000008 <ADCPrescTable>
    RCC_Clocks->PCLK2_Frequency = RCC_Clocks->HCLK_Frequency >> presc;
     90a:	00e7d7b3          	srl	a5,a5,a4
     90e:	c55c                	sw	a5,12(a0)
    tmp = RCC->CFGR0 & CFGR0_ADCPRE_Set_Mask;
     910:	4258                	lw	a4,4(a2)
    tmp = tmp >> 14;
     912:	8339                	srli	a4,a4,0xe
     914:	8b0d                	andi	a4,a4,3
    presc = ADCPrescTable[tmp];
     916:	9736                	add	a4,a4,a3
     918:	2318                	.insn	2, 0x2318
    RCC_Clocks->ADCCLK_Frequency = RCC_Clocks->PCLK2_Frequency / presc;
     91a:	02e7d7b3          	divu	a5,a5,a4
     91e:	c91c                	sw	a5,16(a0)
}
     920:	8082                	ret
                if(pllmull == 2)
     922:	4689                	li	a3,2
     924:	00d78d63          	beq	a5,a3,93e <RCC_GetClocksFreq+0xc8>
                if(pllmull == 15)
     928:	45bd                	li	a1,15
     92a:	00b78d63          	beq	a5,a1,944 <RCC_GetClocksFreq+0xce>
                if(pllmull == 16)
     92e:	46c1                	li	a3,16
     930:	00d78d63          	beq	a5,a3,94a <RCC_GetClocksFreq+0xd4>
                if(pllmull == 17)
     934:	00f6f363          	bgeu	a3,a5,93a <RCC_GetClocksFreq+0xc4>
     938:	87b6                	mv	a5,a3
     93a:	4601                	li	a2,0
     93c:	bf9d                	j	8b2 <RCC_GetClocksFreq+0x3c>
    uint8_t Pll_6_5 = 0;
     93e:	4601                	li	a2,0
                    pllmull = 18;
     940:	47c9                	li	a5,18
     942:	bf85                	j	8b2 <RCC_GetClocksFreq+0x3c>
                    Pll_6_5 = 1;
     944:	4605                	li	a2,1
                    pllmull = 13; /* *6.5 */
     946:	47b5                	li	a5,13
     948:	b7ad                	j	8b2 <RCC_GetClocksFreq+0x3c>
     94a:	4601                	li	a2,0
                    pllmull = 15;
     94c:	87ae                	mv	a5,a1
     94e:	b795                	j	8b2 <RCC_GetClocksFreq+0x3c>
                    RCC_Clocks->SYSCLK_Frequency = (HSI_VALUE >> 1) * pllmull;
     950:	003d1737          	lui	a4,0x3d1
     954:	90070713          	addi	a4,a4,-1792 # 3d0900 <_data_lma+0x3cf788>
     958:	bf85                	j	8c8 <RCC_GetClocksFreq+0x52>
                if(RCC->CFGR2 & (1<<16)){ /* PLL2 */
     95a:	400215b7          	lui	a1,0x40021
     95e:	55d8                	lw	a4,44(a1)
     960:	00f71693          	slli	a3,a4,0xf
     964:	0406da63          	bgez	a3,9b8 <RCC_GetClocksFreq+0x142>
                    RCC_Clocks->SYSCLK_Frequency = HSE_VALUE/(((RCC->CFGR2 & 0xF0)>>4) + 1);  /* PREDIV2 */
     968:	55d4                	lw	a3,44(a1)
     96a:	007a1737          	lui	a4,0x7a1
     96e:	20070713          	addi	a4,a4,512 # 7a1200 <_data_lma+0x7a0088>
     972:	8291                	srli	a3,a3,0x4
     974:	8abd                	andi	a3,a3,15
     976:	0685                	addi	a3,a3,1
     978:	02d75733          	divu	a4,a4,a3
                    Pll2mull = (uint8_t)((RCC->CFGR2 & 0xF00)>>8);
     97c:	55d4                	lw	a3,44(a1)
     97e:	82a1                	srli	a3,a3,0x8
     980:	8abd                	andi	a3,a3,15
                    if(Pll2mull == 0) RCC_Clocks->SYSCLK_Frequency = (RCC_Clocks->SYSCLK_Frequency * 5)>>1;
     982:	ee89                	bnez	a3,99c <RCC_GetClocksFreq+0x126>
     984:	4695                	li	a3,5
                    else if(Pll2mull == 1) RCC_Clocks->SYSCLK_Frequency = (RCC_Clocks->SYSCLK_Frequency * 25)>>1;
     986:	02d70733          	mul	a4,a4,a3
     98a:	8305                	srli	a4,a4,0x1
                    RCC_Clocks->SYSCLK_Frequency = RCC_Clocks->SYSCLK_Frequency/((RCC->CFGR2 & 0xF) + 1);  /* PREDIV1 */
     98c:	400216b7          	lui	a3,0x40021
     990:	56d4                	lw	a3,44(a3)
     992:	8abd                	andi	a3,a3,15
     994:	0685                	addi	a3,a3,1 # 40021001 <_eusrstack+0x20019001>
                    RCC_Clocks->SYSCLK_Frequency = HSE_VALUE/((RCC->CFGR2 & 0xF) + 1);  /* PREDIV1 */
     996:	02d75733          	divu	a4,a4,a3
     99a:	b73d                	j	8c8 <RCC_GetClocksFreq+0x52>
                    else if(Pll2mull == 1) RCC_Clocks->SYSCLK_Frequency = (RCC_Clocks->SYSCLK_Frequency * 25)>>1;
     99c:	4585                	li	a1,1
     99e:	00b69463          	bne	a3,a1,9a6 <RCC_GetClocksFreq+0x130>
     9a2:	46e5                	li	a3,25
     9a4:	b7cd                	j	986 <RCC_GetClocksFreq+0x110>
                    else if(Pll2mull == 15) RCC_Clocks->SYSCLK_Frequency = RCC_Clocks->SYSCLK_Frequency * 20;
     9a6:	45bd                	li	a1,15
     9a8:	00b69663          	bne	a3,a1,9b4 <RCC_GetClocksFreq+0x13e>
     9ac:	46d1                	li	a3,20
                    else  RCC_Clocks->SYSCLK_Frequency = RCC_Clocks->SYSCLK_Frequency * (Pll2mull + 2);
     9ae:	02e68733          	mul	a4,a3,a4
     9b2:	bfe9                	j	98c <RCC_GetClocksFreq+0x116>
     9b4:	0689                	addi	a3,a3,2
     9b6:	bfe5                	j	9ae <RCC_GetClocksFreq+0x138>
                    RCC_Clocks->SYSCLK_Frequency = HSE_VALUE/((RCC->CFGR2 & 0xF) + 1);  /* PREDIV1 */
     9b8:	55d4                	lw	a3,44(a1)
     9ba:	007a1737          	lui	a4,0x7a1
     9be:	20070713          	addi	a4,a4,512 # 7a1200 <_data_lma+0x7a0088>
     9c2:	8abd                	andi	a3,a3,15
     9c4:	0685                	addi	a3,a3,1
     9c6:	bfc1                	j	996 <RCC_GetClocksFreq+0x120>

000009c8 <RCC_APB2PeriphClockCmd>:
 *
 * @return  none
 */
void RCC_APB2PeriphClockCmd(uint32_t RCC_APB2Periph, FunctionalState NewState)
{
    if(NewState != DISABLE)
     9c8:	400217b7          	lui	a5,0x40021
    {
        RCC->APB2PCENR |= RCC_APB2Periph;
     9cc:	4f98                	lw	a4,24(a5)
    if(NewState != DISABLE)
     9ce:	c581                	beqz	a1,9d6 <RCC_APB2PeriphClockCmd+0xe>
        RCC->APB2PCENR |= RCC_APB2Periph;
     9d0:	8f49                	or	a4,a4,a0
     9d2:	cf98                	sw	a4,24(a5)
     9d4:	8082                	ret
    }
    else
    {
        RCC->APB2PCENR &= ~RCC_APB2Periph;
     9d6:	fff54513          	not	a0,a0
     9da:	8d79                	and	a0,a0,a4
     9dc:	cf88                	sw	a0,24(a5)
    }
}
     9de:	8082                	ret

000009e0 <RCC_APB1PeriphClockCmd>:
 *
 * @return  none
 */
void RCC_APB1PeriphClockCmd(uint32_t RCC_APB1Periph, FunctionalState NewState)
{
    if(NewState != DISABLE)
     9e0:	400217b7          	lui	a5,0x40021
    {
        RCC->APB1PCENR |= RCC_APB1Periph;
     9e4:	4fd8                	lw	a4,28(a5)
    if(NewState != DISABLE)
     9e6:	c581                	beqz	a1,9ee <RCC_APB1PeriphClockCmd+0xe>
        RCC->APB1PCENR |= RCC_APB1Periph;
     9e8:	8f49                	or	a4,a4,a0
     9ea:	cfd8                	sw	a4,28(a5)
     9ec:	8082                	ret
    }
    else
    {
        RCC->APB1PCENR &= ~RCC_APB1Periph;
     9ee:	fff54513          	not	a0,a0
     9f2:	8d79                	and	a0,a0,a4
     9f4:	cfc8                	sw	a0,28(a5)
    }
}
     9f6:	8082                	ret

000009f8 <SystemInit>:
 *
 * @return  none
 */
void SystemInit (void)
{
  RCC->CTLR |= (uint32_t)0x00000001;
     9f8:	400217b7          	lui	a5,0x40021
     9fc:	4398                	lw	a4,0(a5)
{
     9fe:	1141                	addi	sp,sp,-16

#ifdef CH32V30x_D8C
  RCC->CFGR0 &= (uint32_t)0xF8FF0000;
     a00:	f8ff06b7          	lui	a3,0xf8ff0
  RCC->CTLR |= (uint32_t)0x00000001;
     a04:	00176713          	ori	a4,a4,1
     a08:	c398                	sw	a4,0(a5)
  RCC->CFGR0 &= (uint32_t)0xF8FF0000;
     a0a:	43d8                	lw	a4,4(a5)
  RCC->CTLR |= ((uint32_t)RCC_HSEON);

  /* Wait till HSE is ready and if Time out is reached exit */
  do
  {
    HSEStatus = RCC->CTLR & RCC_HSERDY;
     a0c:	00020637          	lui	a2,0x20
  RCC->CFGR0 &= (uint32_t)0xF8FF0000;
     a10:	8f75                	and	a4,a4,a3
     a12:	c3d8                	sw	a4,4(a5)
  RCC->CTLR &= (uint32_t)0xFEF6FFFF;
     a14:	4398                	lw	a4,0(a5)
     a16:	fef706b7          	lui	a3,0xfef70
     a1a:	16fd                	addi	a3,a3,-1 # fef6ffff <_eusrstack+0xdef67fff>
     a1c:	8f75                	and	a4,a4,a3
     a1e:	c398                	sw	a4,0(a5)
  RCC->CTLR &= (uint32_t)0xFFFBFFFF;
     a20:	4398                	lw	a4,0(a5)
     a22:	fffc06b7          	lui	a3,0xfffc0
     a26:	16fd                	addi	a3,a3,-1 # fffbffff <_eusrstack+0xdffb7fff>
     a28:	8f75                	and	a4,a4,a3
     a2a:	c398                	sw	a4,0(a5)
  RCC->CFGR0 &= (uint32_t)0xFF80FFFF;
     a2c:	43d8                	lw	a4,4(a5)
     a2e:	ff8106b7          	lui	a3,0xff810
     a32:	16fd                	addi	a3,a3,-1 # ff80ffff <_eusrstack+0xdf807fff>
     a34:	8f75                	and	a4,a4,a3
     a36:	c3d8                	sw	a4,4(a5)
  RCC->CTLR &= (uint32_t)0xEBFFFFFF;
     a38:	4398                	lw	a4,0(a5)
     a3a:	ec0006b7          	lui	a3,0xec000
     a3e:	16fd                	addi	a3,a3,-1 # ebffffff <_eusrstack+0xcbff7fff>
     a40:	8f75                	and	a4,a4,a3
     a42:	c398                	sw	a4,0(a5)
  RCC->INTR = 0x00FF0000;
     a44:	00ff0737          	lui	a4,0xff0
     a48:	c798                	sw	a4,8(a5)
  RCC->CFGR2 = 0x00000000;
     a4a:	0207a623          	sw	zero,44(a5) # 4002102c <_eusrstack+0x2001902c>
  __IO uint32_t StartUpCounter = 0, HSEStatus = 0;
     a4e:	c402                	sw	zero,8(sp)
     a50:	c602                	sw	zero,12(sp)
  RCC->CTLR |= ((uint32_t)RCC_HSEON);
     a52:	4398                	lw	a4,0(a5)
     a54:	66c1                	lui	a3,0x10
     a56:	8f55                	or	a4,a4,a3
     a58:	c398                	sw	a4,0(a5)
    StartUpCounter++;
  } while((HSEStatus == 0) && (StartUpCounter != HSE_STARTUP_TIMEOUT));
     a5a:	6685                	lui	a3,0x1
    HSEStatus = RCC->CTLR & RCC_HSERDY;
     a5c:	4398                	lw	a4,0(a5)
     a5e:	8f71                	and	a4,a4,a2
     a60:	c63a                	sw	a4,12(sp)
    StartUpCounter++;
     a62:	4722                	lw	a4,8(sp)
     a64:	0705                	addi	a4,a4,1 # ff0001 <_data_lma+0xfeee89>
     a66:	c43a                	sw	a4,8(sp)
  } while((HSEStatus == 0) && (StartUpCounter != HSE_STARTUP_TIMEOUT));
     a68:	4732                	lw	a4,12(sp)
     a6a:	e701                	bnez	a4,a72 <SystemInit+0x7a>
     a6c:	4722                	lw	a4,8(sp)
     a6e:	fed717e3          	bne	a4,a3,a5c <SystemInit+0x64>

  if ((RCC->CTLR & RCC_HSERDY) != RESET)
     a72:	4398                	lw	a4,0(a5)
     a74:	4785                	li	a5,1
     a76:	00e71693          	slli	a3,a4,0xe
     a7a:	0606d563          	bgez	a3,ae4 <SystemInit+0xec>
  {
    HSEStatus = (uint32_t)0x01;
     a7e:	c63e                	sw	a5,12(sp)
  else
  {
    HSEStatus = (uint32_t)0x00;
  }

  if (HSEStatus == (uint32_t)0x01)
     a80:	4732                	lw	a4,12(sp)
     a82:	04f71f63          	bne	a4,a5,ae0 <SystemInit+0xe8>
  {
    /* HCLK = SYSCLK */
    RCC->CFGR0 |= (uint32_t)RCC_HPRE_DIV1;
     a86:	400217b7          	lui	a5,0x40021
     a8a:	43d8                	lw	a4,4(a5)
    RCC->CFGR0 |= (uint32_t)RCC_PPRE2_DIV1;
    /* PCLK1 = HCLK */
    RCC->CFGR0 |= (uint32_t)RCC_PPRE1_DIV2;

    /*  PLL configuration: PLLCLK = HSE * 12 = 96 MHz */
    RCC->CFGR0 &= (uint32_t)((uint32_t)~(RCC_PLLSRC | RCC_PLLXTPRE |
     a8c:	ffc106b7          	lui	a3,0xffc10
     a90:	16fd                	addi	a3,a3,-1 # ffc0ffff <_eusrstack+0xdfc07fff>
    RCC->CFGR0 |= (uint32_t)RCC_HPRE_DIV1;
     a92:	c3d8                	sw	a4,4(a5)
    RCC->CFGR0 |= (uint32_t)RCC_PPRE2_DIV1;
     a94:	43d8                	lw	a4,4(a5)
     a96:	c3d8                	sw	a4,4(a5)
    RCC->CFGR0 |= (uint32_t)RCC_PPRE1_DIV2;
     a98:	43d8                	lw	a4,4(a5)
     a9a:	40076713          	ori	a4,a4,1024
     a9e:	c3d8                	sw	a4,4(a5)
    RCC->CFGR0 &= (uint32_t)((uint32_t)~(RCC_PLLSRC | RCC_PLLXTPRE |
     aa0:	43d8                	lw	a4,4(a5)
     aa2:	8f75                	and	a4,a4,a3
     aa4:	c3d8                	sw	a4,4(a5)
                                        RCC_PLLMULL));

#ifdef CH32V30x_D8
        RCC->CFGR0 |= (uint32_t)(RCC_PLLSRC_HSE | RCC_PLLXTPRE_HSE | RCC_PLLMULL12);
#else
        RCC->CFGR0 |= (uint32_t)(RCC_PLLSRC_HSE | RCC_PLLXTPRE_HSE | RCC_PLLMULL12_EXTEN);
     aa6:	43d8                	lw	a4,4(a5)
     aa8:	002906b7          	lui	a3,0x290
     aac:	8f55                	or	a4,a4,a3
     aae:	c3d8                	sw	a4,4(a5)
#endif

    /* Enable PLL */
    RCC->CTLR |= RCC_PLLON;
     ab0:	4398                	lw	a4,0(a5)
     ab2:	010006b7          	lui	a3,0x1000
     ab6:	8f55                	or	a4,a4,a3
     ab8:	c398                	sw	a4,0(a5)
    /* Wait till PLL is ready */
    while((RCC->CTLR & RCC_PLLRDY) == 0)
     aba:	4398                	lw	a4,0(a5)
     abc:	00671693          	slli	a3,a4,0x6
     ac0:	fe06dde3          	bgez	a3,aba <SystemInit+0xc2>
    {
    }
    /* Select PLL as system clock source */
    RCC->CFGR0 &= (uint32_t)((uint32_t)~(RCC_SW));
     ac4:	43d8                	lw	a4,4(a5)
    RCC->CFGR0 |= (uint32_t)RCC_SW_PLL;
    /* Wait till PLL is used as system clock source */
    while ((RCC->CFGR0 & (uint32_t)RCC_SWS) != (uint32_t)0x08)
     ac6:	400216b7          	lui	a3,0x40021
    RCC->CFGR0 &= (uint32_t)((uint32_t)~(RCC_SW));
     aca:	9b71                	andi	a4,a4,-4
     acc:	c3d8                	sw	a4,4(a5)
    RCC->CFGR0 |= (uint32_t)RCC_SW_PLL;
     ace:	43d8                	lw	a4,4(a5)
     ad0:	00276713          	ori	a4,a4,2
     ad4:	c3d8                	sw	a4,4(a5)
    while ((RCC->CFGR0 & (uint32_t)RCC_SWS) != (uint32_t)0x08)
     ad6:	4721                	li	a4,8
     ad8:	42dc                	lw	a5,4(a3)
     ada:	8bb1                	andi	a5,a5,12
     adc:	fee79ee3          	bne	a5,a4,ad8 <SystemInit+0xe0>
}
     ae0:	0141                	addi	sp,sp,16
     ae2:	8082                	ret
    HSEStatus = (uint32_t)0x00;
     ae4:	c602                	sw	zero,12(sp)
     ae6:	bf69                	j	a80 <SystemInit+0x88>

00000ae8 <SystemCoreClockUpdate>:
  tmp = RCC->CFGR0 & RCC_SWS;
     ae8:	40021737          	lui	a4,0x40021
     aec:	4354                	lw	a3,4(a4)
  switch (tmp)
     aee:	007a17b7          	lui	a5,0x7a1
     af2:	4621                	li	a2,8
  tmp = RCC->CFGR0 & RCC_SWS;
     af4:	8ab1                	andi	a3,a3,12
  switch (tmp)
     af6:	20078793          	addi	a5,a5,512 # 7a1200 <_data_lma+0x7a0088>
     afa:	06c69763          	bne	a3,a2,b68 <SystemCoreClockUpdate+0x80>
      pllmull = RCC->CFGR0 & RCC_PLLMULL;
     afe:	435c                	lw	a5,4(a4)
      pllsource = RCC->CFGR0 & RCC_PLLSRC; 
     b00:	4354                	lw	a3,4(a4)
     b02:	6741                	lui	a4,0x10
      pllmull = ( pllmull >> 18) + 2;
     b04:	83c9                	srli	a5,a5,0x12
     b06:	8bbd                	andi	a5,a5,15
      pllsource = RCC->CFGR0 & RCC_PLLSRC; 
     b08:	8ef9                	and	a3,a3,a4
          if(pllmull == 2) pllmull = 18;
     b0a:	00278613          	addi	a2,a5,2
     b0e:	cf89                	beqz	a5,b28 <SystemCoreClockUpdate+0x40>
          if(pllmull == 15){
     b10:	47bd                	li	a5,15
     b12:	02f60963          	beq	a2,a5,b44 <SystemCoreClockUpdate+0x5c>
          if(pllmull == 16) pllmull = 15;
     b16:	4741                	li	a4,16
     b18:	00e60663          	beq	a2,a4,b24 <SystemCoreClockUpdate+0x3c>
          if(pllmull == 17) pllmull = 16;
     b1c:	87b2                	mv	a5,a2
     b1e:	00c77363          	bgeu	a4,a2,b24 <SystemCoreClockUpdate+0x3c>
     b22:	87ba                	mv	a5,a4
     b24:	4701                	li	a4,0
     b26:	a019                	j	b2c <SystemCoreClockUpdate+0x44>
     b28:	4701                	li	a4,0
          if(pllmull == 2) pllmull = 18;
     b2a:	47c9                	li	a5,18
      if (pllsource == 0x00)
     b2c:	ee99                	bnez	a3,b4a <SystemCoreClockUpdate+0x62>
          if(EXTEN->EXTEN_CTR & EXTEN_PLL_HSI_PRE){
     b2e:	400246b7          	lui	a3,0x40024
     b32:	8006a683          	lw	a3,-2048(a3) # 40023800 <_eusrstack+0x2001b800>
     b36:	8ac1                	andi	a3,a3,16
     b38:	c285                	beqz	a3,b58 <SystemCoreClockUpdate+0x70>
          SystemCoreClock = HSE_VALUE * pllmull;
     b3a:	007a16b7          	lui	a3,0x7a1
     b3e:	20068693          	addi	a3,a3,512 # 7a1200 <_data_lma+0x7a0088>
     b42:	a839                	j	b60 <SystemCoreClockUpdate+0x78>
              Pll_6_5 = 1;
     b44:	4705                	li	a4,1
              pllmull = 13;  /* *6.5 */
     b46:	47b5                	li	a5,13
     b48:	b7d5                	j	b2c <SystemCoreClockUpdate+0x44>
        if ((RCC->CFGR0 & RCC_PLLXTPRE) != (uint32_t)RESET)
     b4a:	400216b7          	lui	a3,0x40021
     b4e:	42d4                	lw	a3,4(a3)
     b50:	00e69613          	slli	a2,a3,0xe
     b54:	fe0653e3          	bgez	a2,b3a <SystemCoreClockUpdate+0x52>
          SystemCoreClock = (HSE_VALUE >> 1) * pllmull;
     b58:	003d16b7          	lui	a3,0x3d1
     b5c:	90068693          	addi	a3,a3,-1792 # 3d0900 <_data_lma+0x3cf788>
          SystemCoreClock = HSE_VALUE * pllmull;
     b60:	02d787b3          	mul	a5,a5,a3
      if(Pll_6_5 == 1) SystemCoreClock = (SystemCoreClock / 2);
     b64:	c311                	beqz	a4,b68 <SystemCoreClockUpdate+0x80>
     b66:	8385                	srli	a5,a5,0x1
      SystemCoreClock = HSI_VALUE;
     b68:	20000637          	lui	a2,0x20000
     b6c:	00f62023          	sw	a5,0(a2) # 20000000 <SystemCoreClock>
  tmp = AHBPrescTable[((RCC->CFGR0 & RCC_HPRE) >> 4)];
     b70:	40021737          	lui	a4,0x40021
     b74:	4354                	lw	a3,4(a4)
     b76:	6705                	lui	a4,0x1
     b78:	16870713          	addi	a4,a4,360 # 1168 <AHBPrescTable>
     b7c:	8291                	srli	a3,a3,0x4
     b7e:	8abd                	andi	a3,a3,15
     b80:	9736                	add	a4,a4,a3
     b82:	2318                	.insn	2, 0x2318
  SystemCoreClock >>= tmp;  
     b84:	00e7d7b3          	srl	a5,a5,a4
     b88:	00f62023          	sw	a5,0(a2)
}
     b8c:	8082                	ret

00000b8e <Delay_Init>:
 *
 * @return  none
 */
void Delay_Init(void)
{
    p_us = SystemCoreClock / 8000000;
     b8e:	200007b7          	lui	a5,0x20000
     b92:	0007a783          	lw	a5,0(a5) # 20000000 <SystemCoreClock>
     b96:	007a1737          	lui	a4,0x7a1
     b9a:	20070713          	addi	a4,a4,512 # 7a1200 <_data_lma+0x7a0088>
     b9e:	02e7d7b3          	divu	a5,a5,a4
     ba2:	0ff7f793          	zext.b	a5,a5
     ba6:	80f18a23          	sb	a5,-2028(gp) # 20000014 <p_us>
    p_ms = (uint16_t)p_us * 1000;
     baa:	3e800713          	li	a4,1000
     bae:	02e787b3          	mul	a5,a5,a4
     bb2:	80f19923          	sh	a5,-2030(gp) # 20000012 <p_ms>
}
     bb6:	8082                	ret

00000bb8 <USART_Printf_Init>:
 * @param   baudrate - USART communication baud rate.
 *
 * @return  None
 */
void USART_Printf_Init(uint32_t baudrate)
{
     bb8:	e7cff2ef          	jal	t0,234 <__riscv_save_0>
     bbc:	842a                	mv	s0,a0
    GPIO_InitTypeDef  GPIO_InitStructure;
    USART_InitTypeDef USART_InitStructure;

#if(DEBUG == DEBUG_UART1)
    RCC_APB2PeriphClockCmd(RCC_APB2Periph_USART1 | RCC_APB2Periph_GPIOA, ENABLE);
     bbe:	6511                	lui	a0,0x4
{
     bc0:	1101                	addi	sp,sp,-32
    RCC_APB2PeriphClockCmd(RCC_APB2Periph_USART1 | RCC_APB2Periph_GPIOA, ENABLE);
     bc2:	4585                	li	a1,1
     bc4:	0511                	addi	a0,a0,4 # 4004 <_data_lma+0x2e8c>
     bc6:	3509                	jal	9c8 <RCC_APB2PeriphClockCmd>

    GPIO_InitStructure.GPIO_Pin = GPIO_Pin_9;
     bc8:	20000793          	li	a5,512
     bcc:	827c                	.insn	2, 0x827c
    GPIO_InitStructure.GPIO_Speed = GPIO_Speed_50MHz;
    GPIO_InitStructure.GPIO_Mode = GPIO_Mode_AF_PP;
    GPIO_Init(GPIOA, &GPIO_InitStructure);
     bce:	40011537          	lui	a0,0x40011
    GPIO_InitStructure.GPIO_Speed = GPIO_Speed_50MHz;
     bd2:	478d                	li	a5,3
     bd4:	c43e                	sw	a5,8(sp)
    GPIO_Init(GPIOA, &GPIO_InitStructure);
     bd6:	004c                	addi	a1,sp,4
    GPIO_InitStructure.GPIO_Mode = GPIO_Mode_AF_PP;
     bd8:	47e1                	li	a5,24
    GPIO_Init(GPIOA, &GPIO_InitStructure);
     bda:	80050513          	addi	a0,a0,-2048 # 40010800 <_eusrstack+0x20008800>
    GPIO_InitStructure.GPIO_Mode = GPIO_Mode_AF_PP;
     bde:	c63e                	sw	a5,12(sp)
    GPIO_Init(GPIOA, &GPIO_InitStructure);
     be0:	a4dff0ef          	jal	62c <GPIO_Init>
    USART_InitStructure.USART_Parity = USART_Parity_No;
    USART_InitStructure.USART_HardwareFlowControl = USART_HardwareFlowControl_None;
    USART_InitStructure.USART_Mode = USART_Mode_Tx;

#if(DEBUG == DEBUG_UART1)
    USART_Init(USART1, &USART_InitStructure);
     be4:	40014537          	lui	a0,0x40014
    USART_InitStructure.USART_Parity = USART_Parity_No;
     be8:	000807b7          	lui	a5,0x80
    USART_Init(USART1, &USART_InitStructure);
     bec:	080c                	addi	a1,sp,16
     bee:	80050513          	addi	a0,a0,-2048 # 40013800 <_eusrstack+0x2000b800>
    USART_InitStructure.USART_Parity = USART_Parity_No;
     bf2:	cc3e                	sw	a5,24(sp)
    USART_InitStructure.USART_BaudRate = baudrate;
     bf4:	c822                	sw	s0,16(sp)
    USART_InitStructure.USART_WordLength = USART_WordLength_8b;
     bf6:	ca02                	sw	zero,20(sp)
    USART_InitStructure.USART_HardwareFlowControl = USART_HardwareFlowControl_None;
     bf8:	00011e23          	sh	zero,28(sp)
    USART_Init(USART1, &USART_InitStructure);
     bfc:	2a8d                	jal	d6e <USART_Init>
    USART_Cmd(USART1, ENABLE);
     bfe:	40014537          	lui	a0,0x40014
     c02:	4585                	li	a1,1
     c04:	80050513          	addi	a0,a0,-2048 # 40013800 <_eusrstack+0x2000b800>
     c08:	2c09                	jal	e1a <USART_Cmd>
#elif(DEBUG == DEBUG_UART3)
    USART_Init(USART3, &USART_InitStructure);
    USART_Cmd(USART3, ENABLE);

#endif
}
     c0a:	6105                	addi	sp,sp,32
     c0c:	e50ff06f          	j	25c <__riscv_restore_0>

00000c10 <_fini>:

    curbrk += incr;
    return curbrk - incr;
}

void _fini(){}
     c10:	8082                	ret

00000c12 <_init>:
void _init(){}
     c12:	8082                	ret

00000c14 <NMI_Handler>:
    .weak   DMA2_Channel8_IRQHandler   /* DMA2 Channel 8 */
    .weak   DMA2_Channel9_IRQHandler   /* DMA2 Channel 9 */
    .weak   DMA2_Channel10_IRQHandler  /* DMA2 Channel 10 */
    .weak   DMA2_Channel11_IRQHandler  /* DMA2 Channel 11 */

NMI_Handler:  1:  j 1b
     c14:	a001                	j	c14 <NMI_Handler>

00000c16 <HardFault_Handler>:
HardFault_Handler:  1:  j 1b
     c16:	a001                	j	c16 <HardFault_Handler>

00000c18 <Ecall_M_Mode_Handler>:
Ecall_M_Mode_Handler:  1:  j 1b
     c18:	a001                	j	c18 <Ecall_M_Mode_Handler>

00000c1a <Ecall_U_Mode_Handler>:
Ecall_U_Mode_Handler:  1:  j 1b
     c1a:	a001                	j	c1a <Ecall_U_Mode_Handler>

00000c1c <Break_Point_Handler>:
Break_Point_Handler:  1:  j 1b
     c1c:	a001                	j	c1c <Break_Point_Handler>

00000c1e <SysTick_Handler>:
SysTick_Handler:  1:  j 1b
     c1e:	a001                	j	c1e <SysTick_Handler>

00000c20 <SW_Handler>:
SW_Handler:  1:  j 1b
     c20:	a001                	j	c20 <SW_Handler>

00000c22 <WWDG_IRQHandler>:
WWDG_IRQHandler:  1:  j 1b
     c22:	a001                	j	c22 <WWDG_IRQHandler>

00000c24 <PVD_IRQHandler>:
PVD_IRQHandler:  1:  j 1b
     c24:	a001                	j	c24 <PVD_IRQHandler>

00000c26 <TAMPER_IRQHandler>:
TAMPER_IRQHandler:  1:  j 1b
     c26:	a001                	j	c26 <TAMPER_IRQHandler>

00000c28 <RTC_IRQHandler>:
RTC_IRQHandler:  1:  j 1b
     c28:	a001                	j	c28 <RTC_IRQHandler>

00000c2a <FLASH_IRQHandler>:
FLASH_IRQHandler:  1:  j 1b
     c2a:	a001                	j	c2a <FLASH_IRQHandler>

00000c2c <RCC_IRQHandler>:
RCC_IRQHandler:  1:  j 1b
     c2c:	a001                	j	c2c <RCC_IRQHandler>

00000c2e <EXTI0_IRQHandler>:
EXTI0_IRQHandler:  1:  j 1b
     c2e:	a001                	j	c2e <EXTI0_IRQHandler>

00000c30 <EXTI1_IRQHandler>:
EXTI1_IRQHandler:  1:  j 1b
     c30:	a001                	j	c30 <EXTI1_IRQHandler>

00000c32 <EXTI2_IRQHandler>:
EXTI2_IRQHandler:  1:  j 1b
     c32:	a001                	j	c32 <EXTI2_IRQHandler>

00000c34 <EXTI3_IRQHandler>:
EXTI3_IRQHandler:  1:  j 1b
     c34:	a001                	j	c34 <EXTI3_IRQHandler>

00000c36 <EXTI4_IRQHandler>:
EXTI4_IRQHandler:  1:  j 1b
     c36:	a001                	j	c36 <EXTI4_IRQHandler>

00000c38 <DMA1_Channel1_IRQHandler>:
DMA1_Channel1_IRQHandler:  1:  j 1b
     c38:	a001                	j	c38 <DMA1_Channel1_IRQHandler>

00000c3a <DMA1_Channel2_IRQHandler>:
DMA1_Channel2_IRQHandler:  1:  j 1b
     c3a:	a001                	j	c3a <DMA1_Channel2_IRQHandler>

00000c3c <DMA1_Channel3_IRQHandler>:
DMA1_Channel3_IRQHandler:  1:  j 1b
     c3c:	a001                	j	c3c <DMA1_Channel3_IRQHandler>

00000c3e <DMA1_Channel4_IRQHandler>:
DMA1_Channel4_IRQHandler:  1:  j 1b
     c3e:	a001                	j	c3e <DMA1_Channel4_IRQHandler>

00000c40 <DMA1_Channel5_IRQHandler>:
DMA1_Channel5_IRQHandler:  1:  j 1b
     c40:	a001                	j	c40 <DMA1_Channel5_IRQHandler>

00000c42 <DMA1_Channel6_IRQHandler>:
DMA1_Channel6_IRQHandler:  1:  j 1b
     c42:	a001                	j	c42 <DMA1_Channel6_IRQHandler>

00000c44 <DMA1_Channel7_IRQHandler>:
DMA1_Channel7_IRQHandler:  1:  j 1b
     c44:	a001                	j	c44 <DMA1_Channel7_IRQHandler>

00000c46 <ADC1_2_IRQHandler>:
ADC1_2_IRQHandler:  1:  j 1b
     c46:	a001                	j	c46 <ADC1_2_IRQHandler>

00000c48 <USB_HP_CAN1_TX_IRQHandler>:
USB_HP_CAN1_TX_IRQHandler:  1:  j 1b
     c48:	a001                	j	c48 <USB_HP_CAN1_TX_IRQHandler>

00000c4a <USB_LP_CAN1_RX0_IRQHandler>:
USB_LP_CAN1_RX0_IRQHandler:  1:  j 1b
     c4a:	a001                	j	c4a <USB_LP_CAN1_RX0_IRQHandler>

00000c4c <CAN1_RX1_IRQHandler>:
CAN1_RX1_IRQHandler:  1:  j 1b
     c4c:	a001                	j	c4c <CAN1_RX1_IRQHandler>

00000c4e <CAN1_SCE_IRQHandler>:
CAN1_SCE_IRQHandler:  1:  j 1b
     c4e:	a001                	j	c4e <CAN1_SCE_IRQHandler>

00000c50 <EXTI9_5_IRQHandler>:
EXTI9_5_IRQHandler:  1:  j 1b
     c50:	a001                	j	c50 <EXTI9_5_IRQHandler>

00000c52 <TIM1_BRK_IRQHandler>:
TIM1_BRK_IRQHandler:  1:  j 1b
     c52:	a001                	j	c52 <TIM1_BRK_IRQHandler>

00000c54 <TIM1_UP_IRQHandler>:
TIM1_UP_IRQHandler:  1:  j 1b
     c54:	a001                	j	c54 <TIM1_UP_IRQHandler>

00000c56 <TIM1_TRG_COM_IRQHandler>:
TIM1_TRG_COM_IRQHandler:  1:  j 1b
     c56:	a001                	j	c56 <TIM1_TRG_COM_IRQHandler>

00000c58 <TIM1_CC_IRQHandler>:
TIM1_CC_IRQHandler:  1:  j 1b
     c58:	a001                	j	c58 <TIM1_CC_IRQHandler>

00000c5a <TIM2_IRQHandler>:
TIM2_IRQHandler:  1:  j 1b
     c5a:	a001                	j	c5a <TIM2_IRQHandler>

00000c5c <TIM3_IRQHandler>:
TIM3_IRQHandler:  1:  j 1b
     c5c:	a001                	j	c5c <TIM3_IRQHandler>

00000c5e <TIM4_IRQHandler>:
TIM4_IRQHandler:  1:  j 1b
     c5e:	a001                	j	c5e <TIM4_IRQHandler>

00000c60 <I2C1_EV_IRQHandler>:
I2C1_EV_IRQHandler:  1:  j 1b
     c60:	a001                	j	c60 <I2C1_EV_IRQHandler>

00000c62 <I2C1_ER_IRQHandler>:
I2C1_ER_IRQHandler:  1:  j 1b
     c62:	a001                	j	c62 <I2C1_ER_IRQHandler>

00000c64 <I2C2_EV_IRQHandler>:
I2C2_EV_IRQHandler:  1:  j 1b
     c64:	a001                	j	c64 <I2C2_EV_IRQHandler>

00000c66 <I2C2_ER_IRQHandler>:
I2C2_ER_IRQHandler:  1:  j 1b
     c66:	a001                	j	c66 <I2C2_ER_IRQHandler>

00000c68 <SPI1_IRQHandler>:
SPI1_IRQHandler:  1:  j 1b
     c68:	a001                	j	c68 <SPI1_IRQHandler>

00000c6a <SPI2_IRQHandler>:
SPI2_IRQHandler:  1:  j 1b
     c6a:	a001                	j	c6a <SPI2_IRQHandler>

00000c6c <USART1_IRQHandler>:
USART1_IRQHandler:  1:  j 1b
     c6c:	a001                	j	c6c <USART1_IRQHandler>

00000c6e <USART2_IRQHandler>:
USART2_IRQHandler:  1:  j 1b
     c6e:	a001                	j	c6e <USART2_IRQHandler>

00000c70 <USART3_IRQHandler>:
USART3_IRQHandler:  1:  j 1b
     c70:	a001                	j	c70 <USART3_IRQHandler>

00000c72 <EXTI15_10_IRQHandler>:
EXTI15_10_IRQHandler:  1:  j 1b
     c72:	a001                	j	c72 <EXTI15_10_IRQHandler>

00000c74 <RTCAlarm_IRQHandler>:
RTCAlarm_IRQHandler:  1:  j 1b
     c74:	a001                	j	c74 <RTCAlarm_IRQHandler>

00000c76 <USBWakeUp_IRQHandler>:
USBWakeUp_IRQHandler:  1:  j 1b
     c76:	a001                	j	c76 <USBWakeUp_IRQHandler>

00000c78 <TIM8_BRK_IRQHandler>:
TIM8_BRK_IRQHandler:  1:  j 1b
     c78:	a001                	j	c78 <TIM8_BRK_IRQHandler>

00000c7a <TIM8_UP_IRQHandler>:
TIM8_UP_IRQHandler:  1:  j 1b
     c7a:	a001                	j	c7a <TIM8_UP_IRQHandler>

00000c7c <TIM8_TRG_COM_IRQHandler>:
TIM8_TRG_COM_IRQHandler:  1:  j 1b
     c7c:	a001                	j	c7c <TIM8_TRG_COM_IRQHandler>

00000c7e <TIM8_CC_IRQHandler>:
TIM8_CC_IRQHandler:  1:  j 1b
     c7e:	a001                	j	c7e <TIM8_CC_IRQHandler>

00000c80 <RNG_IRQHandler>:
RNG_IRQHandler:  1:  j 1b
     c80:	a001                	j	c80 <RNG_IRQHandler>

00000c82 <FSMC_IRQHandler>:
FSMC_IRQHandler:  1:  j 1b
     c82:	a001                	j	c82 <FSMC_IRQHandler>

00000c84 <SDIO_IRQHandler>:
SDIO_IRQHandler:  1:  j 1b
     c84:	a001                	j	c84 <SDIO_IRQHandler>

00000c86 <TIM5_IRQHandler>:
TIM5_IRQHandler:  1:  j 1b
     c86:	a001                	j	c86 <TIM5_IRQHandler>

00000c88 <SPI3_IRQHandler>:
SPI3_IRQHandler:  1:  j 1b
     c88:	a001                	j	c88 <SPI3_IRQHandler>

00000c8a <UART4_IRQHandler>:
UART4_IRQHandler:  1:  j 1b
     c8a:	a001                	j	c8a <UART4_IRQHandler>

00000c8c <UART5_IRQHandler>:
UART5_IRQHandler:  1:  j 1b
     c8c:	a001                	j	c8c <UART5_IRQHandler>

00000c8e <TIM6_IRQHandler>:
TIM6_IRQHandler:  1:  j 1b
     c8e:	a001                	j	c8e <TIM6_IRQHandler>

00000c90 <TIM7_IRQHandler>:
TIM7_IRQHandler:  1:  j 1b
     c90:	a001                	j	c90 <TIM7_IRQHandler>

00000c92 <DMA2_Channel1_IRQHandler>:
DMA2_Channel1_IRQHandler:  1:  j 1b
     c92:	a001                	j	c92 <DMA2_Channel1_IRQHandler>

00000c94 <DMA2_Channel2_IRQHandler>:
DMA2_Channel2_IRQHandler:  1:  j 1b
     c94:	a001                	j	c94 <DMA2_Channel2_IRQHandler>

00000c96 <DMA2_Channel3_IRQHandler>:
DMA2_Channel3_IRQHandler:  1:  j 1b
     c96:	a001                	j	c96 <DMA2_Channel3_IRQHandler>

00000c98 <DMA2_Channel4_IRQHandler>:
DMA2_Channel4_IRQHandler:  1:  j 1b
     c98:	a001                	j	c98 <DMA2_Channel4_IRQHandler>

00000c9a <DMA2_Channel5_IRQHandler>:
DMA2_Channel5_IRQHandler:  1:  j 1b
     c9a:	a001                	j	c9a <DMA2_Channel5_IRQHandler>

00000c9c <ETH_IRQHandler>:
ETH_IRQHandler:  1:  j 1b
     c9c:	a001                	j	c9c <ETH_IRQHandler>

00000c9e <ETH_WKUP_IRQHandler>:
ETH_WKUP_IRQHandler:  1:  j 1b
     c9e:	a001                	j	c9e <ETH_WKUP_IRQHandler>

00000ca0 <CAN2_TX_IRQHandler>:
CAN2_TX_IRQHandler:  1:  j 1b
     ca0:	a001                	j	ca0 <CAN2_TX_IRQHandler>

00000ca2 <CAN2_RX0_IRQHandler>:
CAN2_RX0_IRQHandler:  1:  j 1b
     ca2:	a001                	j	ca2 <CAN2_RX0_IRQHandler>

00000ca4 <CAN2_RX1_IRQHandler>:
CAN2_RX1_IRQHandler:  1:  j 1b
     ca4:	a001                	j	ca4 <CAN2_RX1_IRQHandler>

00000ca6 <CAN2_SCE_IRQHandler>:
CAN2_SCE_IRQHandler:  1:  j 1b
     ca6:	a001                	j	ca6 <CAN2_SCE_IRQHandler>

00000ca8 <OTG_FS_IRQHandler>:
OTG_FS_IRQHandler:  1:  j 1b
     ca8:	a001                	j	ca8 <OTG_FS_IRQHandler>

00000caa <USBHSWakeup_IRQHandler>:
USBHSWakeup_IRQHandler:  1:  j 1b
     caa:	a001                	j	caa <USBHSWakeup_IRQHandler>

00000cac <USBHS_IRQHandler>:
USBHS_IRQHandler:  1:  j 1b
     cac:	a001                	j	cac <USBHS_IRQHandler>

00000cae <DVP_IRQHandler>:
DVP_IRQHandler:  1:  j 1b
     cae:	a001                	j	cae <DVP_IRQHandler>

00000cb0 <UART6_IRQHandler>:
UART6_IRQHandler:  1:  j 1b
     cb0:	a001                	j	cb0 <UART6_IRQHandler>

00000cb2 <UART7_IRQHandler>:
UART7_IRQHandler:  1:  j 1b
     cb2:	a001                	j	cb2 <UART7_IRQHandler>

00000cb4 <UART8_IRQHandler>:
UART8_IRQHandler:  1:  j 1b
     cb4:	a001                	j	cb4 <UART8_IRQHandler>

00000cb6 <TIM9_BRK_IRQHandler>:
TIM9_BRK_IRQHandler:  1:  j 1b
     cb6:	a001                	j	cb6 <TIM9_BRK_IRQHandler>

00000cb8 <TIM9_UP_IRQHandler>:
TIM9_UP_IRQHandler:  1:  j 1b
     cb8:	a001                	j	cb8 <TIM9_UP_IRQHandler>

00000cba <TIM9_TRG_COM_IRQHandler>:
TIM9_TRG_COM_IRQHandler:  1:  j 1b
     cba:	a001                	j	cba <TIM9_TRG_COM_IRQHandler>

00000cbc <TIM9_CC_IRQHandler>:
TIM9_CC_IRQHandler:  1:  j 1b
     cbc:	a001                	j	cbc <TIM9_CC_IRQHandler>

00000cbe <TIM10_BRK_IRQHandler>:
TIM10_BRK_IRQHandler:  1:  j 1b
     cbe:	a001                	j	cbe <TIM10_BRK_IRQHandler>

00000cc0 <TIM10_UP_IRQHandler>:
TIM10_UP_IRQHandler:  1:  j 1b
     cc0:	a001                	j	cc0 <TIM10_UP_IRQHandler>

00000cc2 <TIM10_TRG_COM_IRQHandler>:
TIM10_TRG_COM_IRQHandler:  1:  j 1b
     cc2:	a001                	j	cc2 <TIM10_TRG_COM_IRQHandler>

00000cc4 <TIM10_CC_IRQHandler>:
TIM10_CC_IRQHandler:  1:  j 1b
     cc4:	a001                	j	cc4 <TIM10_CC_IRQHandler>

00000cc6 <DMA2_Channel6_IRQHandler>:
DMA2_Channel6_IRQHandler:  1:  j 1b
     cc6:	a001                	j	cc6 <DMA2_Channel6_IRQHandler>

00000cc8 <DMA2_Channel7_IRQHandler>:
DMA2_Channel7_IRQHandler:  1:  j 1b
     cc8:	a001                	j	cc8 <DMA2_Channel7_IRQHandler>

00000cca <DMA2_Channel8_IRQHandler>:
DMA2_Channel8_IRQHandler:  1:  j 1b
     cca:	a001                	j	cca <DMA2_Channel8_IRQHandler>

00000ccc <DMA2_Channel9_IRQHandler>:
DMA2_Channel9_IRQHandler:  1:  j 1b
     ccc:	a001                	j	ccc <DMA2_Channel9_IRQHandler>

00000cce <DMA2_Channel10_IRQHandler>:
DMA2_Channel10_IRQHandler:  1:  j 1b
     cce:	a001                	j	cce <DMA2_Channel10_IRQHandler>

00000cd0 <DMA2_Channel11_IRQHandler>:
DMA2_Channel11_IRQHandler:  1:  j 1b
     cd0:	a001                	j	cd0 <DMA2_Channel11_IRQHandler>

00000cd2 <handle_reset>:
	.weak	handle_reset
	.align	1
handle_reset:
.option push 
.option	norelax 
	la gp, __global_pointer$
     cd2:	20000197          	auipc	gp,0x20000
     cd6:	b2e18193          	addi	gp,gp,-1234 # 20000800 <__global_pointer$>
.option	pop 
1:
	la sp, _eusrstack 
     cda:	20007117          	auipc	sp,0x20007
     cde:	32610113          	addi	sp,sp,806 # 20008000 <_eusrstack>
2:
	/* Load data section from flash to RAM */
	la a0, _data_lma
     ce2:	00000517          	auipc	a0,0x0
     ce6:	49650513          	addi	a0,a0,1174 # 1178 <_data_lma>
	la a1, _data_vma
     cea:	1ffff597          	auipc	a1,0x1ffff
     cee:	31658593          	addi	a1,a1,790 # 20000000 <SystemCoreClock>
	la a2, _edata
     cf2:	1ffff617          	auipc	a2,0x1ffff
     cf6:	31a60613          	addi	a2,a2,794 # 2000000c <cursorY>
	bgeu a1, a2, 2f
     cfa:	00c5fa63          	bgeu	a1,a2,d0e <handle_reset+0x3c>
1:
	lw t0, (a0)
     cfe:	00052283          	lw	t0,0(a0)
	sw t0, (a1)
     d02:	0055a023          	sw	t0,0(a1)
	addi a0, a0, 4
     d06:	0511                	addi	a0,a0,4
	addi a1, a1, 4
     d08:	0591                	addi	a1,a1,4
	bltu a1, a2, 1b
     d0a:	fec5eae3          	bltu	a1,a2,cfe <handle_reset+0x2c>
2:
	/* Clear bss section */
	la a0, _sbss
     d0e:	80c18513          	addi	a0,gp,-2036 # 2000000c <cursorY>
	la a1, _ebss
     d12:	1ffff597          	auipc	a1,0x1ffff
     d16:	79658593          	addi	a1,a1,1942 # 200004a8 <_ebss>
	bgeu a0, a1, 2f
     d1a:	00b57763          	bgeu	a0,a1,d28 <handle_reset+0x56>
1:
	sw zero, (a0)
     d1e:	00052023          	sw	zero,0(a0)
	addi a0, a0, 4
     d22:	0511                	addi	a0,a0,4
	bltu a0, a1, 1b
     d24:	feb56de3          	bltu	a0,a1,d1e <handle_reset+0x4c>
2:
    li t0, 0x1f
     d28:	42fd                	li	t0,31
    csrw 0xbc0, t0
     d2a:	bc029073          	csrw	0xbc0,t0

    /* Enable nested and hardware stack */
	li t0, 0x0b
     d2e:	42ad                	li	t0,11
	csrw 0x804, t0
     d30:	80429073          	csrw	0x804,t0

    /* Enable floating point and interrupt */
   	li t0, 0x6088           
     d34:	6299                	lui	t0,0x6
     d36:	08828293          	addi	t0,t0,136 # 6088 <_data_lma+0x4f10>
   	csrs mstatus, t0
     d3a:	3002a073          	csrs	mstatus,t0

 	la t0, _vector_base
     d3e:	fffff297          	auipc	t0,0xfffff
     d42:	2fa28293          	addi	t0,t0,762 # 38 <_einit>
    ori t0, t0, 3           
     d46:	0032e293          	ori	t0,t0,3
	csrw mtvec, t0
     d4a:	30529073          	csrw	mtvec,t0

    la a0,__libc_fini_array
     d4e:	00000517          	auipc	a0,0x0
     d52:	14050513          	addi	a0,a0,320 # e8e <__libc_fini_array>
    call atexit
     d56:	28e1                	jal	e2e <atexit>
    call __libc_init_array
     d58:	20c5                	jal	e38 <__libc_init_array>

    jal  SystemInit
     d5a:	c9fff0ef          	jal	9f8 <SystemInit>
	la t0, main
     d5e:	fffff297          	auipc	t0,0xfffff
     d62:	52028293          	addi	t0,t0,1312 # 27e <main>
	csrw mepc, t0
     d66:	34129073          	csrw	mepc,t0
	mret
     d6a:	30200073          	mret

00000d6e <USART_Init>:
 *        USART peripheral.
 *
 * @return  none
 */
void USART_Init(USART_TypeDef *USARTx, USART_InitTypeDef *USART_InitStruct)
{
     d6e:	cc6ff2ef          	jal	t0,234 <__riscv_save_0>
    if(USART_InitStruct->USART_HardwareFlowControl != USART_HardwareFlowControl_None)
    {
    }

    usartxbase = (uint32_t)USARTx;
    tmpreg = USARTx->CTLR2;
     d72:	291a                	.insn	2, 0x291a
    tmpreg &= CTLR2_STOP_CLEAR_Mask;
    tmpreg |= (uint32_t)USART_InitStruct->USART_StopBits;
     d74:	77f5                	lui	a5,0xffffd
     d76:	17fd                	addi	a5,a5,-1 # ffffcfff <_eusrstack+0xdfff4fff>
     d78:	8f7d                	and	a4,a4,a5
     d7a:	21fe                	.insn	2, 0x21fe
{
     d7c:	7179                	addi	sp,sp,-48
     d7e:	842a                	mv	s0,a0
     d80:	8fd9                	or	a5,a5,a4

    USARTx->CTLR2 = (uint16_t)tmpreg;
     d82:	a91e                	.insn	2, 0xa91e
    tmpreg = USARTx->CTLR1;
     d84:	255a                	.insn	2, 0x255a
    tmpreg &= CTLR1_CLEAR_Mask;
    tmpreg |= (uint32_t)USART_InitStruct->USART_WordLength | USART_InitStruct->USART_Parity |
     d86:	77fd                	lui	a5,0xfffff
     d88:	9f378793          	addi	a5,a5,-1549 # ffffe9f3 <_eusrstack+0xdfff69f3>
     d8c:	8f7d                	and	a4,a4,a5
     d8e:	21de                	.insn	2, 0x21de
     d90:	c62e                	sw	a1,12(sp)
     d92:	8fd9                	or	a5,a5,a4
     d94:	259a                	.insn	2, 0x259a
     d96:	8fd9                	or	a5,a5,a4
     d98:	25ba                	.insn	2, 0x25ba
     d9a:	8fd9                	or	a5,a5,a4
              USART_InitStruct->USART_Mode;
    USARTx->CTLR1 = (uint16_t)tmpreg;
     d9c:	a55e                	.insn	2, 0xa55e

    tmpreg = USARTx->CTLR3;
     d9e:	295a                	.insn	2, 0x295a
    tmpreg &= CTLR3_CLEAR_Mask;
    tmpreg |= USART_InitStruct->USART_HardwareFlowControl;
     da0:	25de                	.insn	2, 0x25de
     da2:	cff77713          	andi	a4,a4,-769
     da6:	8fd9                	or	a5,a5,a4
    USARTx->CTLR3 = (uint16_t)tmpreg;
     da8:	a95e                	.insn	2, 0xa95e

    RCC_GetClocksFreq(&RCC_ClocksStatus);
     daa:	0868                	addi	a0,sp,28
     dac:	34e9                	jal	876 <RCC_GetClocksFreq>

    if(usartxbase == USART1_BASE)
     dae:	400147b7          	lui	a5,0x40014
     db2:	80078793          	addi	a5,a5,-2048 # 40013800 <_eusrstack+0x2000b800>
     db6:	45b2                	lw	a1,12(sp)
     db8:	04f41663          	bne	s0,a5,e04 <USART_Init+0x96>
    {
        apbclock = RCC_ClocksStatus.PCLK2_Frequency;
     dbc:	57a2                	lw	a5,40(sp)
    else
    {
        apbclock = RCC_ClocksStatus.PCLK1_Frequency;
    }

    if((USARTx->CTLR1 & CTLR1_OVER8_Set) != 0)
     dbe:	2456                	.insn	2, 0x2456
    {
        integerdivider = ((25 * apbclock) / (2 * (USART_InitStruct->USART_BaudRate)));
     dc0:	4765                	li	a4,25
     dc2:	02e787b3          	mul	a5,a5,a4
    if((USARTx->CTLR1 & CTLR1_OVER8_Set) != 0)
     dc6:	06c2                	slli	a3,a3,0x10
     dc8:	86c1                	srai	a3,a3,0x10
        integerdivider = ((25 * apbclock) / (2 * (USART_InitStruct->USART_BaudRate)));
     dca:	4198                	lw	a4,0(a1)
    if((USARTx->CTLR1 & CTLR1_OVER8_Set) != 0)
     dcc:	0206de63          	bgez	a3,e08 <USART_Init+0x9a>
        integerdivider = ((25 * apbclock) / (2 * (USART_InitStruct->USART_BaudRate)));
     dd0:	0706                	slli	a4,a4,0x1
    }
    else
    {
        integerdivider = ((25 * apbclock) / (4 * (USART_InitStruct->USART_BaudRate)));
    }
    tmpreg = (integerdivider / 100) << 4;
     dd2:	06400693          	li	a3,100

    fractionaldivider = integerdivider - (100 * (tmpreg >> 4));

    if((USARTx->CTLR1 & CTLR1_OVER8_Set) != 0)
     dd6:	2452                	.insn	2, 0x2452
        integerdivider = ((25 * apbclock) / (4 * (USART_InitStruct->USART_BaudRate)));
     dd8:	02e7d7b3          	divu	a5,a5,a4
    if((USARTx->CTLR1 & CTLR1_OVER8_Set) != 0)
     ddc:	0642                	slli	a2,a2,0x10
     dde:	8641                	srai	a2,a2,0x10
    tmpreg = (integerdivider / 100) << 4;
     de0:	02d7d733          	divu	a4,a5,a3
     de4:	02d7f7b3          	remu	a5,a5,a3
     de8:	0712                	slli	a4,a4,0x4
    if((USARTx->CTLR1 & CTLR1_OVER8_Set) != 0)
     dea:	02065163          	bgez	a2,e0c <USART_Init+0x9e>
    {
        tmpreg |= ((((fractionaldivider * 8) + 50) / 100)) & ((uint8_t)0x07);
     dee:	078e                	slli	a5,a5,0x3
     df0:	03278793          	addi	a5,a5,50
     df4:	02d7d7b3          	divu	a5,a5,a3
     df8:	8b9d                	andi	a5,a5,7
    }
    else
    {
        tmpreg |= ((((fractionaldivider * 16) + 50) / 100)) & ((uint8_t)0x0F);
     dfa:	8fd9                	or	a5,a5,a4
    }

    USARTx->BRR = (uint16_t)tmpreg;
     dfc:	a41e                	.insn	2, 0xa41e
}
     dfe:	6145                	addi	sp,sp,48
     e00:	c5cff06f          	j	25c <__riscv_restore_0>
        apbclock = RCC_ClocksStatus.PCLK1_Frequency;
     e04:	5792                	lw	a5,36(sp)
     e06:	bf65                	j	dbe <USART_Init+0x50>
        integerdivider = ((25 * apbclock) / (4 * (USART_InitStruct->USART_BaudRate)));
     e08:	070a                	slli	a4,a4,0x2
     e0a:	b7e1                	j	dd2 <USART_Init+0x64>
        tmpreg |= ((((fractionaldivider * 16) + 50) / 100)) & ((uint8_t)0x0F);
     e0c:	0792                	slli	a5,a5,0x4
     e0e:	03278793          	addi	a5,a5,50
     e12:	02d7d7b3          	divu	a5,a5,a3
     e16:	8bbd                	andi	a5,a5,15
     e18:	b7cd                	j	dfa <USART_Init+0x8c>

00000e1a <USART_Cmd>:
 */
void USART_Cmd(USART_TypeDef *USARTx, FunctionalState NewState)
{
    if(NewState != DISABLE)
    {
        USARTx->CTLR1 |= CTLR1_UE_Set;
     e1a:	255e                	.insn	2, 0x255e
    if(NewState != DISABLE)
     e1c:	c589                	beqz	a1,e26 <USART_Cmd+0xc>
        USARTx->CTLR1 |= CTLR1_UE_Set;
     e1e:	6709                	lui	a4,0x2
     e20:	8fd9                	or	a5,a5,a4
    }
    else
    {
        USARTx->CTLR1 &= CTLR1_UE_Reset;
     e22:	a55e                	.insn	2, 0xa55e
    }
}
     e24:	8082                	ret
        USARTx->CTLR1 &= CTLR1_UE_Reset;
     e26:	7779                	lui	a4,0xffffe
     e28:	177d                	addi	a4,a4,-1 # ffffdfff <_eusrstack+0xdfff5fff>
     e2a:	8ff9                	and	a5,a5,a4
     e2c:	bfdd                	j	e22 <USART_Cmd+0x8>

00000e2e <atexit>:
     e2e:	85aa                	mv	a1,a0
     e30:	4681                	li	a3,0
     e32:	4601                	li	a2,0
     e34:	4501                	li	a0,0
     e36:	a069                	j	ec0 <__register_exitproc>

00000e38 <__libc_init_array>:
     e38:	1141                	addi	sp,sp,-16
     e3a:	c422                	sw	s0,8(sp)
     e3c:	c226                	sw	s1,4(sp)
     e3e:	6405                	lui	s0,0x1
     e40:	6485                	lui	s1,0x1
     e42:	17840413          	addi	s0,s0,376 # 1178 <_data_lma>
     e46:	17848493          	addi	s1,s1,376 # 1178 <_data_lma>
     e4a:	8c81                	sub	s1,s1,s0
     e4c:	c04a                	sw	s2,0(sp)
     e4e:	c606                	sw	ra,12(sp)
     e50:	8489                	srai	s1,s1,0x2
     e52:	4901                	li	s2,0
     e54:	02991363          	bne	s2,s1,e7a <__libc_init_array+0x42>
     e58:	6405                	lui	s0,0x1
     e5a:	6485                	lui	s1,0x1
     e5c:	17840413          	addi	s0,s0,376 # 1178 <_data_lma>
     e60:	17848493          	addi	s1,s1,376 # 1178 <_data_lma>
     e64:	8c81                	sub	s1,s1,s0
     e66:	8489                	srai	s1,s1,0x2
     e68:	4901                	li	s2,0
     e6a:	00991d63          	bne	s2,s1,e84 <__libc_init_array+0x4c>
     e6e:	40b2                	lw	ra,12(sp)
     e70:	4422                	lw	s0,8(sp)
     e72:	4492                	lw	s1,4(sp)
     e74:	4902                	lw	s2,0(sp)
     e76:	0141                	addi	sp,sp,16
     e78:	8082                	ret
     e7a:	401c                	lw	a5,0(s0)
     e7c:	0905                	addi	s2,s2,1
     e7e:	0411                	addi	s0,s0,4
     e80:	9782                	jalr	a5
     e82:	bfc9                	j	e54 <__libc_init_array+0x1c>
     e84:	401c                	lw	a5,0(s0)
     e86:	0905                	addi	s2,s2,1
     e88:	0411                	addi	s0,s0,4
     e8a:	9782                	jalr	a5
     e8c:	bff9                	j	e6a <__libc_init_array+0x32>

00000e8e <__libc_fini_array>:
     e8e:	1141                	addi	sp,sp,-16
     e90:	c422                	sw	s0,8(sp)
     e92:	c226                	sw	s1,4(sp)
     e94:	6405                	lui	s0,0x1
     e96:	6485                	lui	s1,0x1
     e98:	17848493          	addi	s1,s1,376 # 1178 <_data_lma>
     e9c:	17840413          	addi	s0,s0,376 # 1178 <_data_lma>
     ea0:	8c05                	sub	s0,s0,s1
     ea2:	c606                	sw	ra,12(sp)
     ea4:	8409                	srai	s0,s0,0x2
     ea6:	e411                	bnez	s0,eb2 <__libc_fini_array+0x24>
     ea8:	40b2                	lw	ra,12(sp)
     eaa:	4422                	lw	s0,8(sp)
     eac:	4492                	lw	s1,4(sp)
     eae:	0141                	addi	sp,sp,16
     eb0:	8082                	ret
     eb2:	147d                	addi	s0,s0,-1
     eb4:	00241793          	slli	a5,s0,0x2
     eb8:	97a6                	add	a5,a5,s1
     eba:	439c                	lw	a5,0(a5)
     ebc:	9782                	jalr	a5
     ebe:	b7e5                	j	ea6 <__libc_fini_array+0x18>

00000ec0 <__register_exitproc>:
     ec0:	8181a783          	lw	a5,-2024(gp) # 20000018 <__atexit>
     ec4:	8e2a                	mv	t3,a0
     ec6:	ef81                	bnez	a5,ede <__register_exitproc+0x1e>
     ec8:	c1c18793          	addi	a5,gp,-996 # 2000041c <__atexit0>
     ecc:	80f1ac23          	sw	a5,-2024(gp) # 20000018 <__atexit>
     ed0:	00000513          	li	a0,0
     ed4:	c509                	beqz	a0,ede <__register_exitproc+0x1e>
     ed6:	00002703          	lw	a4,0(zero) # 0 <_sinit>
     eda:	08e7a423          	sw	a4,136(a5)
     ede:	43d8                	lw	a4,4(a5)
     ee0:	487d                	li	a6,31
     ee2:	557d                	li	a0,-1
     ee4:	04e84763          	blt	a6,a4,f32 <__register_exitproc+0x72>
     ee8:	020e0e63          	beqz	t3,f24 <__register_exitproc+0x64>
     eec:	0887a803          	lw	a6,136(a5)
     ef0:	04080163          	beqz	a6,f32 <__register_exitproc+0x72>
     ef4:	00271893          	slli	a7,a4,0x2
     ef8:	98c2                	add	a7,a7,a6
     efa:	00c8a023          	sw	a2,0(a7)
     efe:	10082303          	lw	t1,256(a6)
     f02:	4605                	li	a2,1
     f04:	00e61633          	sll	a2,a2,a4
     f08:	00c36333          	or	t1,t1,a2
     f0c:	10682023          	sw	t1,256(a6)
     f10:	08d8a023          	sw	a3,128(a7)
     f14:	4689                	li	a3,2
     f16:	00de1763          	bne	t3,a3,f24 <__register_exitproc+0x64>
     f1a:	10482683          	lw	a3,260(a6)
     f1e:	8ed1                	or	a3,a3,a2
     f20:	10d82223          	sw	a3,260(a6)
     f24:	00170693          	addi	a3,a4,1
     f28:	070a                	slli	a4,a4,0x2
     f2a:	c3d4                	sw	a3,4(a5)
     f2c:	97ba                	add	a5,a5,a4
     f2e:	c78c                	sw	a1,8(a5)
     f30:	4501                	li	a0,0
     f32:	8082                	ret
     f34:	3880                	.insn	2, 0x3880
     f36:	0001                	nop
     f38:	0000                	unimp
     f3a:	4000                	lw	s0,0(s0)
     f3c:	0008                	.insn	2, 0x0008
     f3e:	0400                	addi	s0,sp,512
     f40:	4000                	lw	s0,0(s0)
     f42:	0000                	unimp
     f44:	0300                	addi	s0,sp,384
     f46:	0000                	unimp
     f48:	00000003          	lb	zero,0(zero) # 0 <_sinit>
     f4c:	001c                	.insn	2, 0x001c
     f4e:	0000                	unimp
     f50:	535f5053          	.insn	4, 0x535f5053
     f54:	6d61                	lui	s10,0x18
	...

00000f58 <ssd1306_init_sequence>:
     f58:	d5ae a8f0 d31f 4000 148d 0020 c8a1 02da     .......@.. .....
     f68:	ff81 22d9 20db a6a4 af2e 0022 211f 7f00     ...". ...."..!..

00000f78 <font5x8>:
     f78:	0000 0000 0000 5f00 0000 0700 0700 1400     ......._........
     f88:	147f 147f 2a24 2a7f 2312 0813 6264 4936     ....$*.*.#..db6I
     f98:	2255 0050 0305 0000 1c00 4122 0000 2241     U"P......."A..A"
     fa8:	001c 0814 083e 0814 3e08 0808 5000 0030     ....>....>...P0.
     fb8:	0800 0808 0808 6000 0060 2000 0810 0204     .......``.. ....
     fc8:	513e 4549 003e 7f42 0040 6142 4951 2146     >QIE>.B.@.BaQIF!
     fd8:	4541 314b 1418 7f12 2710 4545 3945 4a3c     AEK1.....'EEE9<J
     fe8:	4949 0130 0971 0305 4936 4949 0636 4949     II0.q...6III6.II
     ff8:	1e29 3600 0036 0000 3656 0000 1408 4122     )..66...V6...."A
    1008:	1400 1414 1414 4100 1422 0208 5101 0609     .......A"....Q..
    1018:	4932 4179 7e3e 1111 7e11 497f 4949 3e36     2IyA>~...~.III6>
    1028:	4141 2241 417f 2241 7f1c 4949 4149 097f     AAA".AA"..IIIA..
    1038:	0909 3e01 4941 7a49 087f 0808 007f 7f41     ...>AIIz......A.
    1048:	0041 4020 3f41 7f01 1408 4122 407f 4040     A. @A?...."A.@@@
    1058:	7f40 0c02 7f02 047f 1008 3e7f 4141 3e41     @..........>AAA>
    1068:	097f 0909 3e06 5141 5e21 097f 2919 4646     .....>AQ!^...)FF
    1078:	4949 3149 0101 017f 3f01 4040 3f40 201f     III1.....?@@@?. 
    1088:	2040 3f1f 3840 3f40 1463 1408 0763 7008     @ .?@8@?c...c..p
    1098:	0708 5161 4549 0043 417f 0041 0402 1008     ..aQIEC..AA.....
    10a8:	0020 4141 007f 0204 0201 4004 4040 4040      .AA.......@@@@@
    10b8:	0100 0402 2000 5454 7854 487f 4444 3838     ..... TTTx.HDD88
    10c8:	4444 2044 4438 4844 387f 5454 1854 7e08     DDD 8DDH.8TTT..~
    10d8:	0109 0c02 5252 3e52 087f 0404 0078 7d44     ....RRR>....x.D}
    10e8:	0040 4020 3d44 7f00 2810 0044 4100 407f     @. @D=...(D..A.@
    10f8:	7c00 1804 7804 087c 0404 3878 4444 3844     .|...x|...x8DDD8
    1108:	147c 1414 0808 1414 7c18 087c 0404 4808     |........||....H
    1118:	5454 2054 3f04 4044 3c20 4040 7c20 201c     TTT .?D@ <@@ |. 
    1128:	2040 3c1c 3040 3c40 2844 2810 0c44 5050     @ .<@0@<D(.(D.PP
    1138:	3c50 6444 4c54 0044 3608 0041 0000 007f     P<DdTLD..6A.....
    1148:	0000 3641 0008 0810 1008 0008 0906 0609     ..A6............

00001158 <APBAHBPrescTable>:
    1158:	0000 0000 0201 0403 0201 0403 0706 0908     ................

00001168 <AHBPrescTable>:
	...
    1170:	0201 0403 0706 0908                         ........
