
/home/blank/Engineering/MCU/WCH/CH32V30x/Project/Programmator/build/Programmator.elf:     file format elf32-littleriscv


Disassembly of section .init:

00000000 <_sinit>:

	.section	.init,"ax",@progbits
	.global	_start
	.align	1
_start:
	j	handle_reset
   0:	4150006f          	j	c14 <handle_reset>
   4:	00000013          	.word	0x00000013
   8:	00000013          	.word	0x00000013
   c:	00000013          	.word	0x00000013
  10:	00000013          	.word	0x00000013
  14:	00000013          	.word	0x00000013
  18:	00000013          	.word	0x00000013
  1c:	00000013          	.word	0x00000013
  20:	00000013          	.word	0x00000013
  24:	00000013          	.word	0x00000013
  28:	00000013          	.word	0x00000013
  2c:	00000013          	.word	0x00000013
  30:	00000013          	.word	0x00000013
  34:	00100073          	.word	0x00100073

Disassembly of section .vector:

00000038 <_vector_base>:
	...
  40:	00000b56          	.word	0x00000b56
  44:	00000b58          	.word	0x00000b58
  48:	00000000          	.word	0x00000000
  4c:	00000b5a          	.word	0x00000b5a
	...
  58:	00000b5c          	.word	0x00000b5c
  5c:	00000b5e          	.word	0x00000b5e
	...
  68:	00000b60          	.word	0x00000b60
  6c:	00000000          	.word	0x00000000
  70:	00000b62          	.word	0x00000b62
  74:	00000000          	.word	0x00000000
  78:	00000b64          	.word	0x00000b64
  7c:	00000b66          	.word	0x00000b66
  80:	00000b68          	.word	0x00000b68
  84:	00000b6a          	.word	0x00000b6a
  88:	00000b6c          	.word	0x00000b6c
  8c:	00000b6e          	.word	0x00000b6e
  90:	00000b70          	.word	0x00000b70
  94:	00000b72          	.word	0x00000b72
  98:	00000b74          	.word	0x00000b74
  9c:	00000b76          	.word	0x00000b76
  a0:	00000b78          	.word	0x00000b78
  a4:	00000b7a          	.word	0x00000b7a
  a8:	00000b7c          	.word	0x00000b7c
  ac:	00000b7e          	.word	0x00000b7e
  b0:	00000b80          	.word	0x00000b80
  b4:	00000b82          	.word	0x00000b82
  b8:	00000b84          	.word	0x00000b84
  bc:	00000b86          	.word	0x00000b86
  c0:	00000b88          	.word	0x00000b88
  c4:	00000b8a          	.word	0x00000b8a
  c8:	00000b8c          	.word	0x00000b8c
  cc:	00000b8e          	.word	0x00000b8e
  d0:	00000b90          	.word	0x00000b90
  d4:	00000b92          	.word	0x00000b92
  d8:	00000b94          	.word	0x00000b94
  dc:	00000b96          	.word	0x00000b96
  e0:	00000b98          	.word	0x00000b98
  e4:	00000b9a          	.word	0x00000b9a
  e8:	00000b9c          	.word	0x00000b9c
  ec:	00000b9e          	.word	0x00000b9e
  f0:	00000ba0          	.word	0x00000ba0
  f4:	00000ba2          	.word	0x00000ba2
  f8:	00000ba4          	.word	0x00000ba4
  fc:	00000ba6          	.word	0x00000ba6
 100:	00000ba8          	.word	0x00000ba8
 104:	00000baa          	.word	0x00000baa
 108:	00000bac          	.word	0x00000bac
 10c:	00000bae          	.word	0x00000bae
 110:	00000bb0          	.word	0x00000bb0
 114:	00000bb2          	.word	0x00000bb2
 118:	00000bb4          	.word	0x00000bb4
 11c:	00000bb6          	.word	0x00000bb6
 120:	00000bb8          	.word	0x00000bb8
 124:	00000bba          	.word	0x00000bba
 128:	00000bbc          	.word	0x00000bbc
 12c:	00000bbe          	.word	0x00000bbe
 130:	00000bc0          	.word	0x00000bc0
 134:	00000bc2          	.word	0x00000bc2
 138:	00000bc4          	.word	0x00000bc4
 13c:	00000bc6          	.word	0x00000bc6
 140:	00000bc8          	.word	0x00000bc8
 144:	00000bca          	.word	0x00000bca
 148:	00000bcc          	.word	0x00000bcc
 14c:	00000bce          	.word	0x00000bce
 150:	00000bd0          	.word	0x00000bd0
 154:	00000bd2          	.word	0x00000bd2
 158:	00000bd4          	.word	0x00000bd4
 15c:	00000bd6          	.word	0x00000bd6
 160:	00000bd8          	.word	0x00000bd8
 164:	00000bda          	.word	0x00000bda
 168:	00000bdc          	.word	0x00000bdc
 16c:	00000bde          	.word	0x00000bde
 170:	00000be0          	.word	0x00000be0
 174:	00000be2          	.word	0x00000be2
 178:	00000be4          	.word	0x00000be4
 17c:	00000be6          	.word	0x00000be6
 180:	00000be8          	.word	0x00000be8
 184:	00000bea          	.word	0x00000bea
 188:	00000bec          	.word	0x00000bec
 18c:	00000bee          	.word	0x00000bee
 190:	00000bf0          	.word	0x00000bf0
 194:	00000bf2          	.word	0x00000bf2
 198:	00000bf4          	.word	0x00000bf4
 19c:	00000bf6          	.word	0x00000bf6
 1a0:	00000bf8          	.word	0x00000bf8
 1a4:	00000bfa          	.word	0x00000bfa
 1a8:	00000bfc          	.word	0x00000bfc
 1ac:	00000bfe          	.word	0x00000bfe
 1b0:	00000c00          	.word	0x00000c00
 1b4:	00000c02          	.word	0x00000c02
 1b8:	00000c04          	.word	0x00000c04
 1bc:	00000c06          	.word	0x00000c06
 1c0:	00000c08          	.word	0x00000c08
 1c4:	00000c0a          	.word	0x00000c0a
 1c8:	00000c0c          	.word	0x00000c0c
 1cc:	00000c0e          	.word	0x00000c0e
 1d0:	00000c10          	.word	0x00000c10
 1d4:	00000c12          	.word	0x00000c12
	...

Disassembly of section .text:

00000200 <__riscv_save_12>:
     200:	7139                	addi	sp,sp,-64
     202:	4301                	li	t1,0
     204:	c66e                	sw	s11,12(sp)
     206:	a019                	j	20c <__riscv_save_10+0x4>

00000208 <__riscv_save_10>:
     208:	7139                	addi	sp,sp,-64
     20a:	5341                	li	t1,-16
     20c:	c86a                	sw	s10,16(sp)
     20e:	ca66                	sw	s9,20(sp)
     210:	cc62                	sw	s8,24(sp)
     212:	ce5e                	sw	s7,28(sp)
     214:	a021                	j	21c <__riscv_save_4+0x4>
     216:	0001                	nop

00000218 <__riscv_save_4>:
     218:	7139                	addi	sp,sp,-64
     21a:	5301                	li	t1,-32
     21c:	d05a                	sw	s6,32(sp)
     21e:	d256                	sw	s5,36(sp)
     220:	d452                	sw	s4,40(sp)
     222:	d64e                	sw	s3,44(sp)
     224:	d84a                	sw	s2,48(sp)
     226:	da26                	sw	s1,52(sp)
     228:	dc22                	sw	s0,56(sp)
     22a:	de06                	sw	ra,60(sp)
     22c:	40610133          	sub	sp,sp,t1
     230:	8282                	jr	t0
     232:	0001                	nop

00000234 <__riscv_save_0>:
     234:	1141                	addi	sp,sp,-16
     236:	c04a                	sw	s2,0(sp)
     238:	c226                	sw	s1,4(sp)
     23a:	c422                	sw	s0,8(sp)
     23c:	c606                	sw	ra,12(sp)
     23e:	8282                	jr	t0

00000240 <__riscv_restore_12>:
     240:	4db2                	lw	s11,12(sp)
     242:	0141                	addi	sp,sp,16

00000244 <__riscv_restore_10>:
     244:	4d02                	lw	s10,0(sp)
     246:	4c92                	lw	s9,4(sp)
     248:	4c22                	lw	s8,8(sp)
     24a:	4bb2                	lw	s7,12(sp)
     24c:	0141                	addi	sp,sp,16
     24e:	0001                	nop

00000250 <__riscv_restore_4>:
     250:	4b02                	lw	s6,0(sp)
     252:	4a92                	lw	s5,4(sp)
     254:	4a22                	lw	s4,8(sp)
     256:	49b2                	lw	s3,12(sp)
     258:	0141                	addi	sp,sp,16
     25a:	0001                	nop

0000025c <__riscv_restore_0>:
     25c:	4902                	lw	s2,0(sp)
     25e:	4492                	lw	s1,4(sp)
     260:	4422                	lw	s0,8(sp)
     262:	40b2                	lw	ra,12(sp)
     264:	0141                	addi	sp,sp,16
     266:	8082                	ret

00000268 <memcpy>:
     268:	832a                	mv	t1,a0
     26a:	ca09                	beqz	a2,27c <memcpy+0x14>
     26c:	00058383          	lb	t2,0(a1)
     270:	00730023          	sb	t2,0(t1)
     274:	167d                	addi	a2,a2,-1
     276:	0305                	addi	t1,t1,1
     278:	0585                	addi	a1,a1,1
     27a:	fa6d                	bnez	a2,26c <memcpy+0x4>
     27c:	8082                	ret

0000027e <memset>:
     27e:	832a                	mv	t1,a0
     280:	c611                	beqz	a2,28c <memset+0xe>
     282:	00b30023          	sb	a1,0(t1)
     286:	167d                	addi	a2,a2,-1
     288:	0305                	addi	t1,t1,1
     28a:	fe65                	bnez	a2,282 <memset+0x4>
     28c:	8082                	ret

0000028e <main>:
#include "ssd1306/oled_segment.h"
#include "oled.h"

inline void ServiceInit();

int main(){
     28e:	fa7ff2ef          	jal	t0,234 <__riscv_save_0>
        // ServiceInit();
        Delay_Init();
     292:	7d4000ef          	jal	a66 <Delay_Init>
        SystemInit();
     296:	2d2d                	jal	8d0 <SystemInit>
        USART_Printf_Init(115200);
     298:	6571                	lui	a0,0x1c
     29a:	20050513          	addi	a0,a0,512 # 1c200 <_data_lma+0x1a310>
     29e:	7f2000ef          	jal	a90 <USART_Printf_Init>
        SystemCoreClockUpdate();
     2a2:	71e000ef          	jal	9c0 <SystemCoreClockUpdate>
        printf("Инициализация I2C");
     2a6:	6509                	lui	a0,0x2
     2a8:	dc850513          	addi	a0,a0,-568 # 1dc8 <_read+0x28>
     2ac:	2e1000ef          	jal	d8c <iprintf>
        I2C_init();
     2b0:	2ab5                	jal	42c <I2C_init>
        printf("Инициализация Oled Дисплея");
     2b2:	6509                	lui	a0,0x2
     2b4:	dec50513          	addi	a0,a0,-532 # 1dec <_read+0x4c>
     2b8:	2d5000ef          	jal	d8c <iprintf>
        OLED_init();
     2bc:	20e1                	jal	384 <OLED_init>

        // FillRect(10, 9, 32, 10, 1);
        DrawLine(10, 2, 20, 4, 1);
     2be:	4705                	li	a4,1
     2c0:	4691                	li	a3,4
     2c2:	4651                	li	a2,20
     2c4:	4589                	li	a1,2
     2c6:	4529                	li	a0,10
     2c8:	2019                	jal	2ce <DrawLine>

        return 0;
}
     2ca:	4501                	li	a0,0
     2cc:	bf41                	j	25c <__riscv_restore_0>

000002ce <DrawLine>:
        Delay_Ms(500);
        // OLED_clear();
}

void DrawLine(int x1, int y1, int x2, int y2, bool white){
        if (x2 < x1 || y2 < y1) {
     2ce:	04b6c363          	blt	a3,a1,314 <DrawLine+0x46>
     2d2:	04a64163          	blt	a2,a0,314 <DrawLine+0x46>
void DrawLine(int x1, int y1, int x2, int y2, bool white){
     2d6:	f33ff2ef          	jal	t0,208 <__riscv_save_10>
     2da:	8aba                	mv	s5,a4
     2dc:	89b6                	mv	s3,a3
     2de:	8932                	mv	s2,a2
     2e0:	84ae                	mv	s1,a1
                return;
        }

        for (int i=x1; i<x2; i++) {
     2e2:	842a                	mv	s0,a0
                        OLED_DrawPixel(i, y1, white);
                for (int j=y1; j<y2; j++) {
                        OLED_DrawPixel(x1, j, white);
     2e4:	0ff57b93          	zext.b	s7,a0
        for (int i=x1; i<x2; i++) {
     2e8:	01244463          	blt	s0,s2,2f0 <DrawLine+0x22>
                }
        }
        OLED_DisplayBuffer();
     2ec:	2229                	jal	3f6 <OLED_DisplayBuffer>
}
     2ee:	bf99                	j	244 <__riscv_restore_10>
                        OLED_DrawPixel(i, y1, white);
     2f0:	8656                	mv	a2,s5
     2f2:	0ff4f593          	zext.b	a1,s1
     2f6:	0ff47513          	zext.b	a0,s0
     2fa:	20d1                	jal	3be <OLED_DrawPixel>
                for (int j=y1; j<y2; j++) {
     2fc:	8a26                	mv	s4,s1
     2fe:	013a4463          	blt	s4,s3,306 <DrawLine+0x38>
        for (int i=x1; i<x2; i++) {
     302:	0405                	addi	s0,s0,1
     304:	b7d5                	j	2e8 <DrawLine+0x1a>
                        OLED_DrawPixel(x1, j, white);
     306:	0ffa7593          	zext.b	a1,s4
     30a:	8656                	mv	a2,s5
     30c:	855e                	mv	a0,s7
     30e:	2845                	jal	3be <OLED_DrawPixel>
                for (int j=y1; j<y2; j++) {
     310:	0a05                	addi	s4,s4,1
     312:	b7f5                	j	2fe <DrawLine+0x30>
     314:	8082                	ret

00000316 <OLED_setpos>:
  OLED_printW(value >> 16, inverted);
  OLED_printW(value, inverted);
}

// OLED set cursor position
void OLED_setpos(uint8_t x, uint8_t y) {
     316:	f1fff2ef          	jal	t0,234 <__riscv_save_0>
     31a:	1141                	addi	sp,sp,-16
  cursorY = y;
     31c:	80b18a23          	sb	a1,-2028(gp) # 2000006c <cursorY>
  cursorX = x;
     320:	80a18aa3          	sb	a0,-2027(gp) # 2000006d <cursorX>
void OLED_setpos(uint8_t x, uint8_t y) {
     324:	842a                	mv	s0,a0
  I2C_start(OLED_ADDR);                   // start transmission to OLED
     326:	07800513          	li	a0,120
  cursorY = y;
     32a:	c62e                	sw	a1,12(sp)
  I2C_start(OLED_ADDR);                   // start transmission to OLED
     32c:	22ad                	jal	496 <I2C_start>
  I2C_write(OLED_CMD_MODE);               // set command mode
     32e:	4501                	li	a0,0
     330:	226d                	jal	4da <I2C_write>
  I2C_write(OLED_PAGE | y);	              // set page start address
     332:	45b2                	lw	a1,12(sp)
     334:	0b05e513          	ori	a0,a1,176
     338:	224d                	jal	4da <I2C_write>
  I2C_write(x & 0x0F);			              // set lower nibble of start column
     33a:	00f47513          	andi	a0,s0,15
     33e:	2a71                	jal	4da <I2C_write>
  I2C_write(OLED_COLUMN_HIGH | (x >> 4)); // set higher nibble of start column
     340:	00445513          	srli	a0,s0,0x4
     344:	01056513          	ori	a0,a0,16
     348:	2a49                	jal	4da <I2C_write>
  I2C_stop();                             // stop transmission
     34a:	2255                	jal	4ee <I2C_stop>
}
     34c:	0141                	addi	sp,sp,16
     34e:	b739                	j	25c <__riscv_restore_0>

00000350 <OLED_clear>:
void OLED_clear(void) {
     350:	ee5ff2ef          	jal	t0,234 <__riscv_save_0>
		OLED_setpos(0, 0);                            // set cursor to first digit
     354:	4581                	li	a1,0
     356:	4501                	li	a0,0
     358:	3f7d                	jal	316 <OLED_setpos>
  I2C_start(OLED_ADDR);                           // start transmission to OLED
     35a:	07800513          	li	a0,120
     35e:	2a25                	jal	496 <I2C_start>
  I2C_write(OLED_DAT_MODE);                       // set data mode
     360:	20000437          	lui	s0,0x20000
     364:	04000513          	li	a0,64
     368:	08840413          	addi	s0,s0,136 # 20000088 <SSD1306_Buffer>
     36c:	22bd                	jal	4da <I2C_write>
  for(i=128*8; i; i--) {                          // clear screen and buffer
     36e:	c0040493          	addi	s1,s0,-1024
    I2C_write(0x00);
     372:	4501                	li	a0,0
     374:	229d                	jal	4da <I2C_write>
  for(i=128*8; i; i--) {                          // clear screen and buffer
     376:	147d                	addi	s0,s0,-1
    SSD1306_Buffer[i-1] = 0x00;
     378:	40040023          	sb	zero,1024(s0)
  for(i=128*8; i; i--) {                          // clear screen and buffer
     37c:	fe941be3          	bne	s0,s1,372 <OLED_clear+0x22>
  I2C_stop();                                     // stop transmission
     380:	22bd                	jal	4ee <I2C_stop>
}
     382:	bde9                	j	25c <__riscv_restore_0>

00000384 <OLED_init>:
void OLED_init(void) {
     384:	eb1ff2ef          	jal	t0,234 <__riscv_save_0>
  I2C_init();                             // initialize I2C first
     388:	2055                	jal	42c <I2C_init>
  I2C_start(OLED_ADDR);                   // start transmission to OLED
     38a:	07800513          	li	a0,120
     38e:	2221                	jal	496 <I2C_start>
  I2C_write(OLED_CMD_MODE);               // set command mode
     390:	4501                	li	a0,0
    I2C_write(ssd1306_init_sequence[i]);          // send the command bytes
     392:	6489                	lui	s1,0x2
  I2C_write(OLED_CMD_MODE);               // set command mode
     394:	2299                	jal	4da <I2C_write>
     396:	4401                	li	s0,0
    I2C_write(ssd1306_init_sequence[i]);          // send the command bytes
     398:	e5848493          	addi	s1,s1,-424 # 1e58 <ssd1306_init_sequence>
  for(i = 0; i < sizeof(ssd1306_init_sequence); i++)
     39c:	02000913          	li	s2,32
    I2C_write(ssd1306_init_sequence[i]);          // send the command bytes
     3a0:	009407b3          	add	a5,s0,s1
     3a4:	2388                	.insn	2, 0x2388
  for(i = 0; i < sizeof(ssd1306_init_sequence); i++)
     3a6:	0405                	addi	s0,s0,1
    I2C_write(ssd1306_init_sequence[i]);          // send the command bytes
     3a8:	2a0d                	jal	4da <I2C_write>
  for(i = 0; i < sizeof(ssd1306_init_sequence); i++)
     3aa:	ff241be3          	bne	s0,s2,3a0 <OLED_init+0x1c>
  I2C_stop();                             // stop transmission
     3ae:	2281                	jal	4ee <I2C_stop>
  scroll = 0;                             // start with zero scroll
     3b0:	80018b23          	sb	zero,-2026(gp) # 2000006e <scroll>
  OLED_clear();                           // clear screen
     3b4:	3f71                	jal	350 <OLED_clear>
  OLED_setpos(0,0);
     3b6:	4581                	li	a1,0
     3b8:	4501                	li	a0,0
     3ba:	3fb1                	jal	316 <OLED_setpos>
}
     3bc:	b545                	j	25c <__riscv_restore_0>

000003be <OLED_DrawPixel>:
 * X => X Coordinate
 * Y => Y Coordinate
 * white => On or Off pixel
 */
void OLED_DrawPixel(uint8_t x, uint8_t y, bool white) {
    if(x >= SSD1306_WIDTH || y >= SSD1306_HEIGHT) {
     3be:	0405b793          	sltiu	a5,a1,64
     3c2:	c78d                	beqz	a5,3ec <OLED_DrawPixel+0x2e>
     3c4:	00755793          	srli	a5,a0,0x7
     3c8:	e395                	bnez	a5,3ec <OLED_DrawPixel+0x2e>
        // Don't write outside the buffer
        return;
    }
    // Draw in the right color
    if(white) {
        SSD1306_Buffer[x + (y / 8) * SSD1306_WIDTH] |= 1 << (y % 8);
     3ca:	0035d793          	srli	a5,a1,0x3
     3ce:	079e                	slli	a5,a5,0x7
     3d0:	97aa                	add	a5,a5,a0
     3d2:	20000537          	lui	a0,0x20000
     3d6:	08850513          	addi	a0,a0,136 # 20000088 <SSD1306_Buffer>
     3da:	953e                	add	a0,a0,a5
     3dc:	899d                	andi	a1,a1,7
     3de:	4705                	li	a4,1
     3e0:	211c                	.insn	2, 0x211c
     3e2:	00b71733          	sll	a4,a4,a1
    if(white) {
     3e6:	c601                	beqz	a2,3ee <OLED_DrawPixel+0x30>
        SSD1306_Buffer[x + (y / 8) * SSD1306_WIDTH] |= 1 << (y % 8);
     3e8:	8fd9                	or	a5,a5,a4
    } else { 
        SSD1306_Buffer[x + (y / 8) * SSD1306_WIDTH] &= ~(1 << (y % 8));
     3ea:	a11c                	.insn	2, 0xa11c
    }
}
     3ec:	8082                	ret
        SSD1306_Buffer[x + (y / 8) * SSD1306_WIDTH] &= ~(1 << (y % 8));
     3ee:	fff74713          	not	a4,a4
     3f2:	8ff9                	and	a5,a5,a4
     3f4:	bfdd                	j	3ea <OLED_DrawPixel+0x2c>

000003f6 <OLED_DisplayBuffer>:
      OLED_DrawLine(vertical, x[i], white); 
    } 
}

/* Write the screenbuffer to the screen */
void OLED_DisplayBuffer(void) {
     3f6:	e3fff2ef          	jal	t0,234 <__riscv_save_0>
		OLED_setpos(0, 0);                      // set cursor to display start
     3fa:	4581                	li	a1,0
     3fc:	4501                	li	a0,0
     3fe:	3f21                	jal	316 <OLED_setpos>
		I2C_start(OLED_ADDR);                   // start transmission to OLED
     400:	07800513          	li	a0,120
     404:	2849                	jal	496 <I2C_start>
		I2C_write(OLED_DAT_MODE);               // set data mode
     406:	04000513          	li	a0,64
		for(uint16_t i=0; i!=128*8; i++) {
      I2C_write(SSD1306_Buffer[i]);         // send buffer
     40a:	200004b7          	lui	s1,0x20000
		I2C_write(OLED_DAT_MODE);               // set data mode
     40e:	20f1                	jal	4da <I2C_write>
     410:	4401                	li	s0,0
      I2C_write(SSD1306_Buffer[i]);         // send buffer
     412:	08848493          	addi	s1,s1,136 # 20000088 <SSD1306_Buffer>
		for(uint16_t i=0; i!=128*8; i++) {
     416:	40000913          	li	s2,1024
      I2C_write(SSD1306_Buffer[i]);         // send buffer
     41a:	009407b3          	add	a5,s0,s1
     41e:	2388                	.insn	2, 0x2388
		for(uint16_t i=0; i!=128*8; i++) {
     420:	0405                	addi	s0,s0,1
      I2C_write(SSD1306_Buffer[i]);         // send buffer
     422:	2865                	jal	4da <I2C_write>
		for(uint16_t i=0; i!=128*8; i++) {
     424:	ff241be3          	bne	s0,s2,41a <OLED_DisplayBuffer+0x24>
    }
		I2C_stop();                             // stop transmission
     428:	20d9                	jal	4ee <I2C_stop>
}
     42a:	bd0d                	j	25c <__riscv_restore_0>

0000042c <I2C_init>:
#define I2C_ADDR_TRANSMITTED    0x00820003    // BUSY, MSL, ADDR, TXE
#define I2C_BYTE_TRANSMITTED    0x00840003    // BUSY, MSL, BTF, TXE
#define I2C_checkEvent(n)       (((((uint32_t)I2C1->STAR1<<16) | I2C1->STAR2) & n) == n)

// Init I2C
void I2C_init(void) {
     42c:	e09ff2ef          	jal	t0,234 <__riscv_save_0>
     430:	1101                	addi	sp,sp,-32
  RCC_APB2PeriphClockCmd(RCC_APB2Periph_GPIOB|RCC_APB2Periph_AFIO, ENABLE);
     432:	4585                	li	a1,1
     434:	4525                	li	a0,9
     436:	21ad                	jal	8a0 <RCC_APB2PeriphClockCmd>
  GPIO_PinRemapConfig(GPIO_Remap_I2C1, ENABLE);
     438:	4585                	li	a1,1
     43a:	4509                	li	a0,2
     43c:	2279                	jal	5ca <GPIO_PinRemapConfig>
  RCC_APB1PeriphClockCmd(RCC_APB1Periph_I2C1, ENABLE);
     43e:	4585                	li	a1,1
     440:	00200537          	lui	a0,0x200
     444:	2995                	jal	8b8 <RCC_APB1PeriphClockCmd>
  GPIO_SetBits(GPIOB, GPIO_Pin_9|GPIO_Pin_8);
     446:	40011537          	lui	a0,0x40011
     44a:	30000593          	li	a1,768
     44e:	c0050513          	addi	a0,a0,-1024 # 40010c00 <_eusrstack+0x20008c00>
     452:	2a95                	jal	5c6 <GPIO_SetBits>

  I2C_InitTypeDef i2c = {
     454:	6409                	lui	s0,0x2
     456:	4641                	li	a2,16
     458:	dac40413          	addi	s0,s0,-596 # 1dac <_read+0xc>
     45c:	00c10533          	add	a0,sp,a2
     460:	85a2                	mv	a1,s0
     462:	3519                	jal	268 <memcpy>
    .I2C_Ack = I2C_Ack_Enable,
    .I2C_OwnAddress1 = 0x08,
    .I2C_Mode = I2C_Mode_I2C,
    .I2C_AcknowledgedAddress = I2C_AcknowledgedAddress_7bit,
  };
  I2C_Init(I2C1, &i2c);
     464:	40005537          	lui	a0,0x40005
     468:	080c                	addi	a1,sp,16
     46a:	40050513          	addi	a0,a0,1024 # 40005400 <_eusrstack+0x1fffd400>
     46e:	2411                	jal	672 <I2C_Init>
  I2C_Cmd(I2C1, ENABLE);
     470:	40005537          	lui	a0,0x40005
     474:	4585                	li	a1,1
     476:	40050513          	addi	a0,a0,1024 # 40005400 <_eusrstack+0x1fffd400>
     47a:	24c1                	jal	73a <I2C_Cmd>

  GPIO_InitTypeDef gpio = {
     47c:	4631                	li	a2,12
     47e:	01040593          	addi	a1,s0,16
     482:	0048                	addi	a0,sp,4
     484:	33d5                	jal	268 <memcpy>
    .GPIO_Mode = GPIO_Mode_AF_OD,
    .GPIO_Pin = GPIO_Pin_8|GPIO_Pin_9,
    .GPIO_Speed = GPIO_Speed_50MHz,
  };
  GPIO_Init(GPIOB, &gpio);
     486:	40011537          	lui	a0,0x40011
     48a:	004c                	addi	a1,sp,4
     48c:	c0050513          	addi	a0,a0,-1024 # 40010c00 <_eusrstack+0x20008c00>
     490:	289d                	jal	506 <GPIO_Init>
}
     492:	6105                	addi	sp,sp,32
     494:	b3e1                	j	25c <__riscv_restore_0>

00000496 <I2C_start>:

// Start I2C transmission (addr must contain R/W bit)
void I2C_start(uint8_t addr) {
  while(I2C1->STAR2 & I2C_STAR2_BUSY);            // wait until bus ready
     496:	400057b7          	lui	a5,0x40005
     49a:	40078793          	addi	a5,a5,1024 # 40005400 <_eusrstack+0x1fffd400>
     49e:	2f9a                	.insn	2, 0x2f9a
     4a0:	8b09                	andi	a4,a4,2
     4a2:	ff75                	bnez	a4,49e <I2C_start+0x8>
  I2C1->CTLR1 |= I2C_CTLR1_START;                 // set START condition
     4a4:	239a                	.insn	2, 0x239a
     4a6:	10076713          	ori	a4,a4,256
     4aa:	a39a                	.insn	2, 0xa39a
  while(!(I2C1->STAR1 & I2C_STAR1_SB));           // wait for START generated
     4ac:	400057b7          	lui	a5,0x40005
     4b0:	40078793          	addi	a5,a5,1024 # 40005400 <_eusrstack+0x1fffd400>
     4b4:	2bda                	.insn	2, 0x2bda
     4b6:	8b05                	andi	a4,a4,1
     4b8:	df75                	beqz	a4,4b4 <I2C_start+0x1e>
  I2C1->DATAR = addr;                             // send slave address + R/W bit
  while(!I2C_checkEvent(I2C_ADDR_TRANSMITTED));   // wait for address transmitted
     4ba:	400056b7          	lui	a3,0x40005
     4be:	00820737          	lui	a4,0x820
  I2C1->DATAR = addr;                             // send slave address + R/W bit
     4c2:	ab8a                	.insn	2, 0xab8a
  while(!I2C_checkEvent(I2C_ADDR_TRANSMITTED));   // wait for address transmitted
     4c4:	40068693          	addi	a3,a3,1024 # 40005400 <_eusrstack+0x1fffd400>
     4c8:	070d                	addi	a4,a4,3 # 820003 <_data_lma+0x81e113>
     4ca:	2ade                	.insn	2, 0x2ade
     4cc:	2e92                	.insn	2, 0x2e92
     4ce:	07c2                	slli	a5,a5,0x10
     4d0:	8fd1                	or	a5,a5,a2
     4d2:	8ff9                	and	a5,a5,a4
     4d4:	fee79be3          	bne	a5,a4,4ca <I2C_start+0x34>
}
     4d8:	8082                	ret

000004da <I2C_write>:

// Send data byte via I2C bus
void I2C_write(uint8_t data) {
  while(!(I2C1->STAR1 & I2C_STAR1_TXE));          // wait for last byte transmitted
     4da:	400057b7          	lui	a5,0x40005
     4de:	40078793          	addi	a5,a5,1024 # 40005400 <_eusrstack+0x1fffd400>
     4e2:	2bda                	.insn	2, 0x2bda
     4e4:	08077713          	andi	a4,a4,128
     4e8:	df6d                	beqz	a4,4e2 <I2C_write+0x8>
  I2C1->DATAR = data;                             // send data byte
     4ea:	ab8a                	.insn	2, 0xab8a
}
     4ec:	8082                	ret

000004ee <I2C_stop>:

// Stop I2C transmission
void I2C_stop(void) {
  while(!(I2C1->STAR1 & I2C_STAR1_BTF));          // wait for last byte transmitted
     4ee:	400057b7          	lui	a5,0x40005
     4f2:	40078793          	addi	a5,a5,1024 # 40005400 <_eusrstack+0x1fffd400>
     4f6:	2bda                	.insn	2, 0x2bda
     4f8:	8b11                	andi	a4,a4,4
     4fa:	df75                	beqz	a4,4f6 <I2C_stop+0x8>
  I2C1->CTLR1 |= I2C_CTLR1_STOP;                  // set STOP condition
     4fc:	239a                	.insn	2, 0x239a
     4fe:	20076713          	ori	a4,a4,512
     502:	a39a                	.insn	2, 0xa39a
}
     504:	8082                	ret

00000506 <GPIO_Init>:
void GPIO_Init(GPIO_TypeDef *GPIOx, GPIO_InitTypeDef *GPIO_InitStruct)
{
    uint32_t currentmode = 0x00, currentpin = 0x00, pinpos = 0x00, pos = 0x00;
    uint32_t tmpreg = 0x00, pinmask = 0x00;

    currentmode = ((uint32_t)GPIO_InitStruct->GPIO_Mode) & ((uint32_t)0x0F);
     506:	459c                	lw	a5,8(a1)

    if((((uint32_t)GPIO_InitStruct->GPIO_Mode) & ((uint32_t)0x10)) != 0x00)
     508:	0107f713          	andi	a4,a5,16
    currentmode = ((uint32_t)GPIO_InitStruct->GPIO_Mode) & ((uint32_t)0x0F);
     50c:	00f7f813          	andi	a6,a5,15
    if((((uint32_t)GPIO_InitStruct->GPIO_Mode) & ((uint32_t)0x10)) != 0x00)
     510:	c701                	beqz	a4,518 <GPIO_Init+0x12>
    {
        currentmode |= (uint32_t)GPIO_InitStruct->GPIO_Speed;
     512:	41d8                	lw	a4,4(a1)
     514:	00e86833          	or	a6,a6,a4
    }

    if(((uint32_t)GPIO_InitStruct->GPIO_Pin & ((uint32_t)0x00FF)) != 0x00)
     518:	218e                	.insn	2, 0x218e
     51a:	0ff5f713          	zext.b	a4,a1
     51e:	c339                	beqz	a4,564 <GPIO_Init+0x5e>
    {
        tmpreg = GPIOx->CFGLR;
     520:	4118                	lw	a4,0(a0)

        for(pinpos = 0x00; pinpos < 0x08; pinpos++)
     522:	4681                	li	a3,0
        {
            pos = ((uint32_t)0x01) << pinpos;
     524:	4e85                	li	t4,1
            currentpin = (GPIO_InitStruct->GPIO_Pin) & pos;

            if(currentpin == pos)
            {
                pos = pinpos << 2;
                pinmask = ((uint32_t)0x0F) << pos;
     526:	4f3d                	li	t5,15
                tmpreg &= ~pinmask;
                tmpreg |= (currentmode << pos);

                if(GPIO_InitStruct->GPIO_Mode == GPIO_Mode_IPD)
     528:	02800f93          	li	t6,40
                {
                    GPIOx->BCR = (((uint32_t)0x01) << pinpos);
                }
                else
                {
                    if(GPIO_InitStruct->GPIO_Mode == GPIO_Mode_IPU)
     52c:	04800293          	li	t0,72
        for(pinpos = 0x00; pinpos < 0x08; pinpos++)
     530:	4e21                	li	t3,8
            pos = ((uint32_t)0x01) << pinpos;
     532:	00de9633          	sll	a2,t4,a3
            currentpin = (GPIO_InitStruct->GPIO_Pin) & pos;
     536:	00c5f8b3          	and	a7,a1,a2
            if(currentpin == pos)
     53a:	03161163          	bne	a2,a7,55c <GPIO_Init+0x56>
                pos = pinpos << 2;
     53e:	00269893          	slli	a7,a3,0x2
                pinmask = ((uint32_t)0x0F) << pos;
     542:	011f1333          	sll	t1,t5,a7
                tmpreg &= ~pinmask;
     546:	fff34313          	not	t1,t1
     54a:	00e37733          	and	a4,t1,a4
                tmpreg |= (currentmode << pos);
     54e:	011818b3          	sll	a7,a6,a7
     552:	00e8e733          	or	a4,a7,a4
                if(GPIO_InitStruct->GPIO_Mode == GPIO_Mode_IPD)
     556:	07f79063          	bne	a5,t6,5b6 <GPIO_Init+0xb0>
                    GPIOx->BCR = (((uint32_t)0x01) << pinpos);
     55a:	c950                	sw	a2,20(a0)
        for(pinpos = 0x00; pinpos < 0x08; pinpos++)
     55c:	0685                	addi	a3,a3,1
     55e:	fdc69ae3          	bne	a3,t3,532 <GPIO_Init+0x2c>
                        GPIOx->BSHR = (((uint32_t)0x01) << pinpos);
                    }
                }
            }
        }
        GPIOx->CFGLR = tmpreg;
     562:	c118                	sw	a4,0(a0)
    }

    if(GPIO_InitStruct->GPIO_Pin > 0x00FF)
     564:	0ff00713          	li	a4,255
     568:	04b77663          	bgeu	a4,a1,5b4 <GPIO_Init+0xae>
    {
        tmpreg = GPIOx->CFGHR;
     56c:	4154                	lw	a3,4(a0)

        for(pinpos = 0x00; pinpos < 0x08; pinpos++)
     56e:	4601                	li	a2,0
        {
            pos = (((uint32_t)0x01) << (pinpos + 0x08));
     570:	4e85                	li	t4,1
            currentpin = ((GPIO_InitStruct->GPIO_Pin) & pos);

            if(currentpin == pos)
            {
                pos = pinpos << 2;
                pinmask = ((uint32_t)0x0F) << pos;
     572:	4f3d                	li	t5,15
                tmpreg &= ~pinmask;
                tmpreg |= (currentmode << pos);

                if(GPIO_InitStruct->GPIO_Mode == GPIO_Mode_IPD)
     574:	02800f93          	li	t6,40
                {
                    GPIOx->BCR = (((uint32_t)0x01) << (pinpos + 0x08));
                }

                if(GPIO_InitStruct->GPIO_Mode == GPIO_Mode_IPU)
     578:	04800293          	li	t0,72
        for(pinpos = 0x00; pinpos < 0x08; pinpos++)
     57c:	4e21                	li	t3,8
            pos = (((uint32_t)0x01) << (pinpos + 0x08));
     57e:	00860713          	addi	a4,a2,8
     582:	00ee9733          	sll	a4,t4,a4
            currentpin = ((GPIO_InitStruct->GPIO_Pin) & pos);
     586:	00e5f8b3          	and	a7,a1,a4
            if(currentpin == pos)
     58a:	03171163          	bne	a4,a7,5ac <GPIO_Init+0xa6>
                pos = pinpos << 2;
     58e:	00261893          	slli	a7,a2,0x2
                pinmask = ((uint32_t)0x0F) << pos;
     592:	011f1333          	sll	t1,t5,a7
                tmpreg &= ~pinmask;
     596:	fff34313          	not	t1,t1
     59a:	00d376b3          	and	a3,t1,a3
                tmpreg |= (currentmode << pos);
     59e:	011818b3          	sll	a7,a6,a7
     5a2:	00d8e6b3          	or	a3,a7,a3
                if(GPIO_InitStruct->GPIO_Mode == GPIO_Mode_IPD)
     5a6:	01f79c63          	bne	a5,t6,5be <GPIO_Init+0xb8>
                    GPIOx->BCR = (((uint32_t)0x01) << (pinpos + 0x08));
     5aa:	c958                	sw	a4,20(a0)
        for(pinpos = 0x00; pinpos < 0x08; pinpos++)
     5ac:	0605                	addi	a2,a2,1
     5ae:	fdc618e3          	bne	a2,t3,57e <GPIO_Init+0x78>
                {
                    GPIOx->BSHR = (((uint32_t)0x01) << (pinpos + 0x08));
                }
            }
        }
        GPIOx->CFGHR = tmpreg;
     5b2:	c154                	sw	a3,4(a0)
    }
}
     5b4:	8082                	ret
                    if(GPIO_InitStruct->GPIO_Mode == GPIO_Mode_IPU)
     5b6:	fa5793e3          	bne	a5,t0,55c <GPIO_Init+0x56>
                        GPIOx->BSHR = (((uint32_t)0x01) << pinpos);
     5ba:	c910                	sw	a2,16(a0)
     5bc:	b745                	j	55c <GPIO_Init+0x56>
                if(GPIO_InitStruct->GPIO_Mode == GPIO_Mode_IPU)
     5be:	fe5797e3          	bne	a5,t0,5ac <GPIO_Init+0xa6>
                    GPIOx->BSHR = (((uint32_t)0x01) << (pinpos + 0x08));
     5c2:	c918                	sw	a4,16(a0)
     5c4:	b7e5                	j	5ac <GPIO_Init+0xa6>

000005c6 <GPIO_SetBits>:
 *
 * @return  none
 */
void GPIO_SetBits(GPIO_TypeDef *GPIOx, uint16_t GPIO_Pin)
{
    GPIOx->BSHR = GPIO_Pin;
     5c6:	c90c                	sw	a1,16(a0)
}
     5c8:	8082                	ret

000005ca <GPIO_PinRemapConfig>:
 */
void GPIO_PinRemapConfig(uint32_t GPIO_Remap, FunctionalState NewState)
{
    uint32_t tmp = 0x00, tmp1 = 0x00, tmpreg = 0x00, tmpmask = 0x00;

    if((GPIO_Remap & 0x80000000) == 0x80000000)
     5ca:	400107b7          	lui	a5,0x40010
     5ce:	02055963          	bgez	a0,600 <GPIO_PinRemapConfig+0x36>
    {
        tmpreg = AFIO->PCFR2;
     5d2:	4fdc                	lw	a5,28(a5)
    else
    {
        tmpreg = AFIO->PCFR1;
    }

    tmpmask = (GPIO_Remap & DBGAFR_POSITION_MASK) >> 0x10;
     5d4:	01055693          	srli	a3,a0,0x10
    tmp = GPIO_Remap & LSB_MASK;
     5d8:	01051613          	slli	a2,a0,0x10

    /* Clear bit */
    if((GPIO_Remap & 0x80000000) == 0x80000000)
    {                                                                                                                   /* PCFR2 */
        if((GPIO_Remap & (DBGAFR_LOCATION_MASK | DBGAFR_NUMBITS_MASK)) == (DBGAFR_LOCATION_MASK | DBGAFR_NUMBITS_MASK)) /* [31:16] 2bit */
     5dc:	00300737          	lui	a4,0x300
    tmpmask = (GPIO_Remap & DBGAFR_POSITION_MASK) >> 0x10;
     5e0:	8abd                	andi	a3,a3,15
    tmp = GPIO_Remap & LSB_MASK;
     5e2:	8241                	srli	a2,a2,0x10
        if((GPIO_Remap & (DBGAFR_LOCATION_MASK | DBGAFR_NUMBITS_MASK)) == (DBGAFR_LOCATION_MASK | DBGAFR_NUMBITS_MASK)) /* [31:16] 2bit */
     5e4:	00e57833          	and	a6,a0,a4
    if((GPIO_Remap & 0x80000000) == 0x80000000)
     5e8:	02055f63          	bgez	a0,626 <GPIO_PinRemapConfig+0x5c>
        if((GPIO_Remap & (DBGAFR_LOCATION_MASK | DBGAFR_NUMBITS_MASK)) == (DBGAFR_LOCATION_MASK | DBGAFR_NUMBITS_MASK)) /* [31:16] 2bit */
     5ec:	00e81c63          	bne	a6,a4,604 <GPIO_PinRemapConfig+0x3a>
        {
            tmp1 = ((uint32_t)0x03) << (tmpmask + 0x10);
     5f0:	06c1                	addi	a3,a3,16
            tmpreg &= ~tmp1;
        }
        else if((GPIO_Remap & DBGAFR_NUMBITS_MASK) == DBGAFR_NUMBITS_MASK) /* [15:0] 2bit */
        {
            tmp1 = ((uint32_t)0x03) << tmpmask;
     5f2:	470d                	li	a4,3
     5f4:	00d71733          	sll	a4,a4,a3
            tmpreg &= ~tmp1;
     5f8:	fff74713          	not	a4,a4
     5fc:	8ff9                	and	a5,a5,a4
     5fe:	a039                	j	60c <GPIO_PinRemapConfig+0x42>
        tmpreg = AFIO->PCFR1;
     600:	43dc                	lw	a5,4(a5)
     602:	bfc9                	j	5d4 <GPIO_PinRemapConfig+0xa>
        else if((GPIO_Remap & DBGAFR_NUMBITS_MASK) == DBGAFR_NUMBITS_MASK) /* [15:0] 2bit */
     604:	00b51713          	slli	a4,a0,0xb
     608:	fe0745e3          	bltz	a4,5f2 <GPIO_PinRemapConfig+0x28>
            tmpreg |= ~DBGAFR_SWJCFG_MASK;
        }
    }

    /* Set bit */
    if(NewState != DISABLE)
     60c:	c989                	beqz	a1,61e <GPIO_PinRemapConfig+0x54>
    {
        tmpreg |= (tmp << ((GPIO_Remap >> 0x15) * 0x10));
     60e:	01555713          	srli	a4,a0,0x15
     612:	0712                	slli	a4,a4,0x4
     614:	00e61733          	sll	a4,a2,a4
     618:	8fd9                	or	a5,a5,a4
    }

    if((GPIO_Remap & 0x80000000) == 0x80000000)
     61a:	02055463          	bgez	a0,642 <GPIO_PinRemapConfig+0x78>
    {
        AFIO->PCFR2 = tmpreg;
     61e:	40010737          	lui	a4,0x40010
     622:	cf5c                	sw	a5,28(a4)
     624:	8082                	ret
        if((GPIO_Remap & (DBGAFR_LOCATION_MASK | DBGAFR_NUMBITS_MASK)) == (DBGAFR_LOCATION_MASK | DBGAFR_NUMBITS_MASK)) /* [26:24] 3bit SWD_JTAG */
     626:	02e81263          	bne	a6,a4,64a <GPIO_PinRemapConfig+0x80>
            AFIO->PCFR1 &= DBGAFR_SWJCFG_MASK;
     62a:	40010837          	lui	a6,0x40010
     62e:	00482683          	lw	a3,4(a6) # 40010004 <_eusrstack+0x20008004>
            tmpreg &= DBGAFR_SWJCFG_MASK;
     632:	f1000737          	lui	a4,0xf1000
     636:	177d                	addi	a4,a4,-1 # f0ffffff <_eusrstack+0xd0ff7fff>
     638:	8ff9                	and	a5,a5,a4
            AFIO->PCFR1 &= DBGAFR_SWJCFG_MASK;
     63a:	8f75                	and	a4,a4,a3
     63c:	00e82223          	sw	a4,4(a6)
    if(NewState != DISABLE)
     640:	f5f9                	bnez	a1,60e <GPIO_PinRemapConfig+0x44>
    }
    else
    {
        AFIO->PCFR1 = tmpreg;
     642:	40010737          	lui	a4,0x40010
     646:	c35c                	sw	a5,4(a4)
    }
}
     648:	8082                	ret
        else if((GPIO_Remap & DBGAFR_NUMBITS_MASK) == DBGAFR_NUMBITS_MASK) /* [15:0] 2bit */
     64a:	00b51713          	slli	a4,a0,0xb
     64e:	00075c63          	bgez	a4,666 <GPIO_PinRemapConfig+0x9c>
            tmp1 = ((uint32_t)0x03) << tmpmask;
     652:	470d                	li	a4,3
     654:	00d71733          	sll	a4,a4,a3
            tmpreg &= ~(tmp << ((GPIO_Remap >> 0x15) * 0x10));
     658:	fff74713          	not	a4,a4
     65c:	8f7d                	and	a4,a4,a5
            tmpreg |= ~DBGAFR_SWJCFG_MASK;
     65e:	0f0007b7          	lui	a5,0xf000
     662:	8fd9                	or	a5,a5,a4
     664:	bff1                	j	640 <GPIO_PinRemapConfig+0x76>
            tmpreg &= ~(tmp << ((GPIO_Remap >> 0x15) * 0x10));
     666:	01555713          	srli	a4,a0,0x15
     66a:	0712                	slli	a4,a4,0x4
     66c:	00e61733          	sll	a4,a2,a4
     670:	b7e5                	j	658 <GPIO_PinRemapConfig+0x8e>

00000672 <I2C_Init>:
 *        contains the configuration information for the specified I2C peripheral.
 *
 * @return  none
 */
void I2C_Init(I2C_TypeDef *I2Cx, I2C_InitTypeDef *I2C_InitStruct)
{
     672:	bc3ff2ef          	jal	t0,234 <__riscv_save_0>
    uint16_t result = 0x04;
    uint32_t pclk1 = 8000000;

    RCC_ClocksTypeDef rcc_clocks;

    tmpreg = I2Cx->CTLR2;
     676:	2146                	.insn	2, 0x2146
{
     678:	7179                	addi	sp,sp,-48
    tmpreg &= CTLR2_FREQ_Reset;
     67a:	67c1                	lui	a5,0x10
{
     67c:	842a                	mv	s0,a0
    tmpreg &= CTLR2_FREQ_Reset;
     67e:	fc078793          	addi	a5,a5,-64 # ffc0 <_data_lma+0xe0d0>
    RCC_GetClocksFreq(&rcc_clocks);
     682:	0868                	addi	a0,sp,28
    tmpreg &= CTLR2_FREQ_Reset;
     684:	8cfd                	and	s1,s1,a5
{
     686:	c62e                	sw	a1,12(sp)
    RCC_GetClocksFreq(&rcc_clocks);
     688:	20d9                	jal	74e <RCC_GetClocksFreq>
    pclk1 = rcc_clocks.PCLK1_Frequency;
     68a:	5792                	lw	a5,36(sp)
    freqrange = (uint16_t)(pclk1 / 1000000);
     68c:	000f4737          	lui	a4,0xf4
     690:	24070713          	addi	a4,a4,576 # f4240 <_data_lma+0xf2350>
     694:	02e7d733          	divu	a4,a5,a4
    I2Cx->CTLR2 = tmpreg;

    I2Cx->CTLR1 &= CTLR1_PE_Reset;
    tmpreg = 0;

    if(I2C_InitStruct->I2C_ClockSpeed <= 100000)
     698:	45b2                	lw	a1,12(sp)
    I2Cx->CTLR1 &= CTLR1_PE_Reset;
     69a:	6641                	lui	a2,0x10
     69c:	1679                	addi	a2,a2,-2 # fffe <_data_lma+0xe10e>
    tmpreg |= freqrange;
     69e:	8cd9                	or	s1,s1,a4
    I2Cx->CTLR2 = tmpreg;
     6a0:	a046                	.insn	2, 0xa046
    I2Cx->CTLR1 &= CTLR1_PE_Reset;
     6a2:	2016                	.insn	2, 0x2016
     6a4:	8ef1                	and	a3,a3,a2
     6a6:	a016                	.insn	2, 0xa016
    if(I2C_InitStruct->I2C_ClockSpeed <= 100000)
     6a8:	4194                	lw	a3,0(a1)
     6aa:	6661                	lui	a2,0x18
     6ac:	6a060613          	addi	a2,a2,1696 # 186a0 <_data_lma+0x167b0>
     6b0:	04d66363          	bltu	a2,a3,6f6 <I2C_Init+0x84>
    {
        result = (uint16_t)(pclk1 / (I2C_InitStruct->I2C_ClockSpeed << 1));
     6b4:	0686                	slli	a3,a3,0x1
     6b6:	02d7d6b3          	divu	a3,a5,a3

        if(result < 0x04)
     6ba:	4611                	li	a2,4
        result = (uint16_t)(pclk1 / (I2C_InitStruct->I2C_ClockSpeed << 1));
     6bc:	87b6                	mv	a5,a3
        if(result < 0x04)
     6be:	06c2                	slli	a3,a3,0x10
     6c0:	82c1                	srli	a3,a3,0x10
     6c2:	00c6f363          	bgeu	a3,a2,6c8 <I2C_Init+0x56>
     6c6:	87b2                	mv	a5,a2
        {
            result |= (uint16_t)0x0001;
        }

        tmpreg |= (uint16_t)(result | CKCFGR_FS_Set);
        I2Cx->RTR = (uint16_t)(((freqrange * (uint16_t)300) / (uint16_t)1000) + (uint16_t)1);
     6c8:	0705                	addi	a4,a4,1
     6ca:	b01a                	.insn	2, 0xb01a
    }

    I2Cx->CKCFGR = tmpreg;
     6cc:	ac5e                	.insn	2, 0xac5e
    I2Cx->CTLR1 |= CTLR1_PE_Set;
     6ce:	201e                	.insn	2, 0x201e

    tmpreg = I2Cx->CTLR1;
    tmpreg &= CTLR1_CLEAR_Mask;
     6d0:	6741                	lui	a4,0x10
     6d2:	bf570713          	addi	a4,a4,-1035 # fbf5 <_data_lma+0xdd05>
    I2Cx->CTLR1 |= CTLR1_PE_Set;
     6d6:	0017e793          	ori	a5,a5,1
     6da:	a01e                	.insn	2, 0xa01e
    tmpreg = I2Cx->CTLR1;
     6dc:	201e                	.insn	2, 0x201e
    tmpreg |= (uint16_t)((uint32_t)I2C_InitStruct->I2C_Mode | I2C_InitStruct->I2C_Ack);
     6de:	25b6                	.insn	2, 0x25b6
    tmpreg &= CTLR1_CLEAR_Mask;
     6e0:	8ff9                	and	a5,a5,a4
    tmpreg |= (uint16_t)((uint32_t)I2C_InitStruct->I2C_Mode | I2C_InitStruct->I2C_Ack);
     6e2:	21da                	.insn	2, 0x21da
     6e4:	8f55                	or	a4,a4,a3
     6e6:	8fd9                	or	a5,a5,a4
    I2Cx->CTLR1 = tmpreg;
     6e8:	a01e                	.insn	2, 0xa01e

    I2Cx->OADDR1 = (I2C_InitStruct->I2C_AcknowledgedAddress | I2C_InitStruct->I2C_OwnAddress1);
     6ea:	259a                	.insn	2, 0x259a
     6ec:	25de                	.insn	2, 0x25de
     6ee:	8fd9                	or	a5,a5,a4
     6f0:	a41e                	.insn	2, 0xa41e
}
     6f2:	6145                	addi	sp,sp,48
     6f4:	b6a5                	j	25c <__riscv_restore_0>
        if(I2C_InitStruct->I2C_DutyCycle == I2C_DutyCycle_2)
     6f6:	21ea                	.insn	2, 0x21ea
     6f8:	6631                	lui	a2,0xc
     6fa:	167d                	addi	a2,a2,-1 # bfff <_data_lma+0xa10f>
     6fc:	02c51763          	bne	a0,a2,72a <I2C_Init+0xb8>
            result = (uint16_t)(pclk1 / (I2C_InitStruct->I2C_ClockSpeed * 3));
     700:	460d                	li	a2,3
     702:	02c686b3          	mul	a3,a3,a2
     706:	02d7d7b3          	divu	a5,a5,a3
        if((result & CKCFGR_CCR_Set) == 0)
     70a:	01479693          	slli	a3,a5,0x14
     70e:	e299                	bnez	a3,714 <I2C_Init+0xa2>
            result |= (uint16_t)0x0001;
     710:	0017e793          	ori	a5,a5,1
        tmpreg |= (uint16_t)(result | CKCFGR_FS_Set);
     714:	76e1                	lui	a3,0xffff8
     716:	8fd5                	or	a5,a5,a3
        I2Cx->RTR = (uint16_t)(((freqrange * (uint16_t)300) / (uint16_t)1000) + (uint16_t)1);
     718:	12c00693          	li	a3,300
     71c:	02d70733          	mul	a4,a4,a3
     720:	3e800693          	li	a3,1000
     724:	02d74733          	div	a4,a4,a3
     728:	b745                	j	6c8 <I2C_Init+0x56>
            result = (uint16_t)(pclk1 / (I2C_InitStruct->I2C_ClockSpeed * 25));
     72a:	4665                	li	a2,25
     72c:	02c686b3          	mul	a3,a3,a2
     730:	02d7d7b3          	divu	a5,a5,a3
            result |= I2C_DutyCycle_16_9;
     734:	6691                	lui	a3,0x4
     736:	8fd5                	or	a5,a5,a3
     738:	bfc9                	j	70a <I2C_Init+0x98>

0000073a <I2C_Cmd>:
 */
void I2C_Cmd(I2C_TypeDef *I2Cx, FunctionalState NewState)
{
    if(NewState != DISABLE)
    {
        I2Cx->CTLR1 |= CTLR1_PE_Set;
     73a:	211e                	.insn	2, 0x211e
    if(NewState != DISABLE)
     73c:	c589                	beqz	a1,746 <I2C_Cmd+0xc>
        I2Cx->CTLR1 |= CTLR1_PE_Set;
     73e:	0017e793          	ori	a5,a5,1
    }
    else
    {
        I2Cx->CTLR1 &= CTLR1_PE_Reset;
     742:	a11e                	.insn	2, 0xa11e
    }
}
     744:	8082                	ret
        I2Cx->CTLR1 &= CTLR1_PE_Reset;
     746:	6741                	lui	a4,0x10
     748:	1779                	addi	a4,a4,-2 # fffe <_data_lma+0xe10e>
     74a:	8ff9                	and	a5,a5,a4
     74c:	bfdd                	j	742 <I2C_Cmd+0x8>

0000074e <RCC_GetClocksFreq>:
#ifdef CH32V30x_D8C
    uint8_t Pll2mull = 0;

#endif

    tmp = RCC->CFGR0 & CFGR0_SWS_Mask;
     74e:	40021737          	lui	a4,0x40021
     752:	4354                	lw	a3,4(a4)

    switch(tmp)
     754:	007a17b7          	lui	a5,0x7a1
     758:	4621                	li	a2,8
    tmp = RCC->CFGR0 & CFGR0_SWS_Mask;
     75a:	8ab1                	andi	a3,a3,12
    switch(tmp)
     75c:	20078793          	addi	a5,a5,512 # 7a1200 <_data_lma+0x79f310>
     760:	04c69463          	bne	a3,a2,7a8 <RCC_GetClocksFreq+0x5a>
        case 0x04:
            RCC_Clocks->SYSCLK_Frequency = HSE_VALUE;
            break;

        case 0x08:
            pllmull = RCC->CFGR0 & CFGR0_PLLMull_Mask;
     764:	435c                	lw	a5,4(a4)
            pllsource = RCC->CFGR0 & CFGR0_PLLSRC_Mask;
     766:	4358                	lw	a4,4(a4)
     768:	66c1                	lui	a3,0x10

            pllmull = (pllmull >> 18) + 2;
     76a:	83c9                	srli	a5,a5,0x12
            pllsource = RCC->CFGR0 & CFGR0_PLLSRC_Mask;
     76c:	8f75                	and	a4,a4,a3

            if(((*(uint32_t *)0x1FFFF70C) & (1 << 14)) != (1 << 14))
     76e:	1ffff6b7          	lui	a3,0x1ffff
     772:	70c6a683          	lw	a3,1804(a3) # 1ffff70c <_data_lma+0x1fffd81c>
            pllmull = (pllmull >> 18) + 2;
     776:	8bbd                	andi	a5,a5,15
     778:	0789                	addi	a5,a5,2
            if(((*(uint32_t *)0x1FFFF70C) & (1 << 14)) != (1 << 14))
     77a:	01169613          	slli	a2,a3,0x11
     77e:	06064e63          	bltz	a2,7fa <RCC_GetClocksFreq+0xac>
            { /* for other CH32V30x */
                if(pllmull == 17)
     782:	46c5                	li	a3,17
    uint8_t Pll_6_5 = 0;
     784:	4601                	li	a2,0
                if(pllmull == 17)
     786:	08d78963          	beq	a5,a3,818 <__stack_size+0x18>
                    pllmull = 15;
                if(pllmull == 17)
                    pllmull = 16;
            }

            if(pllsource == 0x00)
     78a:	e745                	bnez	a4,832 <__stack_size+0x32>
            {
                if(EXTEN->EXTEN_CTR & EXTEN_PLL_HSI_PRE)
     78c:	40024737          	lui	a4,0x40024
     790:	80072703          	lw	a4,-2048(a4) # 40023800 <_eusrstack+0x2001b800>
     794:	8b41                	andi	a4,a4,16
     796:	cb49                	beqz	a4,828 <__stack_size+0x28>
                {
                    RCC_Clocks->SYSCLK_Frequency = (HSI_VALUE)*pllmull;
     798:	007a1737          	lui	a4,0x7a1
     79c:	20070713          	addi	a4,a4,512 # 7a1200 <_data_lma+0x79f310>
                }
                else{/* HSE */
                    RCC_Clocks->SYSCLK_Frequency = HSE_VALUE/((RCC->CFGR2 & 0xF) + 1);  /* PREDIV1 */
                }

                RCC_Clocks->SYSCLK_Frequency = RCC_Clocks->SYSCLK_Frequency * pllmull;
     7a0:	02e787b3          	mul	a5,a5,a4

#endif
            }

            if(Pll_6_5 == 1)
     7a4:	c211                	beqz	a2,7a8 <RCC_GetClocksFreq+0x5a>
                RCC_Clocks->SYSCLK_Frequency = (RCC_Clocks->SYSCLK_Frequency / 2);
     7a6:	8385                	srli	a5,a5,0x1
            RCC_Clocks->SYSCLK_Frequency = HSI_VALUE;
     7a8:	c11c                	sw	a5,0(a0)
        default:
            RCC_Clocks->SYSCLK_Frequency = HSI_VALUE;
            break;
    }

    tmp = RCC->CFGR0 & CFGR0_HPRE_Set_Mask;
     7aa:	40021637          	lui	a2,0x40021
     7ae:	4254                	lw	a3,4(a2)
    tmp = tmp >> 4;
    presc = APBAHBPrescTable[tmp];
     7b0:	6709                	lui	a4,0x2
     7b2:	e7870713          	addi	a4,a4,-392 # 1e78 <APBAHBPrescTable>
    tmp = tmp >> 4;
     7b6:	8291                	srli	a3,a3,0x4
     7b8:	8abd                	andi	a3,a3,15
    presc = APBAHBPrescTable[tmp];
     7ba:	96ba                	add	a3,a3,a4
     7bc:	2294                	.insn	2, 0x2294
    RCC_Clocks->HCLK_Frequency = RCC_Clocks->SYSCLK_Frequency >> presc;
     7be:	00d7d7b3          	srl	a5,a5,a3
     7c2:	c15c                	sw	a5,4(a0)
    tmp = RCC->CFGR0 & CFGR0_PPRE1_Set_Mask;
     7c4:	4254                	lw	a3,4(a2)
    tmp = tmp >> 8;
     7c6:	82a1                	srli	a3,a3,0x8
     7c8:	8a9d                	andi	a3,a3,7
    presc = APBAHBPrescTable[tmp];
     7ca:	96ba                	add	a3,a3,a4
     7cc:	2294                	.insn	2, 0x2294
    RCC_Clocks->PCLK1_Frequency = RCC_Clocks->HCLK_Frequency >> presc;
     7ce:	00d7d6b3          	srl	a3,a5,a3
     7d2:	c514                	sw	a3,8(a0)
    tmp = RCC->CFGR0 & CFGR0_PPRE2_Set_Mask;
     7d4:	4254                	lw	a3,4(a2)
    tmp = tmp >> 11;
     7d6:	82ad                	srli	a3,a3,0xb
     7d8:	8a9d                	andi	a3,a3,7
    presc = APBAHBPrescTable[tmp];
     7da:	9736                	add	a4,a4,a3
     7dc:	2318                	.insn	2, 0x2318
    RCC_Clocks->PCLK2_Frequency = RCC_Clocks->HCLK_Frequency >> presc;
    tmp = RCC->CFGR0 & CFGR0_ADCPRE_Set_Mask;
    tmp = tmp >> 14;
    presc = ADCPrescTable[tmp];
     7de:	81018693          	addi	a3,gp,-2032 # 20000068 <ADCPrescTable>
    RCC_Clocks->PCLK2_Frequency = RCC_Clocks->HCLK_Frequency >> presc;
     7e2:	00e7d7b3          	srl	a5,a5,a4
     7e6:	c55c                	sw	a5,12(a0)
    tmp = RCC->CFGR0 & CFGR0_ADCPRE_Set_Mask;
     7e8:	4258                	lw	a4,4(a2)
    tmp = tmp >> 14;
     7ea:	8339                	srli	a4,a4,0xe
     7ec:	8b0d                	andi	a4,a4,3
    presc = ADCPrescTable[tmp];
     7ee:	9736                	add	a4,a4,a3
     7f0:	2318                	.insn	2, 0x2318
    RCC_Clocks->ADCCLK_Frequency = RCC_Clocks->PCLK2_Frequency / presc;
     7f2:	02e7d7b3          	divu	a5,a5,a4
     7f6:	c91c                	sw	a5,16(a0)
}
     7f8:	8082                	ret
                if(pllmull == 2)
     7fa:	4689                	li	a3,2
     7fc:	00d78d63          	beq	a5,a3,816 <__stack_size+0x16>
                if(pllmull == 15)
     800:	45bd                	li	a1,15
     802:	00b78d63          	beq	a5,a1,81c <__stack_size+0x1c>
                if(pllmull == 16)
     806:	46c1                	li	a3,16
     808:	00d78d63          	beq	a5,a3,822 <__stack_size+0x22>
                if(pllmull == 17)
     80c:	00f6f363          	bgeu	a3,a5,812 <__stack_size+0x12>
     810:	87b6                	mv	a5,a3
     812:	4601                	li	a2,0
     814:	bf9d                	j	78a <RCC_GetClocksFreq+0x3c>
    uint8_t Pll_6_5 = 0;
     816:	4601                	li	a2,0
                    pllmull = 18;
     818:	47c9                	li	a5,18
     81a:	bf85                	j	78a <RCC_GetClocksFreq+0x3c>
                    Pll_6_5 = 1;
     81c:	4605                	li	a2,1
                    pllmull = 13; /* *6.5 */
     81e:	47b5                	li	a5,13
     820:	b7ad                	j	78a <RCC_GetClocksFreq+0x3c>
     822:	4601                	li	a2,0
                    pllmull = 15;
     824:	87ae                	mv	a5,a1
     826:	b795                	j	78a <RCC_GetClocksFreq+0x3c>
                    RCC_Clocks->SYSCLK_Frequency = (HSI_VALUE >> 1) * pllmull;
     828:	003d1737          	lui	a4,0x3d1
     82c:	90070713          	addi	a4,a4,-1792 # 3d0900 <_data_lma+0x3cea10>
     830:	bf85                	j	7a0 <RCC_GetClocksFreq+0x52>
                if(RCC->CFGR2 & (1<<16)){ /* PLL2 */
     832:	400215b7          	lui	a1,0x40021
     836:	55d8                	lw	a4,44(a1)
     838:	00f71693          	slli	a3,a4,0xf
     83c:	0406da63          	bgez	a3,890 <__stack_size+0x90>
                    RCC_Clocks->SYSCLK_Frequency = HSE_VALUE/(((RCC->CFGR2 & 0xF0)>>4) + 1);  /* PREDIV2 */
     840:	55d4                	lw	a3,44(a1)
     842:	007a1737          	lui	a4,0x7a1
     846:	20070713          	addi	a4,a4,512 # 7a1200 <_data_lma+0x79f310>
     84a:	8291                	srli	a3,a3,0x4
     84c:	8abd                	andi	a3,a3,15
     84e:	0685                	addi	a3,a3,1
     850:	02d75733          	divu	a4,a4,a3
                    Pll2mull = (uint8_t)((RCC->CFGR2 & 0xF00)>>8);
     854:	55d4                	lw	a3,44(a1)
     856:	82a1                	srli	a3,a3,0x8
     858:	8abd                	andi	a3,a3,15
                    if(Pll2mull == 0) RCC_Clocks->SYSCLK_Frequency = (RCC_Clocks->SYSCLK_Frequency * 5)>>1;
     85a:	ee89                	bnez	a3,874 <__stack_size+0x74>
     85c:	4695                	li	a3,5
                    else if(Pll2mull == 1) RCC_Clocks->SYSCLK_Frequency = (RCC_Clocks->SYSCLK_Frequency * 25)>>1;
     85e:	02d70733          	mul	a4,a4,a3
     862:	8305                	srli	a4,a4,0x1
                    RCC_Clocks->SYSCLK_Frequency = RCC_Clocks->SYSCLK_Frequency/((RCC->CFGR2 & 0xF) + 1);  /* PREDIV1 */
     864:	400216b7          	lui	a3,0x40021
     868:	56d4                	lw	a3,44(a3)
     86a:	8abd                	andi	a3,a3,15
     86c:	0685                	addi	a3,a3,1 # 40021001 <_eusrstack+0x20019001>
                    RCC_Clocks->SYSCLK_Frequency = HSE_VALUE/((RCC->CFGR2 & 0xF) + 1);  /* PREDIV1 */
     86e:	02d75733          	divu	a4,a4,a3
     872:	b73d                	j	7a0 <RCC_GetClocksFreq+0x52>
                    else if(Pll2mull == 1) RCC_Clocks->SYSCLK_Frequency = (RCC_Clocks->SYSCLK_Frequency * 25)>>1;
     874:	4585                	li	a1,1
     876:	00b69463          	bne	a3,a1,87e <__stack_size+0x7e>
     87a:	46e5                	li	a3,25
     87c:	b7cd                	j	85e <__stack_size+0x5e>
                    else if(Pll2mull == 15) RCC_Clocks->SYSCLK_Frequency = RCC_Clocks->SYSCLK_Frequency * 20;
     87e:	45bd                	li	a1,15
     880:	00b69663          	bne	a3,a1,88c <__stack_size+0x8c>
     884:	46d1                	li	a3,20
                    else  RCC_Clocks->SYSCLK_Frequency = RCC_Clocks->SYSCLK_Frequency * (Pll2mull + 2);
     886:	02e68733          	mul	a4,a3,a4
     88a:	bfe9                	j	864 <__stack_size+0x64>
     88c:	0689                	addi	a3,a3,2
     88e:	bfe5                	j	886 <__stack_size+0x86>
                    RCC_Clocks->SYSCLK_Frequency = HSE_VALUE/((RCC->CFGR2 & 0xF) + 1);  /* PREDIV1 */
     890:	55d4                	lw	a3,44(a1)
     892:	007a1737          	lui	a4,0x7a1
     896:	20070713          	addi	a4,a4,512 # 7a1200 <_data_lma+0x79f310>
     89a:	8abd                	andi	a3,a3,15
     89c:	0685                	addi	a3,a3,1
     89e:	bfc1                	j	86e <__stack_size+0x6e>

000008a0 <RCC_APB2PeriphClockCmd>:
 *
 * @return  none
 */
void RCC_APB2PeriphClockCmd(uint32_t RCC_APB2Periph, FunctionalState NewState)
{
    if(NewState != DISABLE)
     8a0:	400217b7          	lui	a5,0x40021
    {
        RCC->APB2PCENR |= RCC_APB2Periph;
     8a4:	4f98                	lw	a4,24(a5)
    if(NewState != DISABLE)
     8a6:	c581                	beqz	a1,8ae <RCC_APB2PeriphClockCmd+0xe>
        RCC->APB2PCENR |= RCC_APB2Periph;
     8a8:	8f49                	or	a4,a4,a0
     8aa:	cf98                	sw	a4,24(a5)
     8ac:	8082                	ret
    }
    else
    {
        RCC->APB2PCENR &= ~RCC_APB2Periph;
     8ae:	fff54513          	not	a0,a0
     8b2:	8d79                	and	a0,a0,a4
     8b4:	cf88                	sw	a0,24(a5)
    }
}
     8b6:	8082                	ret

000008b8 <RCC_APB1PeriphClockCmd>:
 *
 * @return  none
 */
void RCC_APB1PeriphClockCmd(uint32_t RCC_APB1Periph, FunctionalState NewState)
{
    if(NewState != DISABLE)
     8b8:	400217b7          	lui	a5,0x40021
    {
        RCC->APB1PCENR |= RCC_APB1Periph;
     8bc:	4fd8                	lw	a4,28(a5)
    if(NewState != DISABLE)
     8be:	c581                	beqz	a1,8c6 <RCC_APB1PeriphClockCmd+0xe>
        RCC->APB1PCENR |= RCC_APB1Periph;
     8c0:	8f49                	or	a4,a4,a0
     8c2:	cfd8                	sw	a4,28(a5)
     8c4:	8082                	ret
    }
    else
    {
        RCC->APB1PCENR &= ~RCC_APB1Periph;
     8c6:	fff54513          	not	a0,a0
     8ca:	8d79                	and	a0,a0,a4
     8cc:	cfc8                	sw	a0,28(a5)
    }
}
     8ce:	8082                	ret

000008d0 <SystemInit>:
 *
 * @return  none
 */
void SystemInit (void)
{
  RCC->CTLR |= (uint32_t)0x00000001;
     8d0:	400217b7          	lui	a5,0x40021
     8d4:	4398                	lw	a4,0(a5)
{
     8d6:	1141                	addi	sp,sp,-16

#ifdef CH32V30x_D8C
  RCC->CFGR0 &= (uint32_t)0xF8FF0000;
     8d8:	f8ff06b7          	lui	a3,0xf8ff0
  RCC->CTLR |= (uint32_t)0x00000001;
     8dc:	00176713          	ori	a4,a4,1
     8e0:	c398                	sw	a4,0(a5)
  RCC->CFGR0 &= (uint32_t)0xF8FF0000;
     8e2:	43d8                	lw	a4,4(a5)
  RCC->CTLR |= ((uint32_t)RCC_HSEON);

  /* Wait till HSE is ready and if Time out is reached exit */
  do
  {
    HSEStatus = RCC->CTLR & RCC_HSERDY;
     8e4:	00020637          	lui	a2,0x20
  RCC->CFGR0 &= (uint32_t)0xF8FF0000;
     8e8:	8f75                	and	a4,a4,a3
     8ea:	c3d8                	sw	a4,4(a5)
  RCC->CTLR &= (uint32_t)0xFEF6FFFF;
     8ec:	4398                	lw	a4,0(a5)
     8ee:	fef706b7          	lui	a3,0xfef70
     8f2:	16fd                	addi	a3,a3,-1 # fef6ffff <_eusrstack+0xdef67fff>
     8f4:	8f75                	and	a4,a4,a3
     8f6:	c398                	sw	a4,0(a5)
  RCC->CTLR &= (uint32_t)0xFFFBFFFF;
     8f8:	4398                	lw	a4,0(a5)
     8fa:	fffc06b7          	lui	a3,0xfffc0
     8fe:	16fd                	addi	a3,a3,-1 # fffbffff <_eusrstack+0xdffb7fff>
     900:	8f75                	and	a4,a4,a3
     902:	c398                	sw	a4,0(a5)
  RCC->CFGR0 &= (uint32_t)0xFF80FFFF;
     904:	43d8                	lw	a4,4(a5)
     906:	ff8106b7          	lui	a3,0xff810
     90a:	16fd                	addi	a3,a3,-1 # ff80ffff <_eusrstack+0xdf807fff>
     90c:	8f75                	and	a4,a4,a3
     90e:	c3d8                	sw	a4,4(a5)
  RCC->CTLR &= (uint32_t)0xEBFFFFFF;
     910:	4398                	lw	a4,0(a5)
     912:	ec0006b7          	lui	a3,0xec000
     916:	16fd                	addi	a3,a3,-1 # ebffffff <_eusrstack+0xcbff7fff>
     918:	8f75                	and	a4,a4,a3
     91a:	c398                	sw	a4,0(a5)
  RCC->INTR = 0x00FF0000;
     91c:	00ff0737          	lui	a4,0xff0
     920:	c798                	sw	a4,8(a5)
  RCC->CFGR2 = 0x00000000;
     922:	0207a623          	sw	zero,44(a5) # 4002102c <_eusrstack+0x2001902c>
  __IO uint32_t StartUpCounter = 0, HSEStatus = 0;
     926:	c402                	sw	zero,8(sp)
     928:	c602                	sw	zero,12(sp)
  RCC->CTLR |= ((uint32_t)RCC_HSEON);
     92a:	4398                	lw	a4,0(a5)
     92c:	66c1                	lui	a3,0x10
     92e:	8f55                	or	a4,a4,a3
     930:	c398                	sw	a4,0(a5)
    StartUpCounter++;
  } while((HSEStatus == 0) && (StartUpCounter != HSE_STARTUP_TIMEOUT));
     932:	6685                	lui	a3,0x1
    HSEStatus = RCC->CTLR & RCC_HSERDY;
     934:	4398                	lw	a4,0(a5)
     936:	8f71                	and	a4,a4,a2
     938:	c63a                	sw	a4,12(sp)
    StartUpCounter++;
     93a:	4722                	lw	a4,8(sp)
     93c:	0705                	addi	a4,a4,1 # ff0001 <_data_lma+0xfee111>
     93e:	c43a                	sw	a4,8(sp)
  } while((HSEStatus == 0) && (StartUpCounter != HSE_STARTUP_TIMEOUT));
     940:	4732                	lw	a4,12(sp)
     942:	e701                	bnez	a4,94a <SystemInit+0x7a>
     944:	4722                	lw	a4,8(sp)
     946:	fed717e3          	bne	a4,a3,934 <SystemInit+0x64>

  if ((RCC->CTLR & RCC_HSERDY) != RESET)
     94a:	4398                	lw	a4,0(a5)
     94c:	4785                	li	a5,1
     94e:	00e71693          	slli	a3,a4,0xe
     952:	0606d563          	bgez	a3,9bc <SystemInit+0xec>
  {
    HSEStatus = (uint32_t)0x01;
     956:	c63e                	sw	a5,12(sp)
  else
  {
    HSEStatus = (uint32_t)0x00;
  }

  if (HSEStatus == (uint32_t)0x01)
     958:	4732                	lw	a4,12(sp)
     95a:	04f71f63          	bne	a4,a5,9b8 <SystemInit+0xe8>
  {
    /* HCLK = SYSCLK */
    RCC->CFGR0 |= (uint32_t)RCC_HPRE_DIV1;
     95e:	400217b7          	lui	a5,0x40021
     962:	43d8                	lw	a4,4(a5)
    RCC->CFGR0 |= (uint32_t)RCC_PPRE2_DIV1;
    /* PCLK1 = HCLK */
    RCC->CFGR0 |= (uint32_t)RCC_PPRE1_DIV2;

    /*  PLL configuration: PLLCLK = HSE * 12 = 96 MHz */
    RCC->CFGR0 &= (uint32_t)((uint32_t)~(RCC_PLLSRC | RCC_PLLXTPRE |
     964:	ffc106b7          	lui	a3,0xffc10
     968:	16fd                	addi	a3,a3,-1 # ffc0ffff <_eusrstack+0xdfc07fff>
    RCC->CFGR0 |= (uint32_t)RCC_HPRE_DIV1;
     96a:	c3d8                	sw	a4,4(a5)
    RCC->CFGR0 |= (uint32_t)RCC_PPRE2_DIV1;
     96c:	43d8                	lw	a4,4(a5)
     96e:	c3d8                	sw	a4,4(a5)
    RCC->CFGR0 |= (uint32_t)RCC_PPRE1_DIV2;
     970:	43d8                	lw	a4,4(a5)
     972:	40076713          	ori	a4,a4,1024
     976:	c3d8                	sw	a4,4(a5)
    RCC->CFGR0 &= (uint32_t)((uint32_t)~(RCC_PLLSRC | RCC_PLLXTPRE |
     978:	43d8                	lw	a4,4(a5)
     97a:	8f75                	and	a4,a4,a3
     97c:	c3d8                	sw	a4,4(a5)
                                        RCC_PLLMULL));

#ifdef CH32V30x_D8
        RCC->CFGR0 |= (uint32_t)(RCC_PLLSRC_HSE | RCC_PLLXTPRE_HSE | RCC_PLLMULL12);
#else
        RCC->CFGR0 |= (uint32_t)(RCC_PLLSRC_HSE | RCC_PLLXTPRE_HSE | RCC_PLLMULL12_EXTEN);
     97e:	43d8                	lw	a4,4(a5)
     980:	002906b7          	lui	a3,0x290
     984:	8f55                	or	a4,a4,a3
     986:	c3d8                	sw	a4,4(a5)
#endif

    /* Enable PLL */
    RCC->CTLR |= RCC_PLLON;
     988:	4398                	lw	a4,0(a5)
     98a:	010006b7          	lui	a3,0x1000
     98e:	8f55                	or	a4,a4,a3
     990:	c398                	sw	a4,0(a5)
    /* Wait till PLL is ready */
    while((RCC->CTLR & RCC_PLLRDY) == 0)
     992:	4398                	lw	a4,0(a5)
     994:	00671693          	slli	a3,a4,0x6
     998:	fe06dde3          	bgez	a3,992 <SystemInit+0xc2>
    {
    }
    /* Select PLL as system clock source */
    RCC->CFGR0 &= (uint32_t)((uint32_t)~(RCC_SW));
     99c:	43d8                	lw	a4,4(a5)
    RCC->CFGR0 |= (uint32_t)RCC_SW_PLL;
    /* Wait till PLL is used as system clock source */
    while ((RCC->CFGR0 & (uint32_t)RCC_SWS) != (uint32_t)0x08)
     99e:	400216b7          	lui	a3,0x40021
    RCC->CFGR0 &= (uint32_t)((uint32_t)~(RCC_SW));
     9a2:	9b71                	andi	a4,a4,-4
     9a4:	c3d8                	sw	a4,4(a5)
    RCC->CFGR0 |= (uint32_t)RCC_SW_PLL;
     9a6:	43d8                	lw	a4,4(a5)
     9a8:	00276713          	ori	a4,a4,2
     9ac:	c3d8                	sw	a4,4(a5)
    while ((RCC->CFGR0 & (uint32_t)RCC_SWS) != (uint32_t)0x08)
     9ae:	4721                	li	a4,8
     9b0:	42dc                	lw	a5,4(a3)
     9b2:	8bb1                	andi	a5,a5,12
     9b4:	fee79ee3          	bne	a5,a4,9b0 <SystemInit+0xe0>
}
     9b8:	0141                	addi	sp,sp,16
     9ba:	8082                	ret
    HSEStatus = (uint32_t)0x00;
     9bc:	c602                	sw	zero,12(sp)
     9be:	bf69                	j	958 <SystemInit+0x88>

000009c0 <SystemCoreClockUpdate>:
  tmp = RCC->CFGR0 & RCC_SWS;
     9c0:	40021737          	lui	a4,0x40021
     9c4:	4354                	lw	a3,4(a4)
  switch (tmp)
     9c6:	007a17b7          	lui	a5,0x7a1
     9ca:	4621                	li	a2,8
  tmp = RCC->CFGR0 & RCC_SWS;
     9cc:	8ab1                	andi	a3,a3,12
  switch (tmp)
     9ce:	20078793          	addi	a5,a5,512 # 7a1200 <_data_lma+0x79f310>
     9d2:	06c69763          	bne	a3,a2,a40 <SystemCoreClockUpdate+0x80>
      pllmull = RCC->CFGR0 & RCC_PLLMULL;
     9d6:	435c                	lw	a5,4(a4)
      pllsource = RCC->CFGR0 & RCC_PLLSRC; 
     9d8:	4354                	lw	a3,4(a4)
     9da:	6741                	lui	a4,0x10
      pllmull = ( pllmull >> 18) + 2;
     9dc:	83c9                	srli	a5,a5,0x12
     9de:	8bbd                	andi	a5,a5,15
      pllsource = RCC->CFGR0 & RCC_PLLSRC; 
     9e0:	8ef9                	and	a3,a3,a4
          if(pllmull == 2) pllmull = 18;
     9e2:	00278613          	addi	a2,a5,2
     9e6:	cf89                	beqz	a5,a00 <SystemCoreClockUpdate+0x40>
          if(pllmull == 15){
     9e8:	47bd                	li	a5,15
     9ea:	02f60963          	beq	a2,a5,a1c <SystemCoreClockUpdate+0x5c>
          if(pllmull == 16) pllmull = 15;
     9ee:	4741                	li	a4,16
     9f0:	00e60663          	beq	a2,a4,9fc <SystemCoreClockUpdate+0x3c>
          if(pllmull == 17) pllmull = 16;
     9f4:	87b2                	mv	a5,a2
     9f6:	00c77363          	bgeu	a4,a2,9fc <SystemCoreClockUpdate+0x3c>
     9fa:	87ba                	mv	a5,a4
     9fc:	4701                	li	a4,0
     9fe:	a019                	j	a04 <SystemCoreClockUpdate+0x44>
     a00:	4701                	li	a4,0
          if(pllmull == 2) pllmull = 18;
     a02:	47c9                	li	a5,18
      if (pllsource == 0x00)
     a04:	ee99                	bnez	a3,a22 <SystemCoreClockUpdate+0x62>
          if(EXTEN->EXTEN_CTR & EXTEN_PLL_HSI_PRE){
     a06:	400246b7          	lui	a3,0x40024
     a0a:	8006a683          	lw	a3,-2048(a3) # 40023800 <_eusrstack+0x2001b800>
     a0e:	8ac1                	andi	a3,a3,16
     a10:	c285                	beqz	a3,a30 <SystemCoreClockUpdate+0x70>
          SystemCoreClock = HSE_VALUE * pllmull;
     a12:	007a16b7          	lui	a3,0x7a1
     a16:	20068693          	addi	a3,a3,512 # 7a1200 <_data_lma+0x79f310>
     a1a:	a839                	j	a38 <SystemCoreClockUpdate+0x78>
              Pll_6_5 = 1;
     a1c:	4705                	li	a4,1
              pllmull = 13;  /* *6.5 */
     a1e:	47b5                	li	a5,13
     a20:	b7d5                	j	a04 <SystemCoreClockUpdate+0x44>
        if ((RCC->CFGR0 & RCC_PLLXTPRE) != (uint32_t)RESET)
     a22:	400216b7          	lui	a3,0x40021
     a26:	42d4                	lw	a3,4(a3)
     a28:	00e69613          	slli	a2,a3,0xe
     a2c:	fe0653e3          	bgez	a2,a12 <SystemCoreClockUpdate+0x52>
          SystemCoreClock = (HSE_VALUE >> 1) * pllmull;
     a30:	003d16b7          	lui	a3,0x3d1
     a34:	90068693          	addi	a3,a3,-1792 # 3d0900 <_data_lma+0x3cea10>
          SystemCoreClock = HSE_VALUE * pllmull;
     a38:	02d787b3          	mul	a5,a5,a3
      if(Pll_6_5 == 1) SystemCoreClock = (SystemCoreClock / 2);
     a3c:	c311                	beqz	a4,a40 <SystemCoreClockUpdate+0x80>
     a3e:	8385                	srli	a5,a5,0x1
      SystemCoreClock = HSI_VALUE;
     a40:	20000637          	lui	a2,0x20000
     a44:	04f62c23          	sw	a5,88(a2) # 20000058 <SystemCoreClock>
  tmp = AHBPrescTable[((RCC->CFGR0 & RCC_HPRE) >> 4)];
     a48:	40021737          	lui	a4,0x40021
     a4c:	4354                	lw	a3,4(a4)
     a4e:	6709                	lui	a4,0x2
     a50:	e8870713          	addi	a4,a4,-376 # 1e88 <AHBPrescTable>
     a54:	8291                	srli	a3,a3,0x4
     a56:	8abd                	andi	a3,a3,15
     a58:	9736                	add	a4,a4,a3
     a5a:	2318                	.insn	2, 0x2318
  SystemCoreClock >>= tmp;  
     a5c:	00e7d7b3          	srl	a5,a5,a4
     a60:	04f62c23          	sw	a5,88(a2)
}
     a64:	8082                	ret

00000a66 <Delay_Init>:
 *
 * @return  none
 */
void Delay_Init(void)
{
    p_us = SystemCoreClock / 8000000;
     a66:	200007b7          	lui	a5,0x20000
     a6a:	0587a783          	lw	a5,88(a5) # 20000058 <SystemCoreClock>
     a6e:	007a1737          	lui	a4,0x7a1
     a72:	20070713          	addi	a4,a4,512 # 7a1200 <_data_lma+0x79f310>
     a76:	02e7d7b3          	divu	a5,a5,a4
     a7a:	0ff7f793          	zext.b	a5,a5
     a7e:	80f18d23          	sb	a5,-2022(gp) # 20000072 <p_us>
    p_ms = (uint16_t)p_us * 1000;
     a82:	3e800713          	li	a4,1000
     a86:	02e787b3          	mul	a5,a5,a4
     a8a:	80f19c23          	sh	a5,-2024(gp) # 20000070 <p_ms>
}
     a8e:	8082                	ret

00000a90 <USART_Printf_Init>:
 * @param   baudrate - USART communication baud rate.
 *
 * @return  None
 */
void USART_Printf_Init(uint32_t baudrate)
{
     a90:	fa4ff2ef          	jal	t0,234 <__riscv_save_0>
     a94:	842a                	mv	s0,a0
    GPIO_InitTypeDef  GPIO_InitStructure;
    USART_InitTypeDef USART_InitStructure;

#if(DEBUG == DEBUG_UART1)
    RCC_APB2PeriphClockCmd(RCC_APB2Periph_USART1 | RCC_APB2Periph_GPIOA, ENABLE);
     a96:	6511                	lui	a0,0x4
{
     a98:	1101                	addi	sp,sp,-32
    RCC_APB2PeriphClockCmd(RCC_APB2Periph_USART1 | RCC_APB2Periph_GPIOA, ENABLE);
     a9a:	4585                	li	a1,1
     a9c:	0511                	addi	a0,a0,4 # 4004 <_data_lma+0x2114>
     a9e:	3509                	jal	8a0 <RCC_APB2PeriphClockCmd>

    GPIO_InitStructure.GPIO_Pin = GPIO_Pin_9;
     aa0:	20000793          	li	a5,512
     aa4:	827c                	.insn	2, 0x827c
    GPIO_InitStructure.GPIO_Speed = GPIO_Speed_50MHz;
    GPIO_InitStructure.GPIO_Mode = GPIO_Mode_AF_PP;
    GPIO_Init(GPIOA, &GPIO_InitStructure);
     aa6:	40011537          	lui	a0,0x40011
    GPIO_InitStructure.GPIO_Speed = GPIO_Speed_50MHz;
     aaa:	478d                	li	a5,3
     aac:	c43e                	sw	a5,8(sp)
    GPIO_Init(GPIOA, &GPIO_InitStructure);
     aae:	004c                	addi	a1,sp,4
    GPIO_InitStructure.GPIO_Mode = GPIO_Mode_AF_PP;
     ab0:	47e1                	li	a5,24
    GPIO_Init(GPIOA, &GPIO_InitStructure);
     ab2:	80050513          	addi	a0,a0,-2048 # 40010800 <_eusrstack+0x20008800>
    GPIO_InitStructure.GPIO_Mode = GPIO_Mode_AF_PP;
     ab6:	c63e                	sw	a5,12(sp)
    GPIO_Init(GPIOA, &GPIO_InitStructure);
     ab8:	34b9                	jal	506 <GPIO_Init>
    USART_InitStructure.USART_Parity = USART_Parity_No;
    USART_InitStructure.USART_HardwareFlowControl = USART_HardwareFlowControl_None;
    USART_InitStructure.USART_Mode = USART_Mode_Tx;

#if(DEBUG == DEBUG_UART1)
    USART_Init(USART1, &USART_InitStructure);
     aba:	40014537          	lui	a0,0x40014
    USART_InitStructure.USART_Parity = USART_Parity_No;
     abe:	000807b7          	lui	a5,0x80
    USART_Init(USART1, &USART_InitStructure);
     ac2:	080c                	addi	a1,sp,16
     ac4:	80050513          	addi	a0,a0,-2048 # 40013800 <_eusrstack+0x2000b800>
    USART_InitStructure.USART_Parity = USART_Parity_No;
     ac8:	cc3e                	sw	a5,24(sp)
    USART_InitStructure.USART_BaudRate = baudrate;
     aca:	c822                	sw	s0,16(sp)
    USART_InitStructure.USART_WordLength = USART_WordLength_8b;
     acc:	ca02                	sw	zero,20(sp)
    USART_InitStructure.USART_HardwareFlowControl = USART_HardwareFlowControl_None;
     ace:	00011e23          	sh	zero,28(sp)
    USART_Init(USART1, &USART_InitStructure);
     ad2:	2af9                	jal	cb0 <USART_Init>
    USART_Cmd(USART1, ENABLE);
     ad4:	40014537          	lui	a0,0x40014
     ad8:	4585                	li	a1,1
     ada:	80050513          	addi	a0,a0,-2048 # 40013800 <_eusrstack+0x2000b800>
     ade:	2cbd                	jal	d5c <USART_Cmd>
#elif(DEBUG == DEBUG_UART3)
    USART_Init(USART3, &USART_InitStructure);
    USART_Cmd(USART3, ENABLE);

#endif
}
     ae0:	6105                	addi	sp,sp,32
     ae2:	f7aff06f          	j	25c <__riscv_restore_0>

00000ae6 <_write>:
 *          size - Data length
 *
 * @return  size: Data length
 */
__attribute__((used)) int _write(int fd, char *buf, int size)
{
     ae6:	f4eff2ef          	jal	t0,234 <__riscv_save_0>
     aea:	892e                	mv	s2,a1
     aec:	84b2                	mv	s1,a2
    int i;

    for(i = 0; i < size; i++)
     aee:	4401                	li	s0,0
     af0:	00944563          	blt	s0,s1,afa <_write+0x14>
        USART_SendData(USART3, *buf++);
#endif
    }

    return size;
}
     af4:	8526                	mv	a0,s1
     af6:	f66ff06f          	j	25c <__riscv_restore_0>
        while(USART_GetFlagStatus(USART1, USART_FLAG_TC) == RESET);
     afa:	40014537          	lui	a0,0x40014
     afe:	04000593          	li	a1,64
     b02:	80050513          	addi	a0,a0,-2048 # 40013800 <_eusrstack+0x2000b800>
     b06:	2c8d                	jal	d78 <USART_GetFlagStatus>
     b08:	d96d                	beqz	a0,afa <_write+0x14>
        USART_SendData(USART1, *buf++);
     b0a:	008907b3          	add	a5,s2,s0
     b0e:	00078583          	lb	a1,0(a5) # 80000 <_data_lma+0x7e110>
     b12:	40014537          	lui	a0,0x40014
     b16:	80050513          	addi	a0,a0,-2048 # 40013800 <_eusrstack+0x2000b800>
     b1a:	05c2                	slli	a1,a1,0x10
     b1c:	81c1                	srli	a1,a1,0x10
     b1e:	2c89                	jal	d70 <USART_SendData>
    for(i = 0; i < size; i++)
     b20:	0405                	addi	s0,s0,1
     b22:	b7f9                	j	af0 <_write+0xa>

00000b24 <_sbrk>:
{
    extern char _end[];
    extern char _heap_end[];
    static char *curbrk = _end;

    if ((curbrk + incr < _end) || (curbrk + incr > _heap_end))
     b24:	200006b7          	lui	a3,0x20000
{
     b28:	87aa                	mv	a5,a0
    if ((curbrk + incr < _end) || (curbrk + incr > _heap_end))
     b2a:	05c6a503          	lw	a0,92(a3) # 2000005c <curbrk.0>
     b2e:	20008737          	lui	a4,0x20008
     b32:	80070713          	addi	a4,a4,-2048 # 20007800 <_heap_end>
     b36:	97aa                	add	a5,a5,a0
     b38:	00f76b63          	bltu	a4,a5,b4e <_sbrk+0x2a>
     b3c:	20000737          	lui	a4,0x20000
     b40:	64c70713          	addi	a4,a4,1612 # 2000064c <_ebss>
     b44:	00e7e563          	bltu	a5,a4,b4e <_sbrk+0x2a>
    return NULL - 1;

    curbrk += incr;
     b48:	04f6ae23          	sw	a5,92(a3)
    return curbrk - incr;
     b4c:	8082                	ret
    return NULL - 1;
     b4e:	557d                	li	a0,-1
}
     b50:	8082                	ret

00000b52 <_fini>:

void _fini(){}
     b52:	8082                	ret

00000b54 <_init>:
void _init(){}
     b54:	8082                	ret

00000b56 <NMI_Handler>:
    .weak   DMA2_Channel8_IRQHandler   /* DMA2 Channel 8 */
    .weak   DMA2_Channel9_IRQHandler   /* DMA2 Channel 9 */
    .weak   DMA2_Channel10_IRQHandler  /* DMA2 Channel 10 */
    .weak   DMA2_Channel11_IRQHandler  /* DMA2 Channel 11 */

NMI_Handler:  1:  j 1b
     b56:	a001                	j	b56 <NMI_Handler>

00000b58 <HardFault_Handler>:
HardFault_Handler:  1:  j 1b
     b58:	a001                	j	b58 <HardFault_Handler>

00000b5a <Ecall_M_Mode_Handler>:
Ecall_M_Mode_Handler:  1:  j 1b
     b5a:	a001                	j	b5a <Ecall_M_Mode_Handler>

00000b5c <Ecall_U_Mode_Handler>:
Ecall_U_Mode_Handler:  1:  j 1b
     b5c:	a001                	j	b5c <Ecall_U_Mode_Handler>

00000b5e <Break_Point_Handler>:
Break_Point_Handler:  1:  j 1b
     b5e:	a001                	j	b5e <Break_Point_Handler>

00000b60 <SysTick_Handler>:
SysTick_Handler:  1:  j 1b
     b60:	a001                	j	b60 <SysTick_Handler>

00000b62 <SW_Handler>:
SW_Handler:  1:  j 1b
     b62:	a001                	j	b62 <SW_Handler>

00000b64 <WWDG_IRQHandler>:
WWDG_IRQHandler:  1:  j 1b
     b64:	a001                	j	b64 <WWDG_IRQHandler>

00000b66 <PVD_IRQHandler>:
PVD_IRQHandler:  1:  j 1b
     b66:	a001                	j	b66 <PVD_IRQHandler>

00000b68 <TAMPER_IRQHandler>:
TAMPER_IRQHandler:  1:  j 1b
     b68:	a001                	j	b68 <TAMPER_IRQHandler>

00000b6a <RTC_IRQHandler>:
RTC_IRQHandler:  1:  j 1b
     b6a:	a001                	j	b6a <RTC_IRQHandler>

00000b6c <FLASH_IRQHandler>:
FLASH_IRQHandler:  1:  j 1b
     b6c:	a001                	j	b6c <FLASH_IRQHandler>

00000b6e <RCC_IRQHandler>:
RCC_IRQHandler:  1:  j 1b
     b6e:	a001                	j	b6e <RCC_IRQHandler>

00000b70 <EXTI0_IRQHandler>:
EXTI0_IRQHandler:  1:  j 1b
     b70:	a001                	j	b70 <EXTI0_IRQHandler>

00000b72 <EXTI1_IRQHandler>:
EXTI1_IRQHandler:  1:  j 1b
     b72:	a001                	j	b72 <EXTI1_IRQHandler>

00000b74 <EXTI2_IRQHandler>:
EXTI2_IRQHandler:  1:  j 1b
     b74:	a001                	j	b74 <EXTI2_IRQHandler>

00000b76 <EXTI3_IRQHandler>:
EXTI3_IRQHandler:  1:  j 1b
     b76:	a001                	j	b76 <EXTI3_IRQHandler>

00000b78 <EXTI4_IRQHandler>:
EXTI4_IRQHandler:  1:  j 1b
     b78:	a001                	j	b78 <EXTI4_IRQHandler>

00000b7a <DMA1_Channel1_IRQHandler>:
DMA1_Channel1_IRQHandler:  1:  j 1b
     b7a:	a001                	j	b7a <DMA1_Channel1_IRQHandler>

00000b7c <DMA1_Channel2_IRQHandler>:
DMA1_Channel2_IRQHandler:  1:  j 1b
     b7c:	a001                	j	b7c <DMA1_Channel2_IRQHandler>

00000b7e <DMA1_Channel3_IRQHandler>:
DMA1_Channel3_IRQHandler:  1:  j 1b
     b7e:	a001                	j	b7e <DMA1_Channel3_IRQHandler>

00000b80 <DMA1_Channel4_IRQHandler>:
DMA1_Channel4_IRQHandler:  1:  j 1b
     b80:	a001                	j	b80 <DMA1_Channel4_IRQHandler>

00000b82 <DMA1_Channel5_IRQHandler>:
DMA1_Channel5_IRQHandler:  1:  j 1b
     b82:	a001                	j	b82 <DMA1_Channel5_IRQHandler>

00000b84 <DMA1_Channel6_IRQHandler>:
DMA1_Channel6_IRQHandler:  1:  j 1b
     b84:	a001                	j	b84 <DMA1_Channel6_IRQHandler>

00000b86 <DMA1_Channel7_IRQHandler>:
DMA1_Channel7_IRQHandler:  1:  j 1b
     b86:	a001                	j	b86 <DMA1_Channel7_IRQHandler>

00000b88 <ADC1_2_IRQHandler>:
ADC1_2_IRQHandler:  1:  j 1b
     b88:	a001                	j	b88 <ADC1_2_IRQHandler>

00000b8a <USB_HP_CAN1_TX_IRQHandler>:
USB_HP_CAN1_TX_IRQHandler:  1:  j 1b
     b8a:	a001                	j	b8a <USB_HP_CAN1_TX_IRQHandler>

00000b8c <USB_LP_CAN1_RX0_IRQHandler>:
USB_LP_CAN1_RX0_IRQHandler:  1:  j 1b
     b8c:	a001                	j	b8c <USB_LP_CAN1_RX0_IRQHandler>

00000b8e <CAN1_RX1_IRQHandler>:
CAN1_RX1_IRQHandler:  1:  j 1b
     b8e:	a001                	j	b8e <CAN1_RX1_IRQHandler>

00000b90 <CAN1_SCE_IRQHandler>:
CAN1_SCE_IRQHandler:  1:  j 1b
     b90:	a001                	j	b90 <CAN1_SCE_IRQHandler>

00000b92 <EXTI9_5_IRQHandler>:
EXTI9_5_IRQHandler:  1:  j 1b
     b92:	a001                	j	b92 <EXTI9_5_IRQHandler>

00000b94 <TIM1_BRK_IRQHandler>:
TIM1_BRK_IRQHandler:  1:  j 1b
     b94:	a001                	j	b94 <TIM1_BRK_IRQHandler>

00000b96 <TIM1_UP_IRQHandler>:
TIM1_UP_IRQHandler:  1:  j 1b
     b96:	a001                	j	b96 <TIM1_UP_IRQHandler>

00000b98 <TIM1_TRG_COM_IRQHandler>:
TIM1_TRG_COM_IRQHandler:  1:  j 1b
     b98:	a001                	j	b98 <TIM1_TRG_COM_IRQHandler>

00000b9a <TIM1_CC_IRQHandler>:
TIM1_CC_IRQHandler:  1:  j 1b
     b9a:	a001                	j	b9a <TIM1_CC_IRQHandler>

00000b9c <TIM2_IRQHandler>:
TIM2_IRQHandler:  1:  j 1b
     b9c:	a001                	j	b9c <TIM2_IRQHandler>

00000b9e <TIM3_IRQHandler>:
TIM3_IRQHandler:  1:  j 1b
     b9e:	a001                	j	b9e <TIM3_IRQHandler>

00000ba0 <TIM4_IRQHandler>:
TIM4_IRQHandler:  1:  j 1b
     ba0:	a001                	j	ba0 <TIM4_IRQHandler>

00000ba2 <I2C1_EV_IRQHandler>:
I2C1_EV_IRQHandler:  1:  j 1b
     ba2:	a001                	j	ba2 <I2C1_EV_IRQHandler>

00000ba4 <I2C1_ER_IRQHandler>:
I2C1_ER_IRQHandler:  1:  j 1b
     ba4:	a001                	j	ba4 <I2C1_ER_IRQHandler>

00000ba6 <I2C2_EV_IRQHandler>:
I2C2_EV_IRQHandler:  1:  j 1b
     ba6:	a001                	j	ba6 <I2C2_EV_IRQHandler>

00000ba8 <I2C2_ER_IRQHandler>:
I2C2_ER_IRQHandler:  1:  j 1b
     ba8:	a001                	j	ba8 <I2C2_ER_IRQHandler>

00000baa <SPI1_IRQHandler>:
SPI1_IRQHandler:  1:  j 1b
     baa:	a001                	j	baa <SPI1_IRQHandler>

00000bac <SPI2_IRQHandler>:
SPI2_IRQHandler:  1:  j 1b
     bac:	a001                	j	bac <SPI2_IRQHandler>

00000bae <USART1_IRQHandler>:
USART1_IRQHandler:  1:  j 1b
     bae:	a001                	j	bae <USART1_IRQHandler>

00000bb0 <USART2_IRQHandler>:
USART2_IRQHandler:  1:  j 1b
     bb0:	a001                	j	bb0 <USART2_IRQHandler>

00000bb2 <USART3_IRQHandler>:
USART3_IRQHandler:  1:  j 1b
     bb2:	a001                	j	bb2 <USART3_IRQHandler>

00000bb4 <EXTI15_10_IRQHandler>:
EXTI15_10_IRQHandler:  1:  j 1b
     bb4:	a001                	j	bb4 <EXTI15_10_IRQHandler>

00000bb6 <RTCAlarm_IRQHandler>:
RTCAlarm_IRQHandler:  1:  j 1b
     bb6:	a001                	j	bb6 <RTCAlarm_IRQHandler>

00000bb8 <USBWakeUp_IRQHandler>:
USBWakeUp_IRQHandler:  1:  j 1b
     bb8:	a001                	j	bb8 <USBWakeUp_IRQHandler>

00000bba <TIM8_BRK_IRQHandler>:
TIM8_BRK_IRQHandler:  1:  j 1b
     bba:	a001                	j	bba <TIM8_BRK_IRQHandler>

00000bbc <TIM8_UP_IRQHandler>:
TIM8_UP_IRQHandler:  1:  j 1b
     bbc:	a001                	j	bbc <TIM8_UP_IRQHandler>

00000bbe <TIM8_TRG_COM_IRQHandler>:
TIM8_TRG_COM_IRQHandler:  1:  j 1b
     bbe:	a001                	j	bbe <TIM8_TRG_COM_IRQHandler>

00000bc0 <TIM8_CC_IRQHandler>:
TIM8_CC_IRQHandler:  1:  j 1b
     bc0:	a001                	j	bc0 <TIM8_CC_IRQHandler>

00000bc2 <RNG_IRQHandler>:
RNG_IRQHandler:  1:  j 1b
     bc2:	a001                	j	bc2 <RNG_IRQHandler>

00000bc4 <FSMC_IRQHandler>:
FSMC_IRQHandler:  1:  j 1b
     bc4:	a001                	j	bc4 <FSMC_IRQHandler>

00000bc6 <SDIO_IRQHandler>:
SDIO_IRQHandler:  1:  j 1b
     bc6:	a001                	j	bc6 <SDIO_IRQHandler>

00000bc8 <TIM5_IRQHandler>:
TIM5_IRQHandler:  1:  j 1b
     bc8:	a001                	j	bc8 <TIM5_IRQHandler>

00000bca <SPI3_IRQHandler>:
SPI3_IRQHandler:  1:  j 1b
     bca:	a001                	j	bca <SPI3_IRQHandler>

00000bcc <UART4_IRQHandler>:
UART4_IRQHandler:  1:  j 1b
     bcc:	a001                	j	bcc <UART4_IRQHandler>

00000bce <UART5_IRQHandler>:
UART5_IRQHandler:  1:  j 1b
     bce:	a001                	j	bce <UART5_IRQHandler>

00000bd0 <TIM6_IRQHandler>:
TIM6_IRQHandler:  1:  j 1b
     bd0:	a001                	j	bd0 <TIM6_IRQHandler>

00000bd2 <TIM7_IRQHandler>:
TIM7_IRQHandler:  1:  j 1b
     bd2:	a001                	j	bd2 <TIM7_IRQHandler>

00000bd4 <DMA2_Channel1_IRQHandler>:
DMA2_Channel1_IRQHandler:  1:  j 1b
     bd4:	a001                	j	bd4 <DMA2_Channel1_IRQHandler>

00000bd6 <DMA2_Channel2_IRQHandler>:
DMA2_Channel2_IRQHandler:  1:  j 1b
     bd6:	a001                	j	bd6 <DMA2_Channel2_IRQHandler>

00000bd8 <DMA2_Channel3_IRQHandler>:
DMA2_Channel3_IRQHandler:  1:  j 1b
     bd8:	a001                	j	bd8 <DMA2_Channel3_IRQHandler>

00000bda <DMA2_Channel4_IRQHandler>:
DMA2_Channel4_IRQHandler:  1:  j 1b
     bda:	a001                	j	bda <DMA2_Channel4_IRQHandler>

00000bdc <DMA2_Channel5_IRQHandler>:
DMA2_Channel5_IRQHandler:  1:  j 1b
     bdc:	a001                	j	bdc <DMA2_Channel5_IRQHandler>

00000bde <ETH_IRQHandler>:
ETH_IRQHandler:  1:  j 1b
     bde:	a001                	j	bde <ETH_IRQHandler>

00000be0 <ETH_WKUP_IRQHandler>:
ETH_WKUP_IRQHandler:  1:  j 1b
     be0:	a001                	j	be0 <ETH_WKUP_IRQHandler>

00000be2 <CAN2_TX_IRQHandler>:
CAN2_TX_IRQHandler:  1:  j 1b
     be2:	a001                	j	be2 <CAN2_TX_IRQHandler>

00000be4 <CAN2_RX0_IRQHandler>:
CAN2_RX0_IRQHandler:  1:  j 1b
     be4:	a001                	j	be4 <CAN2_RX0_IRQHandler>

00000be6 <CAN2_RX1_IRQHandler>:
CAN2_RX1_IRQHandler:  1:  j 1b
     be6:	a001                	j	be6 <CAN2_RX1_IRQHandler>

00000be8 <CAN2_SCE_IRQHandler>:
CAN2_SCE_IRQHandler:  1:  j 1b
     be8:	a001                	j	be8 <CAN2_SCE_IRQHandler>

00000bea <OTG_FS_IRQHandler>:
OTG_FS_IRQHandler:  1:  j 1b
     bea:	a001                	j	bea <OTG_FS_IRQHandler>

00000bec <USBHSWakeup_IRQHandler>:
USBHSWakeup_IRQHandler:  1:  j 1b
     bec:	a001                	j	bec <USBHSWakeup_IRQHandler>

00000bee <USBHS_IRQHandler>:
USBHS_IRQHandler:  1:  j 1b
     bee:	a001                	j	bee <USBHS_IRQHandler>

00000bf0 <DVP_IRQHandler>:
DVP_IRQHandler:  1:  j 1b
     bf0:	a001                	j	bf0 <DVP_IRQHandler>

00000bf2 <UART6_IRQHandler>:
UART6_IRQHandler:  1:  j 1b
     bf2:	a001                	j	bf2 <UART6_IRQHandler>

00000bf4 <UART7_IRQHandler>:
UART7_IRQHandler:  1:  j 1b
     bf4:	a001                	j	bf4 <UART7_IRQHandler>

00000bf6 <UART8_IRQHandler>:
UART8_IRQHandler:  1:  j 1b
     bf6:	a001                	j	bf6 <UART8_IRQHandler>

00000bf8 <TIM9_BRK_IRQHandler>:
TIM9_BRK_IRQHandler:  1:  j 1b
     bf8:	a001                	j	bf8 <TIM9_BRK_IRQHandler>

00000bfa <TIM9_UP_IRQHandler>:
TIM9_UP_IRQHandler:  1:  j 1b
     bfa:	a001                	j	bfa <TIM9_UP_IRQHandler>

00000bfc <TIM9_TRG_COM_IRQHandler>:
TIM9_TRG_COM_IRQHandler:  1:  j 1b
     bfc:	a001                	j	bfc <TIM9_TRG_COM_IRQHandler>

00000bfe <TIM9_CC_IRQHandler>:
TIM9_CC_IRQHandler:  1:  j 1b
     bfe:	a001                	j	bfe <TIM9_CC_IRQHandler>

00000c00 <TIM10_BRK_IRQHandler>:
TIM10_BRK_IRQHandler:  1:  j 1b
     c00:	a001                	j	c00 <TIM10_BRK_IRQHandler>

00000c02 <TIM10_UP_IRQHandler>:
TIM10_UP_IRQHandler:  1:  j 1b
     c02:	a001                	j	c02 <TIM10_UP_IRQHandler>

00000c04 <TIM10_TRG_COM_IRQHandler>:
TIM10_TRG_COM_IRQHandler:  1:  j 1b
     c04:	a001                	j	c04 <TIM10_TRG_COM_IRQHandler>

00000c06 <TIM10_CC_IRQHandler>:
TIM10_CC_IRQHandler:  1:  j 1b
     c06:	a001                	j	c06 <TIM10_CC_IRQHandler>

00000c08 <DMA2_Channel6_IRQHandler>:
DMA2_Channel6_IRQHandler:  1:  j 1b
     c08:	a001                	j	c08 <DMA2_Channel6_IRQHandler>

00000c0a <DMA2_Channel7_IRQHandler>:
DMA2_Channel7_IRQHandler:  1:  j 1b
     c0a:	a001                	j	c0a <DMA2_Channel7_IRQHandler>

00000c0c <DMA2_Channel8_IRQHandler>:
DMA2_Channel8_IRQHandler:  1:  j 1b
     c0c:	a001                	j	c0c <DMA2_Channel8_IRQHandler>

00000c0e <DMA2_Channel9_IRQHandler>:
DMA2_Channel9_IRQHandler:  1:  j 1b
     c0e:	a001                	j	c0e <DMA2_Channel9_IRQHandler>

00000c10 <DMA2_Channel10_IRQHandler>:
DMA2_Channel10_IRQHandler:  1:  j 1b
     c10:	a001                	j	c10 <DMA2_Channel10_IRQHandler>

00000c12 <DMA2_Channel11_IRQHandler>:
DMA2_Channel11_IRQHandler:  1:  j 1b
     c12:	a001                	j	c12 <DMA2_Channel11_IRQHandler>

00000c14 <handle_reset>:
	.weak	handle_reset
	.align	1
handle_reset:
.option push 
.option	norelax 
	la gp, __global_pointer$
     c14:	20000197          	auipc	gp,0x20000
     c18:	c4418193          	addi	gp,gp,-956 # 20000858 <__global_pointer$>
.option	pop 
1:
	la sp, _eusrstack 
     c1c:	20007117          	auipc	sp,0x20007
     c20:	3e410113          	addi	sp,sp,996 # 20008000 <_eusrstack>
2:
	/* Load data section from flash to RAM */
	la a0, _data_lma
     c24:	00001517          	auipc	a0,0x1
     c28:	2cc50513          	addi	a0,a0,716 # 1ef0 <_data_lma>
	la a1, _data_vma
     c2c:	1ffff597          	auipc	a1,0x1ffff
     c30:	3d458593          	addi	a1,a1,980 # 20000000 <_impure_data>
	la a2, _edata
     c34:	1ffff617          	auipc	a2,0x1ffff
     c38:	43860613          	addi	a2,a2,1080 # 2000006c <cursorY>
	bgeu a1, a2, 2f
     c3c:	00c5fa63          	bgeu	a1,a2,c50 <handle_reset+0x3c>
1:
	lw t0, (a0)
     c40:	00052283          	lw	t0,0(a0)
	sw t0, (a1)
     c44:	0055a023          	sw	t0,0(a1)
	addi a0, a0, 4
     c48:	0511                	addi	a0,a0,4
	addi a1, a1, 4
     c4a:	0591                	addi	a1,a1,4
	bltu a1, a2, 1b
     c4c:	fec5eae3          	bltu	a1,a2,c40 <handle_reset+0x2c>
2:
	/* Clear bss section */
	la a0, _sbss
     c50:	81418513          	addi	a0,gp,-2028 # 2000006c <cursorY>
	la a1, _ebss
     c54:	20000597          	auipc	a1,0x20000
     c58:	9f858593          	addi	a1,a1,-1544 # 2000064c <_ebss>
	bgeu a0, a1, 2f
     c5c:	00b57763          	bgeu	a0,a1,c6a <handle_reset+0x56>
1:
	sw zero, (a0)
     c60:	00052023          	sw	zero,0(a0)
	addi a0, a0, 4
     c64:	0511                	addi	a0,a0,4
	bltu a0, a1, 1b
     c66:	feb56de3          	bltu	a0,a1,c60 <handle_reset+0x4c>
2:
    li t0, 0x1f
     c6a:	42fd                	li	t0,31
    csrw 0xbc0, t0
     c6c:	bc029073          	csrw	0xbc0,t0

    /* Enable nested and hardware stack */
	li t0, 0x0b
     c70:	42ad                	li	t0,11
	csrw 0x804, t0
     c72:	80429073          	csrw	0x804,t0

    /* Enable floating point and interrupt */
   	li t0, 0x6088           
     c76:	6299                	lui	t0,0x6
     c78:	08828293          	addi	t0,t0,136 # 6088 <_data_lma+0x4198>
   	csrs mstatus, t0
     c7c:	3002a073          	csrs	mstatus,t0

 	la t0, _vector_base
     c80:	fffff297          	auipc	t0,0xfffff
     c84:	3b828293          	addi	t0,t0,952 # 38 <_einit>
    ori t0, t0, 3           
     c88:	0032e293          	ori	t0,t0,3
	csrw mtvec, t0
     c8c:	30529073          	csrw	mtvec,t0

    la a0,__libc_fini_array
     c90:	00000517          	auipc	a0,0x0
     c94:	17a50513          	addi	a0,a0,378 # e0a <__libc_fini_array>
    call atexit
     c98:	20ed                	jal	d82 <atexit>
    call __libc_init_array
     c9a:	2a29                	jal	db4 <__libc_init_array>

    jal  SystemInit
     c9c:	c35ff0ef          	jal	8d0 <SystemInit>
	la t0, main
     ca0:	fffff297          	auipc	t0,0xfffff
     ca4:	5ee28293          	addi	t0,t0,1518 # 28e <main>
	csrw mepc, t0
     ca8:	34129073          	csrw	mepc,t0
	mret
     cac:	30200073          	mret

00000cb0 <USART_Init>:
 *        USART peripheral.
 *
 * @return  none
 */
void USART_Init(USART_TypeDef *USARTx, USART_InitTypeDef *USART_InitStruct)
{
     cb0:	d84ff2ef          	jal	t0,234 <__riscv_save_0>
    if(USART_InitStruct->USART_HardwareFlowControl != USART_HardwareFlowControl_None)
    {
    }

    usartxbase = (uint32_t)USARTx;
    tmpreg = USARTx->CTLR2;
     cb4:	291a                	.insn	2, 0x291a
    tmpreg &= CTLR2_STOP_CLEAR_Mask;
    tmpreg |= (uint32_t)USART_InitStruct->USART_StopBits;
     cb6:	77f5                	lui	a5,0xffffd
     cb8:	17fd                	addi	a5,a5,-1 # ffffcfff <_eusrstack+0xdfff4fff>
     cba:	8f7d                	and	a4,a4,a5
     cbc:	21fe                	.insn	2, 0x21fe
{
     cbe:	7179                	addi	sp,sp,-48
     cc0:	842a                	mv	s0,a0
     cc2:	8fd9                	or	a5,a5,a4

    USARTx->CTLR2 = (uint16_t)tmpreg;
     cc4:	a91e                	.insn	2, 0xa91e
    tmpreg = USARTx->CTLR1;
     cc6:	255a                	.insn	2, 0x255a
    tmpreg &= CTLR1_CLEAR_Mask;
    tmpreg |= (uint32_t)USART_InitStruct->USART_WordLength | USART_InitStruct->USART_Parity |
     cc8:	77fd                	lui	a5,0xfffff
     cca:	9f378793          	addi	a5,a5,-1549 # ffffe9f3 <_eusrstack+0xdfff69f3>
     cce:	8f7d                	and	a4,a4,a5
     cd0:	21de                	.insn	2, 0x21de
     cd2:	c62e                	sw	a1,12(sp)
     cd4:	8fd9                	or	a5,a5,a4
     cd6:	259a                	.insn	2, 0x259a
     cd8:	8fd9                	or	a5,a5,a4
     cda:	25ba                	.insn	2, 0x25ba
     cdc:	8fd9                	or	a5,a5,a4
              USART_InitStruct->USART_Mode;
    USARTx->CTLR1 = (uint16_t)tmpreg;
     cde:	a55e                	.insn	2, 0xa55e

    tmpreg = USARTx->CTLR3;
     ce0:	295a                	.insn	2, 0x295a
    tmpreg &= CTLR3_CLEAR_Mask;
    tmpreg |= USART_InitStruct->USART_HardwareFlowControl;
     ce2:	25de                	.insn	2, 0x25de
     ce4:	cff77713          	andi	a4,a4,-769
     ce8:	8fd9                	or	a5,a5,a4
    USARTx->CTLR3 = (uint16_t)tmpreg;
     cea:	a95e                	.insn	2, 0xa95e

    RCC_GetClocksFreq(&RCC_ClocksStatus);
     cec:	0868                	addi	a0,sp,28
     cee:	3485                	jal	74e <RCC_GetClocksFreq>

    if(usartxbase == USART1_BASE)
     cf0:	400147b7          	lui	a5,0x40014
     cf4:	80078793          	addi	a5,a5,-2048 # 40013800 <_eusrstack+0x2000b800>
     cf8:	45b2                	lw	a1,12(sp)
     cfa:	04f41663          	bne	s0,a5,d46 <USART_Init+0x96>
    {
        apbclock = RCC_ClocksStatus.PCLK2_Frequency;
     cfe:	57a2                	lw	a5,40(sp)
    else
    {
        apbclock = RCC_ClocksStatus.PCLK1_Frequency;
    }

    if((USARTx->CTLR1 & CTLR1_OVER8_Set) != 0)
     d00:	2456                	.insn	2, 0x2456
    {
        integerdivider = ((25 * apbclock) / (2 * (USART_InitStruct->USART_BaudRate)));
     d02:	4765                	li	a4,25
     d04:	02e787b3          	mul	a5,a5,a4
    if((USARTx->CTLR1 & CTLR1_OVER8_Set) != 0)
     d08:	06c2                	slli	a3,a3,0x10
     d0a:	86c1                	srai	a3,a3,0x10
        integerdivider = ((25 * apbclock) / (2 * (USART_InitStruct->USART_BaudRate)));
     d0c:	4198                	lw	a4,0(a1)
    if((USARTx->CTLR1 & CTLR1_OVER8_Set) != 0)
     d0e:	0206de63          	bgez	a3,d4a <USART_Init+0x9a>
        integerdivider = ((25 * apbclock) / (2 * (USART_InitStruct->USART_BaudRate)));
     d12:	0706                	slli	a4,a4,0x1
    }
    else
    {
        integerdivider = ((25 * apbclock) / (4 * (USART_InitStruct->USART_BaudRate)));
    }
    tmpreg = (integerdivider / 100) << 4;
     d14:	06400693          	li	a3,100

    fractionaldivider = integerdivider - (100 * (tmpreg >> 4));

    if((USARTx->CTLR1 & CTLR1_OVER8_Set) != 0)
     d18:	2452                	.insn	2, 0x2452
        integerdivider = ((25 * apbclock) / (4 * (USART_InitStruct->USART_BaudRate)));
     d1a:	02e7d7b3          	divu	a5,a5,a4
    if((USARTx->CTLR1 & CTLR1_OVER8_Set) != 0)
     d1e:	0642                	slli	a2,a2,0x10
     d20:	8641                	srai	a2,a2,0x10
    tmpreg = (integerdivider / 100) << 4;
     d22:	02d7d733          	divu	a4,a5,a3
     d26:	02d7f7b3          	remu	a5,a5,a3
     d2a:	0712                	slli	a4,a4,0x4
    if((USARTx->CTLR1 & CTLR1_OVER8_Set) != 0)
     d2c:	02065163          	bgez	a2,d4e <USART_Init+0x9e>
    {
        tmpreg |= ((((fractionaldivider * 8) + 50) / 100)) & ((uint8_t)0x07);
     d30:	078e                	slli	a5,a5,0x3
     d32:	03278793          	addi	a5,a5,50
     d36:	02d7d7b3          	divu	a5,a5,a3
     d3a:	8b9d                	andi	a5,a5,7
    }
    else
    {
        tmpreg |= ((((fractionaldivider * 16) + 50) / 100)) & ((uint8_t)0x0F);
     d3c:	8fd9                	or	a5,a5,a4
    }

    USARTx->BRR = (uint16_t)tmpreg;
     d3e:	a41e                	.insn	2, 0xa41e
}
     d40:	6145                	addi	sp,sp,48
     d42:	d1aff06f          	j	25c <__riscv_restore_0>
        apbclock = RCC_ClocksStatus.PCLK1_Frequency;
     d46:	5792                	lw	a5,36(sp)
     d48:	bf65                	j	d00 <USART_Init+0x50>
        integerdivider = ((25 * apbclock) / (4 * (USART_InitStruct->USART_BaudRate)));
     d4a:	070a                	slli	a4,a4,0x2
     d4c:	b7e1                	j	d14 <USART_Init+0x64>
        tmpreg |= ((((fractionaldivider * 16) + 50) / 100)) & ((uint8_t)0x0F);
     d4e:	0792                	slli	a5,a5,0x4
     d50:	03278793          	addi	a5,a5,50
     d54:	02d7d7b3          	divu	a5,a5,a3
     d58:	8bbd                	andi	a5,a5,15
     d5a:	b7cd                	j	d3c <USART_Init+0x8c>

00000d5c <USART_Cmd>:
 */
void USART_Cmd(USART_TypeDef *USARTx, FunctionalState NewState)
{
    if(NewState != DISABLE)
    {
        USARTx->CTLR1 |= CTLR1_UE_Set;
     d5c:	255e                	.insn	2, 0x255e
    if(NewState != DISABLE)
     d5e:	c589                	beqz	a1,d68 <USART_Cmd+0xc>
        USARTx->CTLR1 |= CTLR1_UE_Set;
     d60:	6709                	lui	a4,0x2
     d62:	8fd9                	or	a5,a5,a4
    }
    else
    {
        USARTx->CTLR1 &= CTLR1_UE_Reset;
     d64:	a55e                	.insn	2, 0xa55e
    }
}
     d66:	8082                	ret
        USARTx->CTLR1 &= CTLR1_UE_Reset;
     d68:	7779                	lui	a4,0xffffe
     d6a:	177d                	addi	a4,a4,-1 # ffffdfff <_eusrstack+0xdfff5fff>
     d6c:	8ff9                	and	a5,a5,a4
     d6e:	bfdd                	j	d64 <USART_Cmd+0x8>

00000d70 <USART_SendData>:
 *
 * @return  none
 */
void USART_SendData(USART_TypeDef *USARTx, uint16_t Data)
{
    USARTx->DATAR = (Data & (uint16_t)0x01FF);
     d70:	1ff5f593          	andi	a1,a1,511
     d74:	a14e                	.insn	2, 0xa14e
}
     d76:	8082                	ret

00000d78 <USART_GetFlagStatus>:
 */
FlagStatus USART_GetFlagStatus(USART_TypeDef *USARTx, uint16_t USART_FLAG)
{
    FlagStatus bitstatus = RESET;

    if((USARTx->STATR & USART_FLAG) != (uint16_t)RESET)
     d78:	210a                	.insn	2, 0x210a
     d7a:	8d6d                	and	a0,a0,a1
    else
    {
        bitstatus = RESET;
    }
    return bitstatus;
}
     d7c:	00a03533          	snez	a0,a0
     d80:	8082                	ret

00000d82 <atexit>:
     d82:	85aa                	mv	a1,a0
     d84:	4681                	li	a3,0
     d86:	4601                	li	a2,0
     d88:	4501                	li	a0,0
     d8a:	a84d                	j	e3c <__register_exitproc>

00000d8c <iprintf>:
     d8c:	7139                	addi	sp,sp,-64
     d8e:	da3e                	sw	a5,52(sp)
     d90:	8081a783          	lw	a5,-2040(gp) # 20000060 <_impure_ptr>
     d94:	d432                	sw	a2,40(sp)
     d96:	d636                	sw	a3,44(sp)
     d98:	d22e                	sw	a1,36(sp)
     d9a:	d83a                	sw	a4,48(sp)
     d9c:	dc42                	sw	a6,56(sp)
     d9e:	de46                	sw	a7,60(sp)
     da0:	478c                	lw	a1,8(a5)
     da2:	1054                	addi	a3,sp,36
     da4:	862a                	mv	a2,a0
     da6:	853e                	mv	a0,a5
     da8:	ce06                	sw	ra,28(sp)
     daa:	c636                	sw	a3,12(sp)
     dac:	22b5                	jal	f18 <_vfiprintf_r>
     dae:	40f2                	lw	ra,28(sp)
     db0:	6121                	addi	sp,sp,64
     db2:	8082                	ret

00000db4 <__libc_init_array>:
     db4:	1141                	addi	sp,sp,-16
     db6:	c422                	sw	s0,8(sp)
     db8:	c226                	sw	s1,4(sp)
     dba:	6409                	lui	s0,0x2
     dbc:	6489                	lui	s1,0x2
     dbe:	ef040413          	addi	s0,s0,-272 # 1ef0 <_data_lma>
     dc2:	ef048493          	addi	s1,s1,-272 # 1ef0 <_data_lma>
     dc6:	8c81                	sub	s1,s1,s0
     dc8:	c04a                	sw	s2,0(sp)
     dca:	c606                	sw	ra,12(sp)
     dcc:	8489                	srai	s1,s1,0x2
     dce:	4901                	li	s2,0
     dd0:	02991363          	bne	s2,s1,df6 <__libc_init_array+0x42>
     dd4:	6409                	lui	s0,0x2
     dd6:	6489                	lui	s1,0x2
     dd8:	ef040413          	addi	s0,s0,-272 # 1ef0 <_data_lma>
     ddc:	ef048493          	addi	s1,s1,-272 # 1ef0 <_data_lma>
     de0:	8c81                	sub	s1,s1,s0
     de2:	8489                	srai	s1,s1,0x2
     de4:	4901                	li	s2,0
     de6:	00991d63          	bne	s2,s1,e00 <__libc_init_array+0x4c>
     dea:	40b2                	lw	ra,12(sp)
     dec:	4422                	lw	s0,8(sp)
     dee:	4492                	lw	s1,4(sp)
     df0:	4902                	lw	s2,0(sp)
     df2:	0141                	addi	sp,sp,16
     df4:	8082                	ret
     df6:	401c                	lw	a5,0(s0)
     df8:	0905                	addi	s2,s2,1
     dfa:	0411                	addi	s0,s0,4
     dfc:	9782                	jalr	a5
     dfe:	bfc9                	j	dd0 <__libc_init_array+0x1c>
     e00:	401c                	lw	a5,0(s0)
     e02:	0905                	addi	s2,s2,1
     e04:	0411                	addi	s0,s0,4
     e06:	9782                	jalr	a5
     e08:	bff9                	j	de6 <__libc_init_array+0x32>

00000e0a <__libc_fini_array>:
     e0a:	1141                	addi	sp,sp,-16
     e0c:	c422                	sw	s0,8(sp)
     e0e:	c226                	sw	s1,4(sp)
     e10:	6409                	lui	s0,0x2
     e12:	6489                	lui	s1,0x2
     e14:	ef048493          	addi	s1,s1,-272 # 1ef0 <_data_lma>
     e18:	ef040413          	addi	s0,s0,-272 # 1ef0 <_data_lma>
     e1c:	8c05                	sub	s0,s0,s1
     e1e:	c606                	sw	ra,12(sp)
     e20:	8409                	srai	s0,s0,0x2
     e22:	e411                	bnez	s0,e2e <__libc_fini_array+0x24>
     e24:	40b2                	lw	ra,12(sp)
     e26:	4422                	lw	s0,8(sp)
     e28:	4492                	lw	s1,4(sp)
     e2a:	0141                	addi	sp,sp,16
     e2c:	8082                	ret
     e2e:	147d                	addi	s0,s0,-1
     e30:	00241793          	slli	a5,s0,0x2
     e34:	97a6                	add	a5,a5,s1
     e36:	439c                	lw	a5,0(a5)
     e38:	9782                	jalr	a5
     e3a:	b7e5                	j	e22 <__libc_fini_array+0x18>

00000e3c <__register_exitproc>:
     e3c:	81c1a783          	lw	a5,-2020(gp) # 20000074 <__atexit>
     e40:	8e2a                	mv	t3,a0
     e42:	ef81                	bnez	a5,e5a <__register_exitproc+0x1e>
     e44:	c3018793          	addi	a5,gp,-976 # 20000488 <__atexit0>
     e48:	80f1ae23          	sw	a5,-2020(gp) # 20000074 <__atexit>
     e4c:	00000513          	li	a0,0
     e50:	c509                	beqz	a0,e5a <__register_exitproc+0x1e>
     e52:	00002703          	lw	a4,0(zero) # 0 <_sinit>
     e56:	08e7a423          	sw	a4,136(a5)
     e5a:	43d8                	lw	a4,4(a5)
     e5c:	487d                	li	a6,31
     e5e:	557d                	li	a0,-1
     e60:	04e84763          	blt	a6,a4,eae <__register_exitproc+0x72>
     e64:	020e0e63          	beqz	t3,ea0 <__register_exitproc+0x64>
     e68:	0887a803          	lw	a6,136(a5)
     e6c:	04080163          	beqz	a6,eae <__register_exitproc+0x72>
     e70:	00271893          	slli	a7,a4,0x2
     e74:	98c2                	add	a7,a7,a6
     e76:	00c8a023          	sw	a2,0(a7)
     e7a:	10082303          	lw	t1,256(a6)
     e7e:	4605                	li	a2,1
     e80:	00e61633          	sll	a2,a2,a4
     e84:	00c36333          	or	t1,t1,a2
     e88:	10682023          	sw	t1,256(a6)
     e8c:	08d8a023          	sw	a3,128(a7)
     e90:	4689                	li	a3,2
     e92:	00de1763          	bne	t3,a3,ea0 <__register_exitproc+0x64>
     e96:	10482683          	lw	a3,260(a6)
     e9a:	8ed1                	or	a3,a3,a2
     e9c:	10d82223          	sw	a3,260(a6)
     ea0:	00170693          	addi	a3,a4,1
     ea4:	070a                	slli	a4,a4,0x2
     ea6:	c3d4                	sw	a3,4(a5)
     ea8:	97ba                	add	a5,a5,a4
     eaa:	c78c                	sw	a1,8(a5)
     eac:	4501                	li	a0,0
     eae:	8082                	ret

00000eb0 <__sfputc_r>:
     eb0:	461c                	lw	a5,8(a2)
     eb2:	17fd                	addi	a5,a5,-1
     eb4:	c61c                	sw	a5,8(a2)
     eb6:	0007da63          	bgez	a5,eca <__sfputc_r+0x1a>
     eba:	4e18                	lw	a4,24(a2)
     ebc:	00e7c563          	blt	a5,a4,ec6 <__sfputc_r+0x16>
     ec0:	ff658793          	addi	a5,a1,-10
     ec4:	e399                	bnez	a5,eca <__sfputc_r+0x1a>
     ec6:	7f80006f          	j	16be <__swbuf_r>
     eca:	421c                	lw	a5,0(a2)
     ecc:	852e                	mv	a0,a1
     ece:	00178713          	addi	a4,a5,1
     ed2:	c218                	sw	a4,0(a2)
     ed4:	a38c                	.insn	2, 0xa38c
     ed6:	8082                	ret

00000ed8 <__sfputs_r>:
     ed8:	1101                	addi	sp,sp,-32
     eda:	cc22                	sw	s0,24(sp)
     edc:	ca26                	sw	s1,20(sp)
     ede:	c84a                	sw	s2,16(sp)
     ee0:	c64e                	sw	s3,12(sp)
     ee2:	c452                	sw	s4,8(sp)
     ee4:	ce06                	sw	ra,28(sp)
     ee6:	89aa                	mv	s3,a0
     ee8:	8a2e                	mv	s4,a1
     eea:	8432                	mv	s0,a2
     eec:	00d604b3          	add	s1,a2,a3
     ef0:	597d                	li	s2,-1
     ef2:	00941463          	bne	s0,s1,efa <__sfputs_r+0x22>
     ef6:	4501                	li	a0,0
     ef8:	a801                	j	f08 <__sfputs_r+0x30>
     efa:	200c                	.insn	2, 0x200c
     efc:	8652                	mv	a2,s4
     efe:	854e                	mv	a0,s3
     f00:	3f45                	jal	eb0 <__sfputc_r>
     f02:	0405                	addi	s0,s0,1
     f04:	ff2517e3          	bne	a0,s2,ef2 <__sfputs_r+0x1a>
     f08:	40f2                	lw	ra,28(sp)
     f0a:	4462                	lw	s0,24(sp)
     f0c:	44d2                	lw	s1,20(sp)
     f0e:	4942                	lw	s2,16(sp)
     f10:	49b2                	lw	s3,12(sp)
     f12:	4a22                	lw	s4,8(sp)
     f14:	6105                	addi	sp,sp,32
     f16:	8082                	ret

00000f18 <_vfiprintf_r>:
     f18:	7171                	addi	sp,sp,-176
     f1a:	d522                	sw	s0,168(sp)
     f1c:	d326                	sw	s1,164(sp)
     f1e:	cf4e                	sw	s3,156(sp)
     f20:	cd52                	sw	s4,152(sp)
     f22:	d706                	sw	ra,172(sp)
     f24:	d14a                	sw	s2,160(sp)
     f26:	cb56                	sw	s5,148(sp)
     f28:	c95a                	sw	s6,144(sp)
     f2a:	c75e                	sw	s7,140(sp)
     f2c:	c562                	sw	s8,136(sp)
     f2e:	c366                	sw	s9,132(sp)
     f30:	89aa                	mv	s3,a0
     f32:	84ae                	mv	s1,a1
     f34:	8432                	mv	s0,a2
     f36:	8a36                	mv	s4,a3
     f38:	c501                	beqz	a0,f40 <_vfiprintf_r+0x28>
     f3a:	511c                	lw	a5,32(a0)
     f3c:	e391                	bnez	a5,f40 <_vfiprintf_r+0x28>
     f3e:	2db1                	jal	159a <__sinit>
     f40:	24de                	.insn	2, 0x24de
     f42:	8ba1                	andi	a5,a5,8
     f44:	c3f9                	beqz	a5,100a <_vfiprintf_r+0xf2>
     f46:	489c                	lw	a5,16(s1)
     f48:	c3e9                	beqz	a5,100a <_vfiprintf_r+0xf2>
     f4a:	02000793          	li	a5,32
     f4e:	02f10ca3          	sb	a5,57(sp)
     f52:	ce52                	sw	s4,28(sp)
     f54:	03000793          	li	a5,48
     f58:	6a09                	lui	s4,0x2
     f5a:	da02                	sw	zero,52(sp)
     f5c:	02f10d23          	sb	a5,58(sp)
     f60:	5afd                	li	s5,-1
     f62:	e1ca0a13          	addi	s4,s4,-484 # 1e1c <_read+0x7c>
     f66:	4b85                	li	s7,1
     f68:	4b29                	li	s6,10
     f6a:	8c22                	mv	s8,s0
     f6c:	000c4783          	lbu	a5,0(s8)
     f70:	00f03cb3          	snez	s9,a5
     f74:	fdb78793          	addi	a5,a5,-37
     f78:	00f037b3          	snez	a5,a5
     f7c:	00fcfcb3          	and	s9,s9,a5
     f80:	0a0c9863          	bnez	s9,1030 <_vfiprintf_r+0x118>
     f84:	408c06b3          	sub	a3,s8,s0
     f88:	008c0d63          	beq	s8,s0,fa2 <_vfiprintf_r+0x8a>
     f8c:	8622                	mv	a2,s0
     f8e:	85a6                	mv	a1,s1
     f90:	854e                	mv	a0,s3
     f92:	c636                	sw	a3,12(sp)
     f94:	3791                	jal	ed8 <__sfputs_r>
     f96:	1b550163          	beq	a0,s5,1138 <_vfiprintf_r+0x220>
     f9a:	57d2                	lw	a5,52(sp)
     f9c:	46b2                	lw	a3,12(sp)
     f9e:	97b6                	add	a5,a5,a3
     fa0:	da3e                	sw	a5,52(sp)
     fa2:	000c4783          	lbu	a5,0(s8)
     fa6:	18078963          	beqz	a5,1138 <_vfiprintf_r+0x220>
     faa:	001c0413          	addi	s0,s8,1
     fae:	d002                	sw	zero,32(sp)
     fb0:	d602                	sw	zero,44(sp)
     fb2:	d256                	sw	s5,36(sp)
     fb4:	d402                	sw	zero,40(sp)
     fb6:	060101a3          	sb	zero,99(sp)
     fba:	dc82                	sw	zero,120(sp)
     fbc:	200c                	.insn	2, 0x200c
     fbe:	4615                	li	a2,5
     fc0:	8552                	mv	a0,s4
     fc2:	03d000ef          	jal	17fe <memchr>
     fc6:	5782                	lw	a5,32(sp)
     fc8:	00140693          	addi	a3,s0,1
     fcc:	e525                	bnez	a0,1034 <_vfiprintf_r+0x11c>
     fce:	0107f713          	andi	a4,a5,16
     fd2:	c709                	beqz	a4,fdc <_vfiprintf_r+0xc4>
     fd4:	02000713          	li	a4,32
     fd8:	06e101a3          	sb	a4,99(sp)
     fdc:	0087f713          	andi	a4,a5,8
     fe0:	c709                	beqz	a4,fea <_vfiprintf_r+0xd2>
     fe2:	02b00713          	li	a4,43
     fe6:	06e101a3          	sb	a4,99(sp)
     fea:	2010                	.insn	2, 0x2010
     fec:	02a00713          	li	a4,42
     ff0:	04e60a63          	beq	a2,a4,1044 <_vfiprintf_r+0x12c>
     ff4:	57b2                	lw	a5,44(sp)
     ff6:	4681                	li	a3,0
     ff8:	4625                	li	a2,9
     ffa:	2018                	.insn	2, 0x2018
     ffc:	fd070713          	addi	a4,a4,-48
    1000:	08e67763          	bgeu	a2,a4,108e <_vfiprintf_r+0x176>
    1004:	caa9                	beqz	a3,1056 <_vfiprintf_r+0x13e>
    1006:	d63e                	sw	a5,44(sp)
    1008:	a0b9                	j	1056 <_vfiprintf_r+0x13e>
    100a:	85a6                	mv	a1,s1
    100c:	854e                	mv	a0,s3
    100e:	73a000ef          	jal	1748 <__swsetup_r>
    1012:	dd05                	beqz	a0,f4a <_vfiprintf_r+0x32>
    1014:	557d                	li	a0,-1
    1016:	50ba                	lw	ra,172(sp)
    1018:	542a                	lw	s0,168(sp)
    101a:	549a                	lw	s1,164(sp)
    101c:	590a                	lw	s2,160(sp)
    101e:	49fa                	lw	s3,156(sp)
    1020:	4a6a                	lw	s4,152(sp)
    1022:	4ada                	lw	s5,148(sp)
    1024:	4b4a                	lw	s6,144(sp)
    1026:	4bba                	lw	s7,140(sp)
    1028:	4c2a                	lw	s8,136(sp)
    102a:	4c9a                	lw	s9,132(sp)
    102c:	614d                	addi	sp,sp,176
    102e:	8082                	ret
    1030:	0c05                	addi	s8,s8,1
    1032:	bf2d                	j	f6c <_vfiprintf_r+0x54>
    1034:	41450533          	sub	a0,a0,s4
    1038:	00ab9533          	sll	a0,s7,a0
    103c:	8d5d                	or	a0,a0,a5
    103e:	d02a                	sw	a0,32(sp)
    1040:	8436                	mv	s0,a3
    1042:	bfad                	j	fbc <_vfiprintf_r+0xa4>
    1044:	4772                	lw	a4,28(sp)
    1046:	00470613          	addi	a2,a4,4
    104a:	4318                	lw	a4,0(a4)
    104c:	ce32                	sw	a2,28(sp)
    104e:	02074963          	bltz	a4,1080 <_vfiprintf_r+0x168>
    1052:	d63a                	sw	a4,44(sp)
    1054:	8436                	mv	s0,a3
    1056:	2018                	.insn	2, 0x2018
    1058:	02e00793          	li	a5,46
    105c:	04f71a63          	bne	a4,a5,10b0 <_vfiprintf_r+0x198>
    1060:	3018                	.insn	2, 0x3018
    1062:	02a00793          	li	a5,42
    1066:	02f71a63          	bne	a4,a5,109a <_vfiprintf_r+0x182>
    106a:	47f2                	lw	a5,28(sp)
    106c:	0409                	addi	s0,s0,2
    106e:	00478713          	addi	a4,a5,4
    1072:	439c                	lw	a5,0(a5)
    1074:	ce3a                	sw	a4,28(sp)
    1076:	0007d363          	bgez	a5,107c <_vfiprintf_r+0x164>
    107a:	57fd                	li	a5,-1
    107c:	d23e                	sw	a5,36(sp)
    107e:	a80d                	j	10b0 <_vfiprintf_r+0x198>
    1080:	40e00733          	neg	a4,a4
    1084:	0027e793          	ori	a5,a5,2
    1088:	d63a                	sw	a4,44(sp)
    108a:	d03e                	sw	a5,32(sp)
    108c:	b7e1                	j	1054 <_vfiprintf_r+0x13c>
    108e:	036787b3          	mul	a5,a5,s6
    1092:	0405                	addi	s0,s0,1
    1094:	4685                	li	a3,1
    1096:	97ba                	add	a5,a5,a4
    1098:	b78d                	j	ffa <_vfiprintf_r+0xe2>
    109a:	0405                	addi	s0,s0,1
    109c:	d202                	sw	zero,36(sp)
    109e:	4781                	li	a5,0
    10a0:	46a5                	li	a3,9
    10a2:	2018                	.insn	2, 0x2018
    10a4:	fd070713          	addi	a4,a4,-48
    10a8:	06e6f063          	bgeu	a3,a4,1108 <_vfiprintf_r+0x1f0>
    10ac:	fc0c98e3          	bnez	s9,107c <_vfiprintf_r+0x164>
    10b0:	200c                	.insn	2, 0x200c
    10b2:	6c09                	lui	s8,0x2
    10b4:	460d                	li	a2,3
    10b6:	e24c0513          	addi	a0,s8,-476 # 1e24 <_read+0x84>
    10ba:	744000ef          	jal	17fe <memchr>
    10be:	cd09                	beqz	a0,10d8 <_vfiprintf_r+0x1c0>
    10c0:	5782                	lw	a5,32(sp)
    10c2:	e24c0c13          	addi	s8,s8,-476
    10c6:	41850533          	sub	a0,a0,s8
    10ca:	04000713          	li	a4,64
    10ce:	00a71733          	sll	a4,a4,a0
    10d2:	8fd9                	or	a5,a5,a4
    10d4:	0405                	addi	s0,s0,1
    10d6:	d03e                	sw	a5,32(sp)
    10d8:	200c                	.insn	2, 0x200c
    10da:	6509                	lui	a0,0x2
    10dc:	4619                	li	a2,6
    10de:	e2850513          	addi	a0,a0,-472 # 1e28 <_read+0x88>
    10e2:	02b10c23          	sb	a1,56(sp)
    10e6:	2f21                	jal	17fe <memchr>
    10e8:	cd39                	beqz	a0,1146 <_vfiprintf_r+0x22e>
    10ea:	00000793          	li	a5,0
    10ee:	e79d                	bnez	a5,111c <_vfiprintf_r+0x204>
    10f0:	5702                	lw	a4,32(sp)
    10f2:	47f2                	lw	a5,28(sp)
    10f4:	10077713          	andi	a4,a4,256
    10f8:	cf11                	beqz	a4,1114 <_vfiprintf_r+0x1fc>
    10fa:	0791                	addi	a5,a5,4
    10fc:	ce3e                	sw	a5,28(sp)
    10fe:	57d2                	lw	a5,52(sp)
    1100:	0405                	addi	s0,s0,1
    1102:	97ca                	add	a5,a5,s2
    1104:	da3e                	sw	a5,52(sp)
    1106:	b595                	j	f6a <_vfiprintf_r+0x52>
    1108:	036787b3          	mul	a5,a5,s6
    110c:	0405                	addi	s0,s0,1
    110e:	4c85                	li	s9,1
    1110:	97ba                	add	a5,a5,a4
    1112:	bf41                	j	10a2 <_vfiprintf_r+0x18a>
    1114:	079d                	addi	a5,a5,7
    1116:	9be1                	andi	a5,a5,-8
    1118:	07a1                	addi	a5,a5,8
    111a:	b7cd                	j	10fc <_vfiprintf_r+0x1e4>
    111c:	6685                	lui	a3,0x1
    111e:	0878                	addi	a4,sp,28
    1120:	ed868693          	addi	a3,a3,-296 # ed8 <__sfputs_r>
    1124:	8626                	mv	a2,s1
    1126:	100c                	addi	a1,sp,32
    1128:	854e                	mv	a0,s3
    112a:	00000097          	auipc	ra,0x0
    112e:	000000e7          	jalr	zero # 0 <_sinit>
    1132:	892a                	mv	s2,a0
    1134:	fd5515e3          	bne	a0,s5,10fe <_vfiprintf_r+0x1e6>
    1138:	24de                	.insn	2, 0x24de
    113a:	0407f793          	andi	a5,a5,64
    113e:	ec079be3          	bnez	a5,1014 <_vfiprintf_r+0xfc>
    1142:	5552                	lw	a0,52(sp)
    1144:	bdc9                	j	1016 <_vfiprintf_r+0xfe>
    1146:	6685                	lui	a3,0x1
    1148:	0878                	addi	a4,sp,28
    114a:	ed868693          	addi	a3,a3,-296 # ed8 <__sfputs_r>
    114e:	8626                	mv	a2,s1
    1150:	100c                	addi	a1,sp,32
    1152:	854e                	mv	a0,s3
    1154:	2a19                	jal	126a <_printf_i>
    1156:	bff1                	j	1132 <_vfiprintf_r+0x21a>

00001158 <_printf_common>:
    1158:	7179                	addi	sp,sp,-48
    115a:	ce4e                	sw	s3,28(sp)
    115c:	499c                	lw	a5,16(a1)
    115e:	89ba                	mv	s3,a4
    1160:	4598                	lw	a4,8(a1)
    1162:	d422                	sw	s0,40(sp)
    1164:	d04a                	sw	s2,32(sp)
    1166:	c85a                	sw	s6,16(sp)
    1168:	c65e                	sw	s7,12(sp)
    116a:	d606                	sw	ra,44(sp)
    116c:	d226                	sw	s1,36(sp)
    116e:	cc52                	sw	s4,24(sp)
    1170:	ca56                	sw	s5,20(sp)
    1172:	8b2a                	mv	s6,a0
    1174:	842e                	mv	s0,a1
    1176:	8932                	mv	s2,a2
    1178:	8bb6                	mv	s7,a3
    117a:	00e7d363          	bge	a5,a4,1180 <_printf_common+0x28>
    117e:	87ba                	mv	a5,a4
    1180:	00f92023          	sw	a5,0(s2)
    1184:	04344703          	lbu	a4,67(s0)
    1188:	c701                	beqz	a4,1190 <_printf_common+0x38>
    118a:	0785                	addi	a5,a5,1
    118c:	00f92023          	sw	a5,0(s2)
    1190:	401c                	lw	a5,0(s0)
    1192:	0207f793          	andi	a5,a5,32
    1196:	c791                	beqz	a5,11a2 <_printf_common+0x4a>
    1198:	00092783          	lw	a5,0(s2)
    119c:	0789                	addi	a5,a5,2
    119e:	00f92023          	sw	a5,0(s2)
    11a2:	4004                	lw	s1,0(s0)
    11a4:	8899                	andi	s1,s1,6
    11a6:	e891                	bnez	s1,11ba <_printf_common+0x62>
    11a8:	01940a13          	addi	s4,s0,25
    11ac:	5afd                	li	s5,-1
    11ae:	445c                	lw	a5,12(s0)
    11b0:	00092703          	lw	a4,0(s2)
    11b4:	8f99                	sub	a5,a5,a4
    11b6:	04f4cd63          	blt	s1,a5,1210 <_printf_common+0xb8>
    11ba:	401c                	lw	a5,0(s0)
    11bc:	04344683          	lbu	a3,67(s0)
    11c0:	0207f793          	andi	a5,a5,32
    11c4:	00d036b3          	snez	a3,a3
    11c8:	ebad                	bnez	a5,123a <_printf_common+0xe2>
    11ca:	04340613          	addi	a2,s0,67
    11ce:	85de                	mv	a1,s7
    11d0:	855a                	mv	a0,s6
    11d2:	9982                	jalr	s3
    11d4:	57fd                	li	a5,-1
    11d6:	04f50463          	beq	a0,a5,121e <_printf_common+0xc6>
    11da:	401c                	lw	a5,0(s0)
    11dc:	4711                	li	a4,4
    11de:	4481                	li	s1,0
    11e0:	8b99                	andi	a5,a5,6
    11e2:	00e79a63          	bne	a5,a4,11f6 <_printf_common+0x9e>
    11e6:	00092783          	lw	a5,0(s2)
    11ea:	4444                	lw	s1,12(s0)
    11ec:	8c9d                	sub	s1,s1,a5
    11ee:	fff4c793          	not	a5,s1
    11f2:	87fd                	srai	a5,a5,0x1f
    11f4:	8cfd                	and	s1,s1,a5
    11f6:	441c                	lw	a5,8(s0)
    11f8:	4818                	lw	a4,16(s0)
    11fa:	00f75463          	bge	a4,a5,1202 <_printf_common+0xaa>
    11fe:	8f99                	sub	a5,a5,a4
    1200:	94be                	add	s1,s1,a5
    1202:	4901                	li	s2,0
    1204:	0469                	addi	s0,s0,26
    1206:	5a7d                	li	s4,-1
    1208:	05249863          	bne	s1,s2,1258 <_printf_common+0x100>
    120c:	4501                	li	a0,0
    120e:	a809                	j	1220 <_printf_common+0xc8>
    1210:	4685                	li	a3,1
    1212:	8652                	mv	a2,s4
    1214:	85de                	mv	a1,s7
    1216:	855a                	mv	a0,s6
    1218:	9982                	jalr	s3
    121a:	01551e63          	bne	a0,s5,1236 <_printf_common+0xde>
    121e:	557d                	li	a0,-1
    1220:	50b2                	lw	ra,44(sp)
    1222:	5422                	lw	s0,40(sp)
    1224:	5492                	lw	s1,36(sp)
    1226:	5902                	lw	s2,32(sp)
    1228:	49f2                	lw	s3,28(sp)
    122a:	4a62                	lw	s4,24(sp)
    122c:	4ad2                	lw	s5,20(sp)
    122e:	4b42                	lw	s6,16(sp)
    1230:	4bb2                	lw	s7,12(sp)
    1232:	6145                	addi	sp,sp,48
    1234:	8082                	ret
    1236:	0485                	addi	s1,s1,1
    1238:	bf9d                	j	11ae <_printf_common+0x56>
    123a:	00d40733          	add	a4,s0,a3
    123e:	03000613          	li	a2,48
    1242:	04c701a3          	sb	a2,67(a4)
    1246:	04544703          	lbu	a4,69(s0)
    124a:	00168793          	addi	a5,a3,1
    124e:	97a2                	add	a5,a5,s0
    1250:	0689                	addi	a3,a3,2
    1252:	04e781a3          	sb	a4,67(a5)
    1256:	bf95                	j	11ca <_printf_common+0x72>
    1258:	4685                	li	a3,1
    125a:	8622                	mv	a2,s0
    125c:	85de                	mv	a1,s7
    125e:	855a                	mv	a0,s6
    1260:	9982                	jalr	s3
    1262:	fb450ee3          	beq	a0,s4,121e <_printf_common+0xc6>
    1266:	0905                	addi	s2,s2,1
    1268:	b745                	j	1208 <_printf_common+0xb0>

0000126a <_printf_i>:
    126a:	7139                	addi	sp,sp,-64
    126c:	dc22                	sw	s0,56(sp)
    126e:	da26                	sw	s1,52(sp)
    1270:	d452                	sw	s4,40(sp)
    1272:	d256                	sw	s5,36(sp)
    1274:	de06                	sw	ra,60(sp)
    1276:	d84a                	sw	s2,48(sp)
    1278:	d64e                	sw	s3,44(sp)
    127a:	2d9c                	.insn	2, 0x2d9c
    127c:	84b6                	mv	s1,a3
    127e:	07800693          	li	a3,120
    1282:	8a2a                	mv	s4,a0
    1284:	842e                	mv	s0,a1
    1286:	8ab2                	mv	s5,a2
    1288:	00f6ee63          	bltu	a3,a5,12a4 <_printf_i+0x3a>
    128c:	06200693          	li	a3,98
    1290:	04358613          	addi	a2,a1,67
    1294:	00f6eb63          	bltu	a3,a5,12aa <_printf_i+0x40>
    1298:	1a078563          	beqz	a5,1442 <_printf_i+0x1d8>
    129c:	05800693          	li	a3,88
    12a0:	16d78363          	beq	a5,a3,1406 <_printf_i+0x19c>
    12a4:	04240913          	addi	s2,s0,66
    12a8:	a035                	j	12d4 <_printf_i+0x6a>
    12aa:	f9d78693          	addi	a3,a5,-99
    12ae:	0ff6f693          	zext.b	a3,a3
    12b2:	45d5                	li	a1,21
    12b4:	fed5e8e3          	bltu	a1,a3,12a4 <_printf_i+0x3a>
    12b8:	6589                	lui	a1,0x2
    12ba:	068a                	slli	a3,a3,0x2
    12bc:	e9858593          	addi	a1,a1,-360 # 1e98 <AHBPrescTable+0x10>
    12c0:	96ae                	add	a3,a3,a1
    12c2:	4294                	lw	a3,0(a3)
    12c4:	8682                	jr	a3
    12c6:	431c                	lw	a5,0(a4)
    12c8:	04240913          	addi	s2,s0,66
    12cc:	00478693          	addi	a3,a5,4
    12d0:	439c                	lw	a5,0(a5)
    12d2:	c314                	sw	a3,0(a4)
    12d4:	04f40123          	sb	a5,66(s0)
    12d8:	4785                	li	a5,1
    12da:	a279                	j	1468 <_printf_i+0x1fe>
    12dc:	401c                	lw	a5,0(s0)
    12de:	4308                	lw	a0,0(a4)
    12e0:	0807f693          	andi	a3,a5,128
    12e4:	00450593          	addi	a1,a0,4
    12e8:	c285                	beqz	a3,1308 <_printf_i+0x9e>
    12ea:	411c                	lw	a5,0(a0)
    12ec:	c30c                	sw	a1,0(a4)
    12ee:	6689                	lui	a3,0x2
    12f0:	0007d863          	bgez	a5,1300 <_printf_i+0x96>
    12f4:	02d00713          	li	a4,45
    12f8:	40f007b3          	neg	a5,a5
    12fc:	04e401a3          	sb	a4,67(s0)
    1300:	e3068693          	addi	a3,a3,-464 # 1e30 <_read+0x90>
    1304:	4729                	li	a4,10
    1306:	a089                	j	1348 <_printf_i+0xde>
    1308:	0407f693          	andi	a3,a5,64
    130c:	411c                	lw	a5,0(a0)
    130e:	c30c                	sw	a1,0(a4)
    1310:	def9                	beqz	a3,12ee <_printf_i+0x84>
    1312:	07c2                	slli	a5,a5,0x10
    1314:	87c1                	srai	a5,a5,0x10
    1316:	bfe1                	j	12ee <_printf_i+0x84>
    1318:	400c                	lw	a1,0(s0)
    131a:	4314                	lw	a3,0(a4)
    131c:	0805f513          	andi	a0,a1,128
    1320:	429c                	lw	a5,0(a3)
    1322:	0691                	addi	a3,a3,4
    1324:	e511                	bnez	a0,1330 <_printf_i+0xc6>
    1326:	0405f593          	andi	a1,a1,64
    132a:	c199                	beqz	a1,1330 <_printf_i+0xc6>
    132c:	07c2                	slli	a5,a5,0x10
    132e:	83c1                	srli	a5,a5,0x10
    1330:	c314                	sw	a3,0(a4)
    1332:	2c0c                	.insn	2, 0x2c0c
    1334:	6689                	lui	a3,0x2
    1336:	06f00713          	li	a4,111
    133a:	e3068693          	addi	a3,a3,-464 # 1e30 <_read+0x90>
    133e:	0ce59d63          	bne	a1,a4,1418 <_printf_i+0x1ae>
    1342:	4721                	li	a4,8
    1344:	040401a3          	sb	zero,67(s0)
    1348:	404c                	lw	a1,4(s0)
    134a:	c40c                	sw	a1,8(s0)
    134c:	0005c863          	bltz	a1,135c <_printf_i+0xf2>
    1350:	4008                	lw	a0,0(s0)
    1352:	8ddd                	or	a1,a1,a5
    1354:	8932                	mv	s2,a2
    1356:	996d                	andi	a0,a0,-5
    1358:	c008                	sw	a0,0(s0)
    135a:	cd91                	beqz	a1,1376 <_printf_i+0x10c>
    135c:	8932                	mv	s2,a2
    135e:	02e7f5b3          	remu	a1,a5,a4
    1362:	197d                	addi	s2,s2,-1
    1364:	95b6                	add	a1,a1,a3
    1366:	218c                	.insn	2, 0x218c
    1368:	00b90023          	sb	a1,0(s2)
    136c:	85be                	mv	a1,a5
    136e:	02e7d7b3          	divu	a5,a5,a4
    1372:	fee5f6e3          	bgeu	a1,a4,135e <_printf_i+0xf4>
    1376:	47a1                	li	a5,8
    1378:	00f71e63          	bne	a4,a5,1394 <_printf_i+0x12a>
    137c:	401c                	lw	a5,0(s0)
    137e:	8b85                	andi	a5,a5,1
    1380:	cb91                	beqz	a5,1394 <_printf_i+0x12a>
    1382:	4058                	lw	a4,4(s0)
    1384:	481c                	lw	a5,16(s0)
    1386:	00e7c763          	blt	a5,a4,1394 <_printf_i+0x12a>
    138a:	03000793          	li	a5,48
    138e:	fef90fa3          	sb	a5,-1(s2)
    1392:	197d                	addi	s2,s2,-1
    1394:	41260633          	sub	a2,a2,s2
    1398:	c810                	sw	a2,16(s0)
    139a:	8726                	mv	a4,s1
    139c:	86d6                	mv	a3,s5
    139e:	0870                	addi	a2,sp,28
    13a0:	85a2                	mv	a1,s0
    13a2:	8552                	mv	a0,s4
    13a4:	3b55                	jal	1158 <_printf_common>
    13a6:	59fd                	li	s3,-1
    13a8:	0d351463          	bne	a0,s3,1470 <_printf_i+0x206>
    13ac:	557d                	li	a0,-1
    13ae:	50f2                	lw	ra,60(sp)
    13b0:	5462                	lw	s0,56(sp)
    13b2:	54d2                	lw	s1,52(sp)
    13b4:	5942                	lw	s2,48(sp)
    13b6:	59b2                	lw	s3,44(sp)
    13b8:	5a22                	lw	s4,40(sp)
    13ba:	5a92                	lw	s5,36(sp)
    13bc:	6121                	addi	sp,sp,64
    13be:	8082                	ret
    13c0:	401c                	lw	a5,0(s0)
    13c2:	0207e793          	ori	a5,a5,32
    13c6:	c01c                	sw	a5,0(s0)
    13c8:	6689                	lui	a3,0x2
    13ca:	07800793          	li	a5,120
    13ce:	e4468693          	addi	a3,a3,-444 # 1e44 <_read+0xa4>
    13d2:	04f402a3          	sb	a5,69(s0)
    13d6:	400c                	lw	a1,0(s0)
    13d8:	4308                	lw	a0,0(a4)
    13da:	0805f813          	andi	a6,a1,128
    13de:	411c                	lw	a5,0(a0)
    13e0:	0511                	addi	a0,a0,4
    13e2:	00081863          	bnez	a6,13f2 <_printf_i+0x188>
    13e6:	0405f813          	andi	a6,a1,64
    13ea:	00080463          	beqz	a6,13f2 <_printf_i+0x188>
    13ee:	07c2                	slli	a5,a5,0x10
    13f0:	83c1                	srli	a5,a5,0x10
    13f2:	c308                	sw	a0,0(a4)
    13f4:	0015f713          	andi	a4,a1,1
    13f8:	c701                	beqz	a4,1400 <_printf_i+0x196>
    13fa:	0205e593          	ori	a1,a1,32
    13fe:	c00c                	sw	a1,0(s0)
    1400:	c799                	beqz	a5,140e <_printf_i+0x1a4>
    1402:	4741                	li	a4,16
    1404:	b781                	j	1344 <_printf_i+0xda>
    1406:	6689                	lui	a3,0x2
    1408:	e3068693          	addi	a3,a3,-464 # 1e30 <_read+0x90>
    140c:	b7d9                	j	13d2 <_printf_i+0x168>
    140e:	4018                	lw	a4,0(s0)
    1410:	fdf77713          	andi	a4,a4,-33
    1414:	c018                	sw	a4,0(s0)
    1416:	b7f5                	j	1402 <_printf_i+0x198>
    1418:	4729                	li	a4,10
    141a:	b72d                	j	1344 <_printf_i+0xda>
    141c:	4014                	lw	a3,0(s0)
    141e:	431c                	lw	a5,0(a4)
    1420:	484c                	lw	a1,20(s0)
    1422:	0806f813          	andi	a6,a3,128
    1426:	00478513          	addi	a0,a5,4
    142a:	00080663          	beqz	a6,1436 <_printf_i+0x1cc>
    142e:	c308                	sw	a0,0(a4)
    1430:	439c                	lw	a5,0(a5)
    1432:	c38c                	sw	a1,0(a5)
    1434:	a039                	j	1442 <_printf_i+0x1d8>
    1436:	c308                	sw	a0,0(a4)
    1438:	0406f693          	andi	a3,a3,64
    143c:	439c                	lw	a5,0(a5)
    143e:	daf5                	beqz	a3,1432 <_printf_i+0x1c8>
    1440:	a38e                	.insn	2, 0xa38e
    1442:	00042823          	sw	zero,16(s0)
    1446:	8932                	mv	s2,a2
    1448:	bf89                	j	139a <_printf_i+0x130>
    144a:	431c                	lw	a5,0(a4)
    144c:	4050                	lw	a2,4(s0)
    144e:	4581                	li	a1,0
    1450:	00478693          	addi	a3,a5,4
    1454:	c314                	sw	a3,0(a4)
    1456:	0007a903          	lw	s2,0(a5)
    145a:	854a                	mv	a0,s2
    145c:	264d                	jal	17fe <memchr>
    145e:	c501                	beqz	a0,1466 <_printf_i+0x1fc>
    1460:	41250533          	sub	a0,a0,s2
    1464:	c048                	sw	a0,4(s0)
    1466:	405c                	lw	a5,4(s0)
    1468:	c81c                	sw	a5,16(s0)
    146a:	040401a3          	sb	zero,67(s0)
    146e:	b735                	j	139a <_printf_i+0x130>
    1470:	4814                	lw	a3,16(s0)
    1472:	864a                	mv	a2,s2
    1474:	85d6                	mv	a1,s5
    1476:	8552                	mv	a0,s4
    1478:	9482                	jalr	s1
    147a:	f33509e3          	beq	a0,s3,13ac <_printf_i+0x142>
    147e:	401c                	lw	a5,0(s0)
    1480:	8b89                	andi	a5,a5,2
    1482:	e795                	bnez	a5,14ae <_printf_i+0x244>
    1484:	47f2                	lw	a5,28(sp)
    1486:	4448                	lw	a0,12(s0)
    1488:	f2f553e3          	bge	a0,a5,13ae <_printf_i+0x144>
    148c:	853e                	mv	a0,a5
    148e:	b705                	j	13ae <_printf_i+0x144>
    1490:	4685                	li	a3,1
    1492:	85d6                	mv	a1,s5
    1494:	8552                	mv	a0,s4
    1496:	c632                	sw	a2,12(sp)
    1498:	9482                	jalr	s1
    149a:	f13509e3          	beq	a0,s3,13ac <_printf_i+0x142>
    149e:	4632                	lw	a2,12(sp)
    14a0:	0905                	addi	s2,s2,1
    14a2:	445c                	lw	a5,12(s0)
    14a4:	4772                	lw	a4,28(sp)
    14a6:	8f99                	sub	a5,a5,a4
    14a8:	fef944e3          	blt	s2,a5,1490 <_printf_i+0x226>
    14ac:	bfe1                	j	1484 <_printf_i+0x21a>
    14ae:	4901                	li	s2,0
    14b0:	01940613          	addi	a2,s0,25
    14b4:	b7fd                	j	14a2 <_printf_i+0x238>

000014b6 <std>:
    14b6:	1141                	addi	sp,sp,-16
    14b8:	c422                	sw	s0,8(sp)
    14ba:	c606                	sw	ra,12(sp)
    14bc:	842a                	mv	s0,a0
    14be:	a54e                	.insn	2, 0xa54e
    14c0:	a572                	.insn	2, 0xa572
    14c2:	00052023          	sw	zero,0(a0)
    14c6:	00052223          	sw	zero,4(a0)
    14ca:	00052423          	sw	zero,8(a0)
    14ce:	06052223          	sw	zero,100(a0)
    14d2:	00052823          	sw	zero,16(a0)
    14d6:	00052a23          	sw	zero,20(a0)
    14da:	00052c23          	sw	zero,24(a0)
    14de:	4621                	li	a2,8
    14e0:	4581                	li	a1,0
    14e2:	05c50513          	addi	a0,a0,92
    14e6:	d99fe0ef          	jal	27e <memset>
    14ea:	6785                	lui	a5,0x1
    14ec:	60e78793          	addi	a5,a5,1550 # 160e <__sread>
    14f0:	d05c                	sw	a5,36(s0)
    14f2:	6785                	lui	a5,0x1
    14f4:	63a78793          	addi	a5,a5,1594 # 163a <__swrite>
    14f8:	d41c                	sw	a5,40(s0)
    14fa:	6785                	lui	a5,0x1
    14fc:	68278793          	addi	a5,a5,1666 # 1682 <__sseek>
    1500:	d45c                	sw	a5,44(s0)
    1502:	6785                	lui	a5,0x1
    1504:	6b878793          	addi	a5,a5,1720 # 16b8 <__sclose>
    1508:	40b2                	lw	ra,12(sp)
    150a:	d000                	sw	s0,32(s0)
    150c:	d81c                	sw	a5,48(s0)
    150e:	4422                	lw	s0,8(sp)
    1510:	0141                	addi	sp,sp,16
    1512:	8082                	ret

00001514 <stdio_exit_handler>:
    1514:	20000637          	lui	a2,0x20000
    1518:	6589                	lui	a1,0x2
    151a:	20000537          	lui	a0,0x20000
    151e:	04c60613          	addi	a2,a2,76 # 2000004c <__sglue>
    1522:	bee58593          	addi	a1,a1,-1042 # 1bee <_fflush_r>
    1526:	00050513          	mv	a0,a0
    152a:	a059                	j	15b0 <_fwalk_sglue>

0000152c <cleanup_stdio>:
    152c:	414c                	lw	a1,4(a0)
    152e:	1141                	addi	sp,sp,-16
    1530:	c422                	sw	s0,8(sp)
    1532:	c606                	sw	ra,12(sp)
    1534:	cbc18793          	addi	a5,gp,-836 # 20000514 <__sf>
    1538:	842a                	mv	s0,a0
    153a:	00f58363          	beq	a1,a5,1540 <cleanup_stdio+0x14>
    153e:	2d45                	jal	1bee <_fflush_r>
    1540:	440c                	lw	a1,8(s0)
    1542:	d2418793          	addi	a5,gp,-732 # 2000057c <__sf+0x68>
    1546:	00f58463          	beq	a1,a5,154e <cleanup_stdio+0x22>
    154a:	8522                	mv	a0,s0
    154c:	254d                	jal	1bee <_fflush_r>
    154e:	444c                	lw	a1,12(s0)
    1550:	d8c18793          	addi	a5,gp,-628 # 200005e4 <__sf+0xd0>
    1554:	00f58763          	beq	a1,a5,1562 <cleanup_stdio+0x36>
    1558:	8522                	mv	a0,s0
    155a:	4422                	lw	s0,8(sp)
    155c:	40b2                	lw	ra,12(sp)
    155e:	0141                	addi	sp,sp,16
    1560:	a579                	j	1bee <_fflush_r>
    1562:	40b2                	lw	ra,12(sp)
    1564:	4422                	lw	s0,8(sp)
    1566:	0141                	addi	sp,sp,16
    1568:	8082                	ret

0000156a <global_stdio_init.part.0>:
    156a:	6785                	lui	a5,0x1
    156c:	1141                	addi	sp,sp,-16
    156e:	51478793          	addi	a5,a5,1300 # 1514 <stdio_exit_handler>
    1572:	4601                	li	a2,0
    1574:	4591                	li	a1,4
    1576:	cbc18513          	addi	a0,gp,-836 # 20000514 <__sf>
    157a:	c606                	sw	ra,12(sp)
    157c:	82f1a023          	sw	a5,-2016(gp) # 20000078 <__stdio_exit_handler>
    1580:	3f1d                	jal	14b6 <std>
    1582:	4605                	li	a2,1
    1584:	45a5                	li	a1,9
    1586:	d2418513          	addi	a0,gp,-732 # 2000057c <__sf+0x68>
    158a:	3735                	jal	14b6 <std>
    158c:	40b2                	lw	ra,12(sp)
    158e:	4609                	li	a2,2
    1590:	45c9                	li	a1,18
    1592:	d8c18513          	addi	a0,gp,-628 # 200005e4 <__sf+0xd0>
    1596:	0141                	addi	sp,sp,16
    1598:	bf39                	j	14b6 <std>

0000159a <__sinit>:
    159a:	511c                	lw	a5,32(a0)
    159c:	eb89                	bnez	a5,15ae <__sinit+0x14>
    159e:	6785                	lui	a5,0x1
    15a0:	52c78793          	addi	a5,a5,1324 # 152c <cleanup_stdio>
    15a4:	d11c                	sw	a5,32(a0)
    15a6:	8201a783          	lw	a5,-2016(gp) # 20000078 <__stdio_exit_handler>
    15aa:	e391                	bnez	a5,15ae <__sinit+0x14>
    15ac:	bf7d                	j	156a <global_stdio_init.part.0>
    15ae:	8082                	ret

000015b0 <_fwalk_sglue>:
    15b0:	7179                	addi	sp,sp,-48
    15b2:	d422                	sw	s0,40(sp)
    15b4:	d04a                	sw	s2,32(sp)
    15b6:	ce4e                	sw	s3,28(sp)
    15b8:	cc52                	sw	s4,24(sp)
    15ba:	ca56                	sw	s5,20(sp)
    15bc:	d606                	sw	ra,44(sp)
    15be:	d226                	sw	s1,36(sp)
    15c0:	8a2a                	mv	s4,a0
    15c2:	8aae                	mv	s5,a1
    15c4:	4401                	li	s0,0
    15c6:	4905                	li	s2,1
    15c8:	59fd                	li	s3,-1
    15ca:	460c                	lw	a1,8(a2)
    15cc:	4244                	lw	s1,4(a2)
    15ce:	14fd                	addi	s1,s1,-1
    15d0:	0004de63          	bgez	s1,15ec <_fwalk_sglue+0x3c>
    15d4:	4210                	lw	a2,0(a2)
    15d6:	fa75                	bnez	a2,15ca <_fwalk_sglue+0x1a>
    15d8:	50b2                	lw	ra,44(sp)
    15da:	8522                	mv	a0,s0
    15dc:	5422                	lw	s0,40(sp)
    15de:	5492                	lw	s1,36(sp)
    15e0:	5902                	lw	s2,32(sp)
    15e2:	49f2                	lw	s3,28(sp)
    15e4:	4a62                	lw	s4,24(sp)
    15e6:	4ad2                	lw	s5,20(sp)
    15e8:	6145                	addi	sp,sp,48
    15ea:	8082                	ret
    15ec:	25de                	.insn	2, 0x25de
    15ee:	00f97d63          	bgeu	s2,a5,1608 <_fwalk_sglue+0x58>
    15f2:	00e59783          	lh	a5,14(a1)
    15f6:	01378963          	beq	a5,s3,1608 <_fwalk_sglue+0x58>
    15fa:	8552                	mv	a0,s4
    15fc:	c632                	sw	a2,12(sp)
    15fe:	c42e                	sw	a1,8(sp)
    1600:	9a82                	jalr	s5
    1602:	4632                	lw	a2,12(sp)
    1604:	45a2                	lw	a1,8(sp)
    1606:	8c49                	or	s0,s0,a0
    1608:	06858593          	addi	a1,a1,104
    160c:	b7c9                	j	15ce <_fwalk_sglue+0x1e>

0000160e <__sread>:
    160e:	1141                	addi	sp,sp,-16
    1610:	c422                	sw	s0,8(sp)
    1612:	842e                	mv	s0,a1
    1614:	00e59583          	lh	a1,14(a1)
    1618:	c606                	sw	ra,12(sp)
    161a:	2c91                	jal	186e <_read_r>
    161c:	00054963          	bltz	a0,162e <__sread+0x20>
    1620:	487c                	lw	a5,84(s0)
    1622:	97aa                	add	a5,a5,a0
    1624:	c87c                	sw	a5,84(s0)
    1626:	40b2                	lw	ra,12(sp)
    1628:	4422                	lw	s0,8(sp)
    162a:	0141                	addi	sp,sp,16
    162c:	8082                	ret
    162e:	245e                	.insn	2, 0x245e
    1630:	777d                	lui	a4,0xfffff
    1632:	177d                	addi	a4,a4,-1 # ffffefff <_eusrstack+0xdfff6fff>
    1634:	8ff9                	and	a5,a5,a4
    1636:	a45e                	.insn	2, 0xa45e
    1638:	b7fd                	j	1626 <__sread+0x18>

0000163a <__swrite>:
    163a:	25de                	.insn	2, 0x25de
    163c:	1101                	addi	sp,sp,-32
    163e:	cc22                	sw	s0,24(sp)
    1640:	ca26                	sw	s1,20(sp)
    1642:	c84a                	sw	s2,16(sp)
    1644:	c64e                	sw	s3,12(sp)
    1646:	ce06                	sw	ra,28(sp)
    1648:	1007f793          	andi	a5,a5,256
    164c:	84aa                	mv	s1,a0
    164e:	842e                	mv	s0,a1
    1650:	8932                	mv	s2,a2
    1652:	89b6                	mv	s3,a3
    1654:	c791                	beqz	a5,1660 <__swrite+0x26>
    1656:	00e59583          	lh	a1,14(a1)
    165a:	4689                	li	a3,2
    165c:	4601                	li	a2,0
    165e:	22cd                	jal	1840 <_lseek_r>
    1660:	245e                	.insn	2, 0x245e
    1662:	777d                	lui	a4,0xfffff
    1664:	177d                	addi	a4,a4,-1 # ffffefff <_eusrstack+0xdfff6fff>
    1666:	8ff9                	and	a5,a5,a4
    1668:	00e41583          	lh	a1,14(s0)
    166c:	a45e                	.insn	2, 0xa45e
    166e:	4462                	lw	s0,24(sp)
    1670:	40f2                	lw	ra,28(sp)
    1672:	86ce                	mv	a3,s3
    1674:	864a                	mv	a2,s2
    1676:	49b2                	lw	s3,12(sp)
    1678:	4942                	lw	s2,16(sp)
    167a:	8526                	mv	a0,s1
    167c:	44d2                	lw	s1,20(sp)
    167e:	6105                	addi	sp,sp,32
    1680:	ac31                	j	189c <_write_r>

00001682 <__sseek>:
    1682:	1141                	addi	sp,sp,-16
    1684:	c422                	sw	s0,8(sp)
    1686:	842e                	mv	s0,a1
    1688:	00e59583          	lh	a1,14(a1)
    168c:	c606                	sw	ra,12(sp)
    168e:	2a4d                	jal	1840 <_lseek_r>
    1690:	577d                	li	a4,-1
    1692:	00c41783          	lh	a5,12(s0)
    1696:	00e51c63          	bne	a0,a4,16ae <__sseek+0x2c>
    169a:	80050713          	addi	a4,a0,-2048 # 1ffff800 <_data_lma+0x1fffd910>
    169e:	80070713          	addi	a4,a4,-2048
    16a2:	8ff9                	and	a5,a5,a4
    16a4:	a45e                	.insn	2, 0xa45e
    16a6:	40b2                	lw	ra,12(sp)
    16a8:	4422                	lw	s0,8(sp)
    16aa:	0141                	addi	sp,sp,16
    16ac:	8082                	ret
    16ae:	6705                	lui	a4,0x1
    16b0:	8fd9                	or	a5,a5,a4
    16b2:	a45e                	.insn	2, 0xa45e
    16b4:	c868                	sw	a0,84(s0)
    16b6:	bfc5                	j	16a6 <__sseek+0x24>

000016b8 <__sclose>:
    16b8:	00e59583          	lh	a1,14(a1)
    16bc:	aaa9                	j	1816 <_close_r>

000016be <__swbuf_r>:
    16be:	1101                	addi	sp,sp,-32
    16c0:	cc22                	sw	s0,24(sp)
    16c2:	ca26                	sw	s1,20(sp)
    16c4:	c64e                	sw	s3,12(sp)
    16c6:	ce06                	sw	ra,28(sp)
    16c8:	c84a                	sw	s2,16(sp)
    16ca:	84aa                	mv	s1,a0
    16cc:	89ae                	mv	s3,a1
    16ce:	8432                	mv	s0,a2
    16d0:	c501                	beqz	a0,16d8 <__swbuf_r+0x1a>
    16d2:	511c                	lw	a5,32(a0)
    16d4:	e391                	bnez	a5,16d8 <__swbuf_r+0x1a>
    16d6:	35d1                	jal	159a <__sinit>
    16d8:	4c1c                	lw	a5,24(s0)
    16da:	c41c                	sw	a5,8(s0)
    16dc:	245e                	.insn	2, 0x245e
    16de:	8ba1                	andi	a5,a5,8
    16e0:	c399                	beqz	a5,16e6 <__swbuf_r+0x28>
    16e2:	481c                	lw	a5,16(s0)
    16e4:	ef91                	bnez	a5,1700 <__swbuf_r+0x42>
    16e6:	85a2                	mv	a1,s0
    16e8:	8526                	mv	a0,s1
    16ea:	28b9                	jal	1748 <__swsetup_r>
    16ec:	c911                	beqz	a0,1700 <__swbuf_r+0x42>
    16ee:	597d                	li	s2,-1
    16f0:	40f2                	lw	ra,28(sp)
    16f2:	4462                	lw	s0,24(sp)
    16f4:	44d2                	lw	s1,20(sp)
    16f6:	49b2                	lw	s3,12(sp)
    16f8:	854a                	mv	a0,s2
    16fa:	4942                	lw	s2,16(sp)
    16fc:	6105                	addi	sp,sp,32
    16fe:	8082                	ret
    1700:	481c                	lw	a5,16(s0)
    1702:	4008                	lw	a0,0(s0)
    1704:	8d1d                	sub	a0,a0,a5
    1706:	485c                	lw	a5,20(s0)
    1708:	00f54663          	blt	a0,a5,1714 <__swbuf_r+0x56>
    170c:	85a2                	mv	a1,s0
    170e:	8526                	mv	a0,s1
    1710:	29f9                	jal	1bee <_fflush_r>
    1712:	fd71                	bnez	a0,16ee <__swbuf_r+0x30>
    1714:	441c                	lw	a5,8(s0)
    1716:	0505                	addi	a0,a0,1
    1718:	0ff9f913          	zext.b	s2,s3
    171c:	17fd                	addi	a5,a5,-1
    171e:	c41c                	sw	a5,8(s0)
    1720:	401c                	lw	a5,0(s0)
    1722:	00178713          	addi	a4,a5,1
    1726:	c018                	sw	a4,0(s0)
    1728:	01378023          	sb	s3,0(a5)
    172c:	485c                	lw	a5,20(s0)
    172e:	00a78863          	beq	a5,a0,173e <__swbuf_r+0x80>
    1732:	245e                	.insn	2, 0x245e
    1734:	8b85                	andi	a5,a5,1
    1736:	dfcd                	beqz	a5,16f0 <__swbuf_r+0x32>
    1738:	ff690793          	addi	a5,s2,-10
    173c:	fbd5                	bnez	a5,16f0 <__swbuf_r+0x32>
    173e:	85a2                	mv	a1,s0
    1740:	8526                	mv	a0,s1
    1742:	2175                	jal	1bee <_fflush_r>
    1744:	d555                	beqz	a0,16f0 <__swbuf_r+0x32>
    1746:	b765                	j	16ee <__swbuf_r+0x30>

00001748 <__swsetup_r>:
    1748:	1141                	addi	sp,sp,-16
    174a:	c226                	sw	s1,4(sp)
    174c:	84aa                	mv	s1,a0
    174e:	8081a503          	lw	a0,-2040(gp) # 20000060 <_impure_ptr>
    1752:	c422                	sw	s0,8(sp)
    1754:	c606                	sw	ra,12(sp)
    1756:	842e                	mv	s0,a1
    1758:	c501                	beqz	a0,1760 <__swsetup_r+0x18>
    175a:	511c                	lw	a5,32(a0)
    175c:	e391                	bnez	a5,1760 <__swsetup_r+0x18>
    175e:	3d35                	jal	159a <__sinit>
    1760:	00c41783          	lh	a5,12(s0)
    1764:	0087f713          	andi	a4,a5,8
    1768:	e331                	bnez	a4,17ac <__swsetup_r+0x64>
    176a:	0107f713          	andi	a4,a5,16
    176e:	eb01                	bnez	a4,177e <__swsetup_r+0x36>
    1770:	4725                	li	a4,9
    1772:	c098                	sw	a4,0(s1)
    1774:	0407e793          	ori	a5,a5,64
    1778:	a45e                	.insn	2, 0xa45e
    177a:	557d                	li	a0,-1
    177c:	a0ad                	j	17e6 <__swsetup_r+0x9e>
    177e:	0047f713          	andi	a4,a5,4
    1782:	c315                	beqz	a4,17a6 <__swsetup_r+0x5e>
    1784:	584c                	lw	a1,52(s0)
    1786:	c989                	beqz	a1,1798 <__swsetup_r+0x50>
    1788:	04440793          	addi	a5,s0,68
    178c:	00f58463          	beq	a1,a5,1794 <__swsetup_r+0x4c>
    1790:	8526                	mv	a0,s1
    1792:	2a2d                	jal	18cc <_free_r>
    1794:	02042a23          	sw	zero,52(s0)
    1798:	245e                	.insn	2, 0x245e
    179a:	4818                	lw	a4,16(s0)
    179c:	00042223          	sw	zero,4(s0)
    17a0:	fdb7f793          	andi	a5,a5,-37
    17a4:	c018                	sw	a4,0(s0)
    17a6:	0087e793          	ori	a5,a5,8
    17aa:	a45e                	.insn	2, 0xa45e
    17ac:	481c                	lw	a5,16(s0)
    17ae:	eb99                	bnez	a5,17c4 <__swsetup_r+0x7c>
    17b0:	445c                	lw	a5,12(s0)
    17b2:	20000713          	li	a4,512
    17b6:	2807f793          	andi	a5,a5,640
    17ba:	00e78563          	beq	a5,a4,17c4 <__swsetup_r+0x7c>
    17be:	85a2                	mv	a1,s0
    17c0:	8526                	mv	a0,s1
    17c2:	2965                	jal	1c7a <__smakebuf_r>
    17c4:	00c41783          	lh	a5,12(s0)
    17c8:	0017f713          	andi	a4,a5,1
    17cc:	c315                	beqz	a4,17f0 <__swsetup_r+0xa8>
    17ce:	4858                	lw	a4,20(s0)
    17d0:	00042423          	sw	zero,8(s0)
    17d4:	40e00733          	neg	a4,a4
    17d8:	cc18                	sw	a4,24(s0)
    17da:	4818                	lw	a4,16(s0)
    17dc:	4501                	li	a0,0
    17de:	e701                	bnez	a4,17e6 <__swsetup_r+0x9e>
    17e0:	0807f713          	andi	a4,a5,128
    17e4:	fb41                	bnez	a4,1774 <__swsetup_r+0x2c>
    17e6:	40b2                	lw	ra,12(sp)
    17e8:	4422                	lw	s0,8(sp)
    17ea:	4492                	lw	s1,4(sp)
    17ec:	0141                	addi	sp,sp,16
    17ee:	8082                	ret
    17f0:	0027f713          	andi	a4,a5,2
    17f4:	4681                	li	a3,0
    17f6:	e311                	bnez	a4,17fa <__swsetup_r+0xb2>
    17f8:	4854                	lw	a3,20(s0)
    17fa:	c414                	sw	a3,8(s0)
    17fc:	bff9                	j	17da <__swsetup_r+0x92>

000017fe <memchr>:
    17fe:	0ff5f593          	zext.b	a1,a1
    1802:	962a                	add	a2,a2,a0
    1804:	00c51463          	bne	a0,a2,180c <memchr+0xe>
    1808:	4501                	li	a0,0
    180a:	8082                	ret
    180c:	211c                	.insn	2, 0x211c
    180e:	feb78ee3          	beq	a5,a1,180a <memchr+0xc>
    1812:	0505                	addi	a0,a0,1
    1814:	bfc5                	j	1804 <memchr+0x6>

00001816 <_close_r>:
    1816:	1141                	addi	sp,sp,-16
    1818:	c422                	sw	s0,8(sp)
    181a:	c226                	sw	s1,4(sp)
    181c:	84aa                	mv	s1,a0
    181e:	852e                	mv	a0,a1
    1820:	c606                	sw	ra,12(sp)
    1822:	8201a223          	sw	zero,-2012(gp) # 2000007c <errno>
    1826:	23a9                	jal	1d70 <_close>
    1828:	57fd                	li	a5,-1
    182a:	00f51663          	bne	a0,a5,1836 <_close_r+0x20>
    182e:	8241a783          	lw	a5,-2012(gp) # 2000007c <errno>
    1832:	c391                	beqz	a5,1836 <_close_r+0x20>
    1834:	c09c                	sw	a5,0(s1)
    1836:	40b2                	lw	ra,12(sp)
    1838:	4422                	lw	s0,8(sp)
    183a:	4492                	lw	s1,4(sp)
    183c:	0141                	addi	sp,sp,16
    183e:	8082                	ret

00001840 <_lseek_r>:
    1840:	1141                	addi	sp,sp,-16
    1842:	c422                	sw	s0,8(sp)
    1844:	c226                	sw	s1,4(sp)
    1846:	84aa                	mv	s1,a0
    1848:	852e                	mv	a0,a1
    184a:	85b2                	mv	a1,a2
    184c:	8636                	mv	a2,a3
    184e:	c606                	sw	ra,12(sp)
    1850:	8201a223          	sw	zero,-2012(gp) # 2000007c <errno>
    1854:	2381                	jal	1d94 <_lseek>
    1856:	57fd                	li	a5,-1
    1858:	00f51663          	bne	a0,a5,1864 <_lseek_r+0x24>
    185c:	8241a783          	lw	a5,-2012(gp) # 2000007c <errno>
    1860:	c391                	beqz	a5,1864 <_lseek_r+0x24>
    1862:	c09c                	sw	a5,0(s1)
    1864:	40b2                	lw	ra,12(sp)
    1866:	4422                	lw	s0,8(sp)
    1868:	4492                	lw	s1,4(sp)
    186a:	0141                	addi	sp,sp,16
    186c:	8082                	ret

0000186e <_read_r>:
    186e:	1141                	addi	sp,sp,-16
    1870:	c422                	sw	s0,8(sp)
    1872:	c226                	sw	s1,4(sp)
    1874:	84aa                	mv	s1,a0
    1876:	852e                	mv	a0,a1
    1878:	85b2                	mv	a1,a2
    187a:	8636                	mv	a2,a3
    187c:	c606                	sw	ra,12(sp)
    187e:	8201a223          	sw	zero,-2012(gp) # 2000007c <errno>
    1882:	2b39                	jal	1da0 <_read>
    1884:	57fd                	li	a5,-1
    1886:	00f51663          	bne	a0,a5,1892 <_read_r+0x24>
    188a:	8241a783          	lw	a5,-2012(gp) # 2000007c <errno>
    188e:	c391                	beqz	a5,1892 <_read_r+0x24>
    1890:	c09c                	sw	a5,0(s1)
    1892:	40b2                	lw	ra,12(sp)
    1894:	4422                	lw	s0,8(sp)
    1896:	4492                	lw	s1,4(sp)
    1898:	0141                	addi	sp,sp,16
    189a:	8082                	ret

0000189c <_write_r>:
    189c:	1141                	addi	sp,sp,-16
    189e:	c422                	sw	s0,8(sp)
    18a0:	c226                	sw	s1,4(sp)
    18a2:	84aa                	mv	s1,a0
    18a4:	852e                	mv	a0,a1
    18a6:	85b2                	mv	a1,a2
    18a8:	8636                	mv	a2,a3
    18aa:	c606                	sw	ra,12(sp)
    18ac:	8201a223          	sw	zero,-2012(gp) # 2000007c <errno>
    18b0:	a36ff0ef          	jal	ae6 <_write>
    18b4:	57fd                	li	a5,-1
    18b6:	00f51663          	bne	a0,a5,18c2 <_write_r+0x26>
    18ba:	8241a783          	lw	a5,-2012(gp) # 2000007c <errno>
    18be:	c391                	beqz	a5,18c2 <_write_r+0x26>
    18c0:	c09c                	sw	a5,0(s1)
    18c2:	40b2                	lw	ra,12(sp)
    18c4:	4422                	lw	s0,8(sp)
    18c6:	4492                	lw	s1,4(sp)
    18c8:	0141                	addi	sp,sp,16
    18ca:	8082                	ret

000018cc <_free_r>:
    18cc:	cdd1                	beqz	a1,1968 <_free_r+0x9c>
    18ce:	ffc5a783          	lw	a5,-4(a1)
    18d2:	1101                	addi	sp,sp,-32
    18d4:	cc22                	sw	s0,24(sp)
    18d6:	ce06                	sw	ra,28(sp)
    18d8:	ffc58413          	addi	s0,a1,-4
    18dc:	0007d363          	bgez	a5,18e2 <_free_r+0x16>
    18e0:	943e                	add	s0,s0,a5
    18e2:	c62a                	sw	a0,12(sp)
    18e4:	22e5                	jal	1acc <__malloc_lock>
    18e6:	82c1a783          	lw	a5,-2004(gp) # 20000084 <__malloc_free_list>
    18ea:	4532                	lw	a0,12(sp)
    18ec:	eb89                	bnez	a5,18fe <_free_r+0x32>
    18ee:	00042223          	sw	zero,4(s0)
    18f2:	8281a623          	sw	s0,-2004(gp) # 20000084 <__malloc_free_list>
    18f6:	4462                	lw	s0,24(sp)
    18f8:	40f2                	lw	ra,28(sp)
    18fa:	6105                	addi	sp,sp,32
    18fc:	aac9                	j	1ace <__malloc_unlock>
    18fe:	00f47d63          	bgeu	s0,a5,1918 <_free_r+0x4c>
    1902:	4010                	lw	a2,0(s0)
    1904:	00c406b3          	add	a3,s0,a2
    1908:	00d79663          	bne	a5,a3,1914 <_free_r+0x48>
    190c:	4394                	lw	a3,0(a5)
    190e:	43dc                	lw	a5,4(a5)
    1910:	96b2                	add	a3,a3,a2
    1912:	c014                	sw	a3,0(s0)
    1914:	c05c                	sw	a5,4(s0)
    1916:	bff1                	j	18f2 <_free_r+0x26>
    1918:	873e                	mv	a4,a5
    191a:	43dc                	lw	a5,4(a5)
    191c:	c399                	beqz	a5,1922 <_free_r+0x56>
    191e:	fef47de3          	bgeu	s0,a5,1918 <_free_r+0x4c>
    1922:	4314                	lw	a3,0(a4)
    1924:	00d70633          	add	a2,a4,a3
    1928:	00861f63          	bne	a2,s0,1946 <_free_r+0x7a>
    192c:	4010                	lw	a2,0(s0)
    192e:	96b2                	add	a3,a3,a2
    1930:	c314                	sw	a3,0(a4)
    1932:	00d70633          	add	a2,a4,a3
    1936:	fcc790e3          	bne	a5,a2,18f6 <_free_r+0x2a>
    193a:	4390                	lw	a2,0(a5)
    193c:	43dc                	lw	a5,4(a5)
    193e:	96b2                	add	a3,a3,a2
    1940:	c314                	sw	a3,0(a4)
    1942:	c35c                	sw	a5,4(a4)
    1944:	bf4d                	j	18f6 <_free_r+0x2a>
    1946:	00c47563          	bgeu	s0,a2,1950 <_free_r+0x84>
    194a:	47b1                	li	a5,12
    194c:	c11c                	sw	a5,0(a0)
    194e:	b765                	j	18f6 <_free_r+0x2a>
    1950:	4010                	lw	a2,0(s0)
    1952:	00c406b3          	add	a3,s0,a2
    1956:	00d79663          	bne	a5,a3,1962 <_free_r+0x96>
    195a:	4394                	lw	a3,0(a5)
    195c:	43dc                	lw	a5,4(a5)
    195e:	96b2                	add	a3,a3,a2
    1960:	c014                	sw	a3,0(s0)
    1962:	c05c                	sw	a5,4(s0)
    1964:	c340                	sw	s0,4(a4)
    1966:	bf41                	j	18f6 <_free_r+0x2a>
    1968:	8082                	ret

0000196a <sbrk_aligned>:
    196a:	1141                	addi	sp,sp,-16
    196c:	c422                	sw	s0,8(sp)
    196e:	8281a783          	lw	a5,-2008(gp) # 20000080 <__malloc_sbrk_start>
    1972:	c226                	sw	s1,4(sp)
    1974:	c04a                	sw	s2,0(sp)
    1976:	c606                	sw	ra,12(sp)
    1978:	892a                	mv	s2,a0
    197a:	84ae                	mv	s1,a1
    197c:	e789                	bnez	a5,1986 <sbrk_aligned+0x1c>
    197e:	4581                	li	a1,0
    1980:	26d1                	jal	1d44 <_sbrk_r>
    1982:	82a1a423          	sw	a0,-2008(gp) # 20000080 <__malloc_sbrk_start>
    1986:	85a6                	mv	a1,s1
    1988:	854a                	mv	a0,s2
    198a:	2e6d                	jal	1d44 <_sbrk_r>
    198c:	54fd                	li	s1,-1
    198e:	00951a63          	bne	a0,s1,19a2 <sbrk_aligned+0x38>
    1992:	547d                	li	s0,-1
    1994:	40b2                	lw	ra,12(sp)
    1996:	8522                	mv	a0,s0
    1998:	4422                	lw	s0,8(sp)
    199a:	4492                	lw	s1,4(sp)
    199c:	4902                	lw	s2,0(sp)
    199e:	0141                	addi	sp,sp,16
    19a0:	8082                	ret
    19a2:	00350413          	addi	s0,a0,3
    19a6:	9871                	andi	s0,s0,-4
    19a8:	fe8506e3          	beq	a0,s0,1994 <sbrk_aligned+0x2a>
    19ac:	40a405b3          	sub	a1,s0,a0
    19b0:	854a                	mv	a0,s2
    19b2:	2e49                	jal	1d44 <_sbrk_r>
    19b4:	fe9510e3          	bne	a0,s1,1994 <sbrk_aligned+0x2a>
    19b8:	bfe9                	j	1992 <sbrk_aligned+0x28>

000019ba <_malloc_r>:
    19ba:	1101                	addi	sp,sp,-32
    19bc:	ca26                	sw	s1,20(sp)
    19be:	00358493          	addi	s1,a1,3
    19c2:	98f1                	andi	s1,s1,-4
    19c4:	ce06                	sw	ra,28(sp)
    19c6:	cc22                	sw	s0,24(sp)
    19c8:	c84a                	sw	s2,16(sp)
    19ca:	c64e                	sw	s3,12(sp)
    19cc:	c452                	sw	s4,8(sp)
    19ce:	04a1                	addi	s1,s1,8
    19d0:	47b1                	li	a5,12
    19d2:	00f4f363          	bgeu	s1,a5,19d8 <_malloc_r+0x1e>
    19d6:	84be                	mv	s1,a5
    19d8:	0004c463          	bltz	s1,19e0 <_malloc_r+0x26>
    19dc:	00b4fd63          	bgeu	s1,a1,19f6 <_malloc_r+0x3c>
    19e0:	47b1                	li	a5,12
    19e2:	c11c                	sw	a5,0(a0)
    19e4:	4501                	li	a0,0
    19e6:	40f2                	lw	ra,28(sp)
    19e8:	4462                	lw	s0,24(sp)
    19ea:	44d2                	lw	s1,20(sp)
    19ec:	4942                	lw	s2,16(sp)
    19ee:	49b2                	lw	s3,12(sp)
    19f0:	4a22                	lw	s4,8(sp)
    19f2:	6105                	addi	sp,sp,32
    19f4:	8082                	ret
    19f6:	892a                	mv	s2,a0
    19f8:	28d1                	jal	1acc <__malloc_lock>
    19fa:	82c1a783          	lw	a5,-2004(gp) # 20000084 <__malloc_free_list>
    19fe:	843e                	mv	s0,a5
    1a00:	e439                	bnez	s0,1a4e <_malloc_r+0x94>
    1a02:	85a6                	mv	a1,s1
    1a04:	854a                	mv	a0,s2
    1a06:	3795                	jal	196a <sbrk_aligned>
    1a08:	57fd                	li	a5,-1
    1a0a:	842a                	mv	s0,a0
    1a0c:	0af51e63          	bne	a0,a5,1ac8 <_malloc_r+0x10e>
    1a10:	82c1a403          	lw	s0,-2004(gp) # 20000084 <__malloc_free_list>
    1a14:	87a2                	mv	a5,s0
    1a16:	ebc9                	bnez	a5,1aa8 <_malloc_r+0xee>
    1a18:	c055                	beqz	s0,1abc <_malloc_r+0x102>
    1a1a:	00042a03          	lw	s4,0(s0)
    1a1e:	4581                	li	a1,0
    1a20:	854a                	mv	a0,s2
    1a22:	9a22                	add	s4,s4,s0
    1a24:	2605                	jal	1d44 <_sbrk_r>
    1a26:	08aa1b63          	bne	s4,a0,1abc <_malloc_r+0x102>
    1a2a:	401c                	lw	a5,0(s0)
    1a2c:	854a                	mv	a0,s2
    1a2e:	8c9d                	sub	s1,s1,a5
    1a30:	85a6                	mv	a1,s1
    1a32:	3f25                	jal	196a <sbrk_aligned>
    1a34:	57fd                	li	a5,-1
    1a36:	08f50363          	beq	a0,a5,1abc <_malloc_r+0x102>
    1a3a:	401c                	lw	a5,0(s0)
    1a3c:	97a6                	add	a5,a5,s1
    1a3e:	c01c                	sw	a5,0(s0)
    1a40:	82c1a783          	lw	a5,-2004(gp) # 20000084 <__malloc_free_list>
    1a44:	43d8                	lw	a4,4(a5)
    1a46:	e725                	bnez	a4,1aae <_malloc_r+0xf4>
    1a48:	8201a623          	sw	zero,-2004(gp) # 20000084 <__malloc_free_list>
    1a4c:	a015                	j	1a70 <_malloc_r+0xb6>
    1a4e:	4014                	lw	a3,0(s0)
    1a50:	8e85                	sub	a3,a3,s1
    1a52:	0406c863          	bltz	a3,1aa2 <_malloc_r+0xe8>
    1a56:	472d                	li	a4,11
    1a58:	02d77d63          	bgeu	a4,a3,1a92 <_malloc_r+0xd8>
    1a5c:	c004                	sw	s1,0(s0)
    1a5e:	00940733          	add	a4,s0,s1
    1a62:	02879663          	bne	a5,s0,1a8e <_malloc_r+0xd4>
    1a66:	82e1a623          	sw	a4,-2004(gp) # 20000084 <__malloc_free_list>
    1a6a:	405c                	lw	a5,4(s0)
    1a6c:	c314                	sw	a3,0(a4)
    1a6e:	c35c                	sw	a5,4(a4)
    1a70:	854a                	mv	a0,s2
    1a72:	28b1                	jal	1ace <__malloc_unlock>
    1a74:	00b40513          	addi	a0,s0,11
    1a78:	00440793          	addi	a5,s0,4
    1a7c:	9961                	andi	a0,a0,-8
    1a7e:	40f50733          	sub	a4,a0,a5
    1a82:	f6f502e3          	beq	a0,a5,19e6 <_malloc_r+0x2c>
    1a86:	943a                	add	s0,s0,a4
    1a88:	8f89                	sub	a5,a5,a0
    1a8a:	c01c                	sw	a5,0(s0)
    1a8c:	bfa9                	j	19e6 <_malloc_r+0x2c>
    1a8e:	c3d8                	sw	a4,4(a5)
    1a90:	bfe9                	j	1a6a <_malloc_r+0xb0>
    1a92:	4058                	lw	a4,4(s0)
    1a94:	00879563          	bne	a5,s0,1a9e <_malloc_r+0xe4>
    1a98:	82e1a623          	sw	a4,-2004(gp) # 20000084 <__malloc_free_list>
    1a9c:	bfd1                	j	1a70 <_malloc_r+0xb6>
    1a9e:	c3d8                	sw	a4,4(a5)
    1aa0:	bfc1                	j	1a70 <_malloc_r+0xb6>
    1aa2:	87a2                	mv	a5,s0
    1aa4:	4040                	lw	s0,4(s0)
    1aa6:	bfa9                	j	1a00 <_malloc_r+0x46>
    1aa8:	843e                	mv	s0,a5
    1aaa:	43dc                	lw	a5,4(a5)
    1aac:	b7ad                	j	1a16 <_malloc_r+0x5c>
    1aae:	873e                	mv	a4,a5
    1ab0:	43dc                	lw	a5,4(a5)
    1ab2:	fe879ee3          	bne	a5,s0,1aae <_malloc_r+0xf4>
    1ab6:	00072223          	sw	zero,4(a4) # 1004 <_vfiprintf_r+0xec>
    1aba:	bf5d                	j	1a70 <_malloc_r+0xb6>
    1abc:	47b1                	li	a5,12
    1abe:	00f92023          	sw	a5,0(s2)
    1ac2:	854a                	mv	a0,s2
    1ac4:	2029                	jal	1ace <__malloc_unlock>
    1ac6:	bf39                	j	19e4 <_malloc_r+0x2a>
    1ac8:	c104                	sw	s1,0(a0)
    1aca:	b75d                	j	1a70 <_malloc_r+0xb6>

00001acc <__malloc_lock>:
    1acc:	8082                	ret

00001ace <__malloc_unlock>:
    1ace:	8082                	ret

00001ad0 <__sflush_r>:
    1ad0:	00c59783          	lh	a5,12(a1)
    1ad4:	1101                	addi	sp,sp,-32
    1ad6:	cc22                	sw	s0,24(sp)
    1ad8:	ca26                	sw	s1,20(sp)
    1ada:	ce06                	sw	ra,28(sp)
    1adc:	c84a                	sw	s2,16(sp)
    1ade:	0087f713          	andi	a4,a5,8
    1ae2:	84aa                	mv	s1,a0
    1ae4:	842e                	mv	s0,a1
    1ae6:	ef5d                	bnez	a4,1ba4 <__sflush_r+0xd4>
    1ae8:	41d8                	lw	a4,4(a1)
    1aea:	00e04563          	bgtz	a4,1af4 <__sflush_r+0x24>
    1aee:	41b8                	lw	a4,64(a1)
    1af0:	0ae05863          	blez	a4,1ba0 <__sflush_r+0xd0>
    1af4:	5458                	lw	a4,44(s0)
    1af6:	c74d                	beqz	a4,1ba0 <__sflush_r+0xd0>
    1af8:	0004a903          	lw	s2,0(s1)
    1afc:	01379693          	slli	a3,a5,0x13
    1b00:	0004a023          	sw	zero,0(s1)
    1b04:	0606dc63          	bgez	a3,1b7c <__sflush_r+0xac>
    1b08:	4870                	lw	a2,84(s0)
    1b0a:	245e                	.insn	2, 0x245e
    1b0c:	8b91                	andi	a5,a5,4
    1b0e:	c799                	beqz	a5,1b1c <__sflush_r+0x4c>
    1b10:	405c                	lw	a5,4(s0)
    1b12:	8e1d                	sub	a2,a2,a5
    1b14:	585c                	lw	a5,52(s0)
    1b16:	c399                	beqz	a5,1b1c <__sflush_r+0x4c>
    1b18:	403c                	lw	a5,64(s0)
    1b1a:	8e1d                	sub	a2,a2,a5
    1b1c:	545c                	lw	a5,44(s0)
    1b1e:	500c                	lw	a1,32(s0)
    1b20:	4681                	li	a3,0
    1b22:	8526                	mv	a0,s1
    1b24:	9782                	jalr	a5
    1b26:	577d                	li	a4,-1
    1b28:	00c41783          	lh	a5,12(s0)
    1b2c:	00e51d63          	bne	a0,a4,1b46 <__sflush_r+0x76>
    1b30:	4094                	lw	a3,0(s1)
    1b32:	4775                	li	a4,29
    1b34:	08d76f63          	bltu	a4,a3,1bd2 <__sflush_r+0x102>
    1b38:	20400737          	lui	a4,0x20400
    1b3c:	0705                	addi	a4,a4,1 # 20400001 <_eusrstack+0x3f8001>
    1b3e:	00d75733          	srl	a4,a4,a3
    1b42:	8b05                	andi	a4,a4,1
    1b44:	c759                	beqz	a4,1bd2 <__sflush_r+0x102>
    1b46:	4818                	lw	a4,16(s0)
    1b48:	00042223          	sw	zero,4(s0)
    1b4c:	c018                	sw	a4,0(s0)
    1b4e:	01379713          	slli	a4,a5,0x13
    1b52:	00075863          	bgez	a4,1b62 <__sflush_r+0x92>
    1b56:	57fd                	li	a5,-1
    1b58:	00f51463          	bne	a0,a5,1b60 <__sflush_r+0x90>
    1b5c:	409c                	lw	a5,0(s1)
    1b5e:	e391                	bnez	a5,1b62 <__sflush_r+0x92>
    1b60:	c868                	sw	a0,84(s0)
    1b62:	584c                	lw	a1,52(s0)
    1b64:	0124a023          	sw	s2,0(s1)
    1b68:	cd85                	beqz	a1,1ba0 <__sflush_r+0xd0>
    1b6a:	04440793          	addi	a5,s0,68
    1b6e:	00f58463          	beq	a1,a5,1b76 <__sflush_r+0xa6>
    1b72:	8526                	mv	a0,s1
    1b74:	3ba1                	jal	18cc <_free_r>
    1b76:	02042a23          	sw	zero,52(s0)
    1b7a:	a01d                	j	1ba0 <__sflush_r+0xd0>
    1b7c:	500c                	lw	a1,32(s0)
    1b7e:	4601                	li	a2,0
    1b80:	4685                	li	a3,1
    1b82:	8526                	mv	a0,s1
    1b84:	9702                	jalr	a4
    1b86:	57fd                	li	a5,-1
    1b88:	862a                	mv	a2,a0
    1b8a:	f8f510e3          	bne	a0,a5,1b0a <__sflush_r+0x3a>
    1b8e:	409c                	lw	a5,0(s1)
    1b90:	dfad                	beqz	a5,1b0a <__sflush_r+0x3a>
    1b92:	fe378713          	addi	a4,a5,-29
    1b96:	c319                	beqz	a4,1b9c <__sflush_r+0xcc>
    1b98:	17a9                	addi	a5,a5,-22
    1b9a:	eb9d                	bnez	a5,1bd0 <__sflush_r+0x100>
    1b9c:	0124a023          	sw	s2,0(s1)
    1ba0:	4501                	li	a0,0
    1ba2:	a825                	j	1bda <__sflush_r+0x10a>
    1ba4:	4990                	lw	a2,16(a1)
    1ba6:	de6d                	beqz	a2,1ba0 <__sflush_r+0xd0>
    1ba8:	4194                	lw	a3,0(a1)
    1baa:	8b8d                	andi	a5,a5,3
    1bac:	c190                	sw	a2,0(a1)
    1bae:	40c68933          	sub	s2,a3,a2
    1bb2:	4701                	li	a4,0
    1bb4:	e391                	bnez	a5,1bb8 <__sflush_r+0xe8>
    1bb6:	49d8                	lw	a4,20(a1)
    1bb8:	c418                	sw	a4,8(s0)
    1bba:	ff2053e3          	blez	s2,1ba0 <__sflush_r+0xd0>
    1bbe:	541c                	lw	a5,40(s0)
    1bc0:	500c                	lw	a1,32(s0)
    1bc2:	86ca                	mv	a3,s2
    1bc4:	8526                	mv	a0,s1
    1bc6:	c632                	sw	a2,12(sp)
    1bc8:	9782                	jalr	a5
    1bca:	4632                	lw	a2,12(sp)
    1bcc:	00a04d63          	bgtz	a0,1be6 <__sflush_r+0x116>
    1bd0:	245e                	.insn	2, 0x245e
    1bd2:	0407e793          	ori	a5,a5,64
    1bd6:	a45e                	.insn	2, 0xa45e
    1bd8:	557d                	li	a0,-1
    1bda:	40f2                	lw	ra,28(sp)
    1bdc:	4462                	lw	s0,24(sp)
    1bde:	44d2                	lw	s1,20(sp)
    1be0:	4942                	lw	s2,16(sp)
    1be2:	6105                	addi	sp,sp,32
    1be4:	8082                	ret
    1be6:	962a                	add	a2,a2,a0
    1be8:	40a90933          	sub	s2,s2,a0
    1bec:	b7f9                	j	1bba <__sflush_r+0xea>

00001bee <_fflush_r>:
    1bee:	499c                	lw	a5,16(a1)
    1bf0:	cb8d                	beqz	a5,1c22 <_fflush_r+0x34>
    1bf2:	1101                	addi	sp,sp,-32
    1bf4:	cc22                	sw	s0,24(sp)
    1bf6:	ce06                	sw	ra,28(sp)
    1bf8:	842a                	mv	s0,a0
    1bfa:	c519                	beqz	a0,1c08 <_fflush_r+0x1a>
    1bfc:	511c                	lw	a5,32(a0)
    1bfe:	e789                	bnez	a5,1c08 <_fflush_r+0x1a>
    1c00:	c62e                	sw	a1,12(sp)
    1c02:	999ff0ef          	jal	159a <__sinit>
    1c06:	45b2                	lw	a1,12(sp)
    1c08:	00c59783          	lh	a5,12(a1)
    1c0c:	c791                	beqz	a5,1c18 <_fflush_r+0x2a>
    1c0e:	8522                	mv	a0,s0
    1c10:	4462                	lw	s0,24(sp)
    1c12:	40f2                	lw	ra,28(sp)
    1c14:	6105                	addi	sp,sp,32
    1c16:	bd6d                	j	1ad0 <__sflush_r>
    1c18:	40f2                	lw	ra,28(sp)
    1c1a:	4462                	lw	s0,24(sp)
    1c1c:	4501                	li	a0,0
    1c1e:	6105                	addi	sp,sp,32
    1c20:	8082                	ret
    1c22:	4501                	li	a0,0
    1c24:	8082                	ret

00001c26 <__swhatbuf_r>:
    1c26:	7119                	addi	sp,sp,-128
    1c28:	dca2                	sw	s0,120(sp)
    1c2a:	842e                	mv	s0,a1
    1c2c:	00e59583          	lh	a1,14(a1)
    1c30:	daa6                	sw	s1,116(sp)
    1c32:	de86                	sw	ra,124(sp)
    1c34:	84b2                	mv	s1,a2
    1c36:	0205d063          	bgez	a1,1c56 <__swhatbuf_r+0x30>
    1c3a:	245e                	.insn	2, 0x245e
    1c3c:	0807f793          	andi	a5,a5,128
    1c40:	eb8d                	bnez	a5,1c72 <__swhatbuf_r+0x4c>
    1c42:	40000713          	li	a4,1024
    1c46:	50f6                	lw	ra,124(sp)
    1c48:	5466                	lw	s0,120(sp)
    1c4a:	c29c                	sw	a5,0(a3)
    1c4c:	c098                	sw	a4,0(s1)
    1c4e:	4501                	li	a0,0
    1c50:	54d6                	lw	s1,116(sp)
    1c52:	6109                	addi	sp,sp,128
    1c54:	8082                	ret
    1c56:	0830                	addi	a2,sp,24
    1c58:	c636                	sw	a3,12(sp)
    1c5a:	2851                	jal	1cee <_fstat_r>
    1c5c:	46b2                	lw	a3,12(sp)
    1c5e:	fc054ee3          	bltz	a0,1c3a <__swhatbuf_r+0x14>
    1c62:	47f2                	lw	a5,28(sp)
    1c64:	673d                	lui	a4,0xf
    1c66:	8ff9                	and	a5,a5,a4
    1c68:	7779                	lui	a4,0xffffe
    1c6a:	97ba                	add	a5,a5,a4
    1c6c:	0017b793          	seqz	a5,a5
    1c70:	bfc9                	j	1c42 <__swhatbuf_r+0x1c>
    1c72:	4781                	li	a5,0
    1c74:	04000713          	li	a4,64
    1c78:	b7f9                	j	1c46 <__swhatbuf_r+0x20>

00001c7a <__smakebuf_r>:
    1c7a:	25da                	.insn	2, 0x25da
    1c7c:	7179                	addi	sp,sp,-48
    1c7e:	d422                	sw	s0,40(sp)
    1c80:	d606                	sw	ra,44(sp)
    1c82:	d226                	sw	s1,36(sp)
    1c84:	8b09                	andi	a4,a4,2
    1c86:	842e                	mv	s0,a1
    1c88:	cf01                	beqz	a4,1ca0 <__smakebuf_r+0x26>
    1c8a:	04740793          	addi	a5,s0,71
    1c8e:	c01c                	sw	a5,0(s0)
    1c90:	c81c                	sw	a5,16(s0)
    1c92:	4785                	li	a5,1
    1c94:	c85c                	sw	a5,20(s0)
    1c96:	50b2                	lw	ra,44(sp)
    1c98:	5422                	lw	s0,40(sp)
    1c9a:	5492                	lw	s1,36(sp)
    1c9c:	6145                	addi	sp,sp,48
    1c9e:	8082                	ret
    1ca0:	0874                	addi	a3,sp,28
    1ca2:	0830                	addi	a2,sp,24
    1ca4:	84aa                	mv	s1,a0
    1ca6:	3741                	jal	1c26 <__swhatbuf_r>
    1ca8:	45e2                	lw	a1,24(sp)
    1caa:	8526                	mv	a0,s1
    1cac:	c62e                	sw	a1,12(sp)
    1cae:	3331                	jal	19ba <_malloc_r>
    1cb0:	00c41783          	lh	a5,12(s0)
    1cb4:	45b2                	lw	a1,12(sp)
    1cb6:	e909                	bnez	a0,1cc8 <__smakebuf_r+0x4e>
    1cb8:	2007f713          	andi	a4,a5,512
    1cbc:	ff69                	bnez	a4,1c96 <__smakebuf_r+0x1c>
    1cbe:	9bf1                	andi	a5,a5,-4
    1cc0:	0027e793          	ori	a5,a5,2
    1cc4:	a45e                	.insn	2, 0xa45e
    1cc6:	b7d1                	j	1c8a <__smakebuf_r+0x10>
    1cc8:	0807e793          	ori	a5,a5,128
    1ccc:	a45e                	.insn	2, 0xa45e
    1cce:	47f2                	lw	a5,28(sp)
    1cd0:	c008                	sw	a0,0(s0)
    1cd2:	c808                	sw	a0,16(s0)
    1cd4:	c84c                	sw	a1,20(s0)
    1cd6:	d3e1                	beqz	a5,1c96 <__smakebuf_r+0x1c>
    1cd8:	00e41583          	lh	a1,14(s0)
    1cdc:	8526                	mv	a0,s1
    1cde:	2835                	jal	1d1a <_isatty_r>
    1ce0:	d95d                	beqz	a0,1c96 <__smakebuf_r+0x1c>
    1ce2:	245e                	.insn	2, 0x245e
    1ce4:	9bf1                	andi	a5,a5,-4
    1ce6:	0017e793          	ori	a5,a5,1
    1cea:	a45e                	.insn	2, 0xa45e
    1cec:	b76d                	j	1c96 <__smakebuf_r+0x1c>

00001cee <_fstat_r>:
    1cee:	1141                	addi	sp,sp,-16
    1cf0:	c422                	sw	s0,8(sp)
    1cf2:	c226                	sw	s1,4(sp)
    1cf4:	84aa                	mv	s1,a0
    1cf6:	852e                	mv	a0,a1
    1cf8:	85b2                	mv	a1,a2
    1cfa:	c606                	sw	ra,12(sp)
    1cfc:	8201a223          	sw	zero,-2012(gp) # 2000007c <errno>
    1d00:	28b5                	jal	1d7c <_fstat>
    1d02:	57fd                	li	a5,-1
    1d04:	00f51663          	bne	a0,a5,1d10 <_fstat_r+0x22>
    1d08:	8241a783          	lw	a5,-2012(gp) # 2000007c <errno>
    1d0c:	c391                	beqz	a5,1d10 <_fstat_r+0x22>
    1d0e:	c09c                	sw	a5,0(s1)
    1d10:	40b2                	lw	ra,12(sp)
    1d12:	4422                	lw	s0,8(sp)
    1d14:	4492                	lw	s1,4(sp)
    1d16:	0141                	addi	sp,sp,16
    1d18:	8082                	ret

00001d1a <_isatty_r>:
    1d1a:	1141                	addi	sp,sp,-16
    1d1c:	c422                	sw	s0,8(sp)
    1d1e:	c226                	sw	s1,4(sp)
    1d20:	84aa                	mv	s1,a0
    1d22:	852e                	mv	a0,a1
    1d24:	c606                	sw	ra,12(sp)
    1d26:	8201a223          	sw	zero,-2012(gp) # 2000007c <errno>
    1d2a:	28b9                	jal	1d88 <_isatty>
    1d2c:	57fd                	li	a5,-1
    1d2e:	00f51663          	bne	a0,a5,1d3a <_isatty_r+0x20>
    1d32:	8241a783          	lw	a5,-2012(gp) # 2000007c <errno>
    1d36:	c391                	beqz	a5,1d3a <_isatty_r+0x20>
    1d38:	c09c                	sw	a5,0(s1)
    1d3a:	40b2                	lw	ra,12(sp)
    1d3c:	4422                	lw	s0,8(sp)
    1d3e:	4492                	lw	s1,4(sp)
    1d40:	0141                	addi	sp,sp,16
    1d42:	8082                	ret

00001d44 <_sbrk_r>:
    1d44:	1141                	addi	sp,sp,-16
    1d46:	c422                	sw	s0,8(sp)
    1d48:	c226                	sw	s1,4(sp)
    1d4a:	84aa                	mv	s1,a0
    1d4c:	852e                	mv	a0,a1
    1d4e:	c606                	sw	ra,12(sp)
    1d50:	8201a223          	sw	zero,-2012(gp) # 2000007c <errno>
    1d54:	dd1fe0ef          	jal	b24 <_sbrk>
    1d58:	57fd                	li	a5,-1
    1d5a:	00f51663          	bne	a0,a5,1d66 <_sbrk_r+0x22>
    1d5e:	8241a783          	lw	a5,-2012(gp) # 2000007c <errno>
    1d62:	c391                	beqz	a5,1d66 <_sbrk_r+0x22>
    1d64:	c09c                	sw	a5,0(s1)
    1d66:	40b2                	lw	ra,12(sp)
    1d68:	4422                	lw	s0,8(sp)
    1d6a:	4492                	lw	s1,4(sp)
    1d6c:	0141                	addi	sp,sp,16
    1d6e:	8082                	ret

00001d70 <_close>:
    1d70:	05800713          	li	a4,88
    1d74:	82e1a223          	sw	a4,-2012(gp) # 2000007c <errno>
    1d78:	557d                	li	a0,-1
    1d7a:	8082                	ret

00001d7c <_fstat>:
    1d7c:	05800713          	li	a4,88
    1d80:	82e1a223          	sw	a4,-2012(gp) # 2000007c <errno>
    1d84:	557d                	li	a0,-1
    1d86:	8082                	ret

00001d88 <_isatty>:
    1d88:	05800713          	li	a4,88
    1d8c:	82e1a223          	sw	a4,-2012(gp) # 2000007c <errno>
    1d90:	4501                	li	a0,0
    1d92:	8082                	ret

00001d94 <_lseek>:
    1d94:	05800713          	li	a4,88
    1d98:	82e1a223          	sw	a4,-2012(gp) # 2000007c <errno>
    1d9c:	557d                	li	a0,-1
    1d9e:	8082                	ret

00001da0 <_read>:
    1da0:	05800713          	li	a4,88
    1da4:	82e1a223          	sw	a4,-2012(gp) # 2000007c <errno>
    1da8:	557d                	li	a0,-1
    1daa:	8082                	ret
    1dac:	1a80                	addi	s0,sp,368
    1dae:	0006                	c.slli	zero,0x1
    1db0:	0000                	unimp
    1db2:	4000                	lw	s0,0(s0)
    1db4:	0008                	.insn	2, 0x0008
    1db6:	0400                	addi	s0,sp,512
    1db8:	4000                	lw	s0,0(s0)
    1dba:	0000                	unimp
    1dbc:	0300                	addi	s0,sp,384
    1dbe:	0000                	unimp
    1dc0:	00000003          	lb	zero,0(zero) # 0 <_sinit>
    1dc4:	001c                	.insn	2, 0x001c
    1dc6:	0000                	unimp
    1dc8:	98d0                	.insn	2, 0x98d0
    1dca:	bdd0                	.insn	2, 0xbdd0
    1dcc:	b8d0                	.insn	2, 0xb8d0
    1dce:	86d1                	srai	a3,a3,0x14
    1dd0:	b8d0                	.insn	2, 0xb8d0
    1dd2:	b0d0                	.insn	2, 0xb0d0
    1dd4:	bbd0                	.insn	2, 0xbbd0
    1dd6:	b8d0                	.insn	2, 0xb8d0
    1dd8:	b7d0                	.insn	2, 0xb7d0
    1dda:	b0d0                	.insn	2, 0xb0d0
    1ddc:	86d1                	srai	a3,a3,0x14
    1dde:	b8d0                	.insn	2, 0xb8d0
    1de0:	8fd1                	or	a5,a5,a2
    1de2:	4920                	lw	s0,80(a0)
    1de4:	4332                	lw	t1,12(sp)
    1de6:	0000                	unimp
    1de8:	0000                	unimp
    1dea:	0000                	unimp
    1dec:	98d0                	.insn	2, 0x98d0
    1dee:	bdd0                	.insn	2, 0xbdd0
    1df0:	b8d0                	.insn	2, 0xb8d0
    1df2:	86d1                	srai	a3,a3,0x14
    1df4:	b8d0                	.insn	2, 0xb8d0
    1df6:	b0d0                	.insn	2, 0xb0d0
    1df8:	bbd0                	.insn	2, 0xbbd0
    1dfa:	b8d0                	.insn	2, 0xb8d0
    1dfc:	b7d0                	.insn	2, 0xb7d0
    1dfe:	b0d0                	.insn	2, 0xb0d0
    1e00:	86d1                	srai	a3,a3,0x14
    1e02:	b8d0                	.insn	2, 0xb8d0
    1e04:	8fd1                	or	a5,a5,a2
    1e06:	4f20                	lw	s0,88(a4)
    1e08:	656c                	.insn	2, 0x656c
    1e0a:	2064                	.insn	2, 0x2064
    1e0c:	94d0                	.insn	2, 0x94d0
    1e0e:	b8d0                	.insn	2, 0xb8d0
    1e10:	81d1                	srli	a1,a1,0x14
    1e12:	bfd0                	.insn	2, 0xbfd0
    1e14:	bbd0                	.insn	2, 0xbbd0
    1e16:	b5d0                	.insn	2, 0xb5d0
    1e18:	8fd1                	or	a5,a5,a2
    1e1a:	0000                	unimp
    1e1c:	2b302d23          	sw	s3,698(zero) # 2ba <main+0x2c>
    1e20:	0020                	addi	s0,sp,8
    1e22:	0000                	unimp
    1e24:	6c68                	.insn	2, 0x6c68
    1e26:	004c                	addi	a1,sp,4
    1e28:	6665                	lui	a2,0x19
    1e2a:	47464567          	.insn	4, 0x47464567
    1e2e:	0000                	unimp
    1e30:	3130                	.insn	2, 0x3130
    1e32:	3332                	.insn	2, 0x3332
    1e34:	3534                	.insn	2, 0x3534
    1e36:	3736                	.insn	2, 0x3736
    1e38:	3938                	.insn	2, 0x3938
    1e3a:	4241                	li	tp,16
    1e3c:	46454443          	.insn	4, 0x46454443
    1e40:	0000                	unimp
    1e42:	0000                	unimp
    1e44:	3130                	.insn	2, 0x3130
    1e46:	3332                	.insn	2, 0x3332
    1e48:	3534                	.insn	2, 0x3534
    1e4a:	3736                	.insn	2, 0x3736
    1e4c:	3938                	.insn	2, 0x3938
    1e4e:	6261                	lui	tp,0x18
    1e50:	66656463          	bltu	a0,t1,24b8 <_data_lma+0x5c8>
    1e54:	0000                	unimp
	...

00001e58 <ssd1306_init_sequence>:
    1e58:	d5ae a8f0 d31f 4000 148d 0020 c8a1 02da     .......@.. .....
    1e68:	ff81 22d9 20db a6a4 af2e 0022 211f 7f00     ...". ...."..!..

00001e78 <APBAHBPrescTable>:
    1e78:	0000 0000 0201 0403 0201 0403 0706 0908     ................

00001e88 <AHBPrescTable>:
	...
    1e90:	0201 0403 0706 0908 12c6 0000 12dc 0000     ................
    1ea0:	12a4 0000 12a4 0000 12a4 0000 12a4 0000     ................
    1eb0:	12dc 0000 12a4 0000 12a4 0000 12a4 0000     ................
    1ec0:	12a4 0000 141c 0000 1318 0000 13c0 0000     ................
    1ed0:	12a4 0000 12a4 0000 144a 0000 12a4 0000     ........J.......
    1ee0:	1318 0000 12a4 0000 12a4 0000 13c8 0000     ................
